
/home/jonathanjonsson/MasterThesis/riscv-dv/out_2022-02-24/asm_test/riscv_arithmetic_basic_test_0.o:     file format elf64-littleriscv


Disassembly of section .text:

0000000000000000 <_start>:
       0:	f14022f3          	csrr	t0,mhartid
       4:	4301                	li	t1,0
       6:	00628263          	beq	t0,t1,a <_start+0xa>
       a:	00000817          	auipc	a6,0x0
       e:	00c80813          	addi	a6,a6,12 # 16 <h0_start>
      12:	00080067          	jr	a6

0000000000000016 <h0_start>:
      16:	fff00b9b          	addiw	s7,zero,-1
      1a:	1b9e                	slli	s7,s7,0x27
      1c:	0b85                	addi	s7,s7,1
      1e:	0bb2                	slli	s7,s7,0xc
      20:	841b8b93          	addi	s7,s7,-1983
      24:	0bb2                	slli	s7,s7,0xc
      26:	12db8b93          	addi	s7,s7,301
      2a:	301b9073          	csrw	misa,s7

000000000000002e <kernel_sp>:
      2e:	00020e17          	auipc	t3,0x20
      32:	ccae0e13          	addi	t3,t3,-822 # 1fcf8 <kernel_stack_end>

0000000000000036 <trap_vec_init>:
      36:	00001b97          	auipc	s7,0x1
      3a:	fcab8b93          	addi	s7,s7,-54 # 1000 <mtvec_handler>
      3e:	001beb93          	ori	s7,s7,1
      42:	305b9073          	csrw	mtvec,s7

0000000000000046 <pmp_setup>:
      46:	00001817          	auipc	a6,0x1
      4a:	79680813          	addi	a6,a6,1942 # 17dc <main>
      4e:	00285813          	srli	a6,a6,0x2
      52:	3b081073          	csrw	pmpaddr0,a6
      56:	483d                	li	a6,15
      58:	3a081073          	csrw	pmpcfg0,a6

000000000000005c <mepc_setup>:
      5c:	00000b97          	auipc	s7,0x0
      60:	02ab8b93          	addi	s7,s7,42 # 86 <init>
      64:	341b9073          	csrw	mepc,s7

0000000000000068 <custom_csr_setup>:
      68:	0001                	nop

000000000000006a <init_machine_mode>:
      6a:	00500bb7          	lui	s7,0x500
      6e:	041b8b9b          	addiw	s7,s7,65
      72:	0bb6                	slli	s7,s7,0xd
      74:	800b8b93          	addi	s7,s7,-2048 # 4ff800 <_end+0x4dfb00>
      78:	300b9073          	csrw	mstatus,s7
      7c:	4b81                	li	s7,0
      7e:	304b9073          	csrw	mie,s7
      82:	30200073          	mret

0000000000000086 <init>:
      86:	000ff037          	lui	zero,0xff
      8a:	7a30001b          	addiw	zero,zero,1955
      8e:	00c01013          	slli	zero,zero,0xc
      92:	3d800013          	li	zero,984
      96:	0010009b          	addiw	ra,zero,1
      9a:	00fe                	slli	ra,ra,0x1f
      9c:	4105                	li	sp,1
      9e:	41ad                	li	gp,11
      a0:	4205                	li	tp,1
      a2:	0010029b          	addiw	t0,zero,1
      a6:	02fe                	slli	t0,t0,0x1f
      a8:	4321                	li	t1,8
      aa:	6391                	lui	t2,0x4
      ac:	f1d3839b          	addiw	t2,t2,-227
      b0:	03ca                	slli	t2,t2,0x12
      b2:	c9838393          	addi	t2,t2,-872 # 3c98 <main+0x24bc>
      b6:	000f8437          	lui	s0,0xf8
      ba:	ec74041b          	addiw	s0,s0,-313
      be:	0432                	slli	s0,s0,0xc
      c0:	74140413          	addi	s0,s0,1857 # f8741 <_end+0xd8a41>
      c4:	0010049b          	addiw	s1,zero,1
      c8:	04fe                	slli	s1,s1,0x1f
      ca:	4509                	li	a0,2
      cc:	45bd                	li	a1,15
      ce:	4601                	li	a2,0
      d0:	46a1                	li	a3,8
      d2:	000a8737          	lui	a4,0xa8
      d6:	3f17071b          	addiw	a4,a4,1009
      da:	0732                	slli	a4,a4,0xc
      dc:	2db70713          	addi	a4,a4,731 # a82db <_end+0x885db>
      e0:	586b07b7          	lui	a5,0x586b0
      e4:	3791                	addiw	a5,a5,-28
      e6:	4801                	li	a6,0
      e8:	0010089b          	addiw	a7,zero,1
      ec:	08fe                	slli	a7,a7,0x1f
      ee:	4901                	li	s2,0
      f0:	000fd9b7          	lui	s3,0xfd
      f4:	8fd9899b          	addiw	s3,s3,-1795
      f8:	09b2                	slli	s3,s3,0xc
      fa:	e9a98993          	addi	s3,s3,-358 # fce9a <_end+0xdd19a>
      fe:	000f3a37          	lui	s4,0xf3
     102:	a43a0a1b          	addiw	s4,s4,-1469
     106:	0a32                	slli	s4,s4,0xc
     108:	2d8a0a13          	addi	s4,s4,728 # f32d8 <_end+0xd35d8>
     10c:	4a81                	li	s5,0
     10e:	4b29                	li	s6,10
     110:	798b5bb7          	lui	s7,0x798b5
     114:	b5eb8b9b          	addiw	s7,s7,-1186
     118:	491c3cb7          	lui	s9,0x491c3
     11c:	05bc8c9b          	addiw	s9,s9,91
     120:	4d01                	li	s10,0
     122:	4d81                	li	s11,0
     124:	4e81                	li	t4,0
     126:	4f01                	li	t5,0
     128:	000c4fb7          	lui	t6,0xc4
     12c:	2eff8f9b          	addiw	t6,t6,751
     130:	0fb2                	slli	t6,t6,0xc
     132:	736f8f93          	addi	t6,t6,1846 # c4736 <_end+0xa4a36>
     136:	00018c17          	auipc	s8,0x18
     13a:	b02c0c13          	addi	s8,s8,-1278 # 17c38 <user_stack_end>
     13e:	69e0106f          	j	17dc <main>

0000000000000142 <mmode_intr_vector_1>:
     142:	340c1c73          	csrrw	s8,mscratch,s8
     146:	000e0c33          	add	s8,t3,zero
     14a:	f08c0c13          	addi	s8,s8,-248
     14e:	001c3423          	sd	ra,8(s8)
     152:	002c3823          	sd	sp,16(s8)
     156:	003c3c23          	sd	gp,24(s8)
     15a:	024c3023          	sd	tp,32(s8)
     15e:	025c3423          	sd	t0,40(s8)
     162:	026c3823          	sd	t1,48(s8)
     166:	027c3c23          	sd	t2,56(s8)
     16a:	048c3023          	sd	s0,64(s8)
     16e:	049c3423          	sd	s1,72(s8)
     172:	04ac3823          	sd	a0,80(s8)
     176:	04bc3c23          	sd	a1,88(s8)
     17a:	06cc3023          	sd	a2,96(s8)
     17e:	06dc3423          	sd	a3,104(s8)
     182:	06ec3823          	sd	a4,112(s8)
     186:	06fc3c23          	sd	a5,120(s8)
     18a:	090c3023          	sd	a6,128(s8)
     18e:	091c3423          	sd	a7,136(s8)
     192:	092c3823          	sd	s2,144(s8)
     196:	093c3c23          	sd	s3,152(s8)
     19a:	0b4c3023          	sd	s4,160(s8)
     19e:	0b5c3423          	sd	s5,168(s8)
     1a2:	0b6c3823          	sd	s6,176(s8)
     1a6:	0b7c3c23          	sd	s7,184(s8)
     1aa:	0d8c3023          	sd	s8,192(s8)
     1ae:	0d9c3423          	sd	s9,200(s8)
     1b2:	0dac3823          	sd	s10,208(s8)
     1b6:	0dbc3c23          	sd	s11,216(s8)
     1ba:	0fcc3023          	sd	t3,224(s8)
     1be:	0fdc3423          	sd	t4,232(s8)
     1c2:	0fec3823          	sd	t5,240(s8)
     1c6:	0ffc3c23          	sd	t6,248(s8)
     1ca:	34202bf3          	csrr	s7,mcause
     1ce:	03fbdb93          	srli	s7,s7,0x3f
     1d2:	000b8463          	beqz	s7,1da <mmode_intr_vector_1+0x98>
     1d6:	62b0b06f          	j	c000 <mmode_intr_handler>
     1da:	00001817          	auipc	a6,0x1
     1de:	5fc80813          	addi	a6,a6,1532 # 17d6 <test_done>
     1e2:	00080067          	jr	a6

00000000000001e6 <mmode_intr_vector_2>:
     1e6:	340c1c73          	csrrw	s8,mscratch,s8
     1ea:	000e0c33          	add	s8,t3,zero
     1ee:	f08c0c13          	addi	s8,s8,-248
     1f2:	001c3423          	sd	ra,8(s8)
     1f6:	002c3823          	sd	sp,16(s8)
     1fa:	003c3c23          	sd	gp,24(s8)
     1fe:	024c3023          	sd	tp,32(s8)
     202:	025c3423          	sd	t0,40(s8)
     206:	026c3823          	sd	t1,48(s8)
     20a:	027c3c23          	sd	t2,56(s8)
     20e:	048c3023          	sd	s0,64(s8)
     212:	049c3423          	sd	s1,72(s8)
     216:	04ac3823          	sd	a0,80(s8)
     21a:	04bc3c23          	sd	a1,88(s8)
     21e:	06cc3023          	sd	a2,96(s8)
     222:	06dc3423          	sd	a3,104(s8)
     226:	06ec3823          	sd	a4,112(s8)
     22a:	06fc3c23          	sd	a5,120(s8)
     22e:	090c3023          	sd	a6,128(s8)
     232:	091c3423          	sd	a7,136(s8)
     236:	092c3823          	sd	s2,144(s8)
     23a:	093c3c23          	sd	s3,152(s8)
     23e:	0b4c3023          	sd	s4,160(s8)
     242:	0b5c3423          	sd	s5,168(s8)
     246:	0b6c3823          	sd	s6,176(s8)
     24a:	0b7c3c23          	sd	s7,184(s8)
     24e:	0d8c3023          	sd	s8,192(s8)
     252:	0d9c3423          	sd	s9,200(s8)
     256:	0dac3823          	sd	s10,208(s8)
     25a:	0dbc3c23          	sd	s11,216(s8)
     25e:	0fcc3023          	sd	t3,224(s8)
     262:	0fdc3423          	sd	t4,232(s8)
     266:	0fec3823          	sd	t5,240(s8)
     26a:	0ffc3c23          	sd	t6,248(s8)
     26e:	34202bf3          	csrr	s7,mcause
     272:	03fbdb93          	srli	s7,s7,0x3f
     276:	000b8463          	beqz	s7,27e <mmode_intr_vector_2+0x98>
     27a:	5870b06f          	j	c000 <mmode_intr_handler>
     27e:	00001817          	auipc	a6,0x1
     282:	55880813          	addi	a6,a6,1368 # 17d6 <test_done>
     286:	00080067          	jr	a6

000000000000028a <mmode_intr_vector_3>:
     28a:	340c1c73          	csrrw	s8,mscratch,s8
     28e:	000e0c33          	add	s8,t3,zero
     292:	f08c0c13          	addi	s8,s8,-248
     296:	001c3423          	sd	ra,8(s8)
     29a:	002c3823          	sd	sp,16(s8)
     29e:	003c3c23          	sd	gp,24(s8)
     2a2:	024c3023          	sd	tp,32(s8)
     2a6:	025c3423          	sd	t0,40(s8)
     2aa:	026c3823          	sd	t1,48(s8)
     2ae:	027c3c23          	sd	t2,56(s8)
     2b2:	048c3023          	sd	s0,64(s8)
     2b6:	049c3423          	sd	s1,72(s8)
     2ba:	04ac3823          	sd	a0,80(s8)
     2be:	04bc3c23          	sd	a1,88(s8)
     2c2:	06cc3023          	sd	a2,96(s8)
     2c6:	06dc3423          	sd	a3,104(s8)
     2ca:	06ec3823          	sd	a4,112(s8)
     2ce:	06fc3c23          	sd	a5,120(s8)
     2d2:	090c3023          	sd	a6,128(s8)
     2d6:	091c3423          	sd	a7,136(s8)
     2da:	092c3823          	sd	s2,144(s8)
     2de:	093c3c23          	sd	s3,152(s8)
     2e2:	0b4c3023          	sd	s4,160(s8)
     2e6:	0b5c3423          	sd	s5,168(s8)
     2ea:	0b6c3823          	sd	s6,176(s8)
     2ee:	0b7c3c23          	sd	s7,184(s8)
     2f2:	0d8c3023          	sd	s8,192(s8)
     2f6:	0d9c3423          	sd	s9,200(s8)
     2fa:	0dac3823          	sd	s10,208(s8)
     2fe:	0dbc3c23          	sd	s11,216(s8)
     302:	0fcc3023          	sd	t3,224(s8)
     306:	0fdc3423          	sd	t4,232(s8)
     30a:	0fec3823          	sd	t5,240(s8)
     30e:	0ffc3c23          	sd	t6,248(s8)
     312:	34202bf3          	csrr	s7,mcause
     316:	03fbdb93          	srli	s7,s7,0x3f
     31a:	000b8463          	beqz	s7,322 <mmode_intr_vector_3+0x98>
     31e:	4e30b06f          	j	c000 <mmode_intr_handler>
     322:	00001817          	auipc	a6,0x1
     326:	4b480813          	addi	a6,a6,1204 # 17d6 <test_done>
     32a:	00080067          	jr	a6

000000000000032e <mmode_intr_vector_4>:
     32e:	340c1c73          	csrrw	s8,mscratch,s8
     332:	000e0c33          	add	s8,t3,zero
     336:	f08c0c13          	addi	s8,s8,-248
     33a:	001c3423          	sd	ra,8(s8)
     33e:	002c3823          	sd	sp,16(s8)
     342:	003c3c23          	sd	gp,24(s8)
     346:	024c3023          	sd	tp,32(s8)
     34a:	025c3423          	sd	t0,40(s8)
     34e:	026c3823          	sd	t1,48(s8)
     352:	027c3c23          	sd	t2,56(s8)
     356:	048c3023          	sd	s0,64(s8)
     35a:	049c3423          	sd	s1,72(s8)
     35e:	04ac3823          	sd	a0,80(s8)
     362:	04bc3c23          	sd	a1,88(s8)
     366:	06cc3023          	sd	a2,96(s8)
     36a:	06dc3423          	sd	a3,104(s8)
     36e:	06ec3823          	sd	a4,112(s8)
     372:	06fc3c23          	sd	a5,120(s8)
     376:	090c3023          	sd	a6,128(s8)
     37a:	091c3423          	sd	a7,136(s8)
     37e:	092c3823          	sd	s2,144(s8)
     382:	093c3c23          	sd	s3,152(s8)
     386:	0b4c3023          	sd	s4,160(s8)
     38a:	0b5c3423          	sd	s5,168(s8)
     38e:	0b6c3823          	sd	s6,176(s8)
     392:	0b7c3c23          	sd	s7,184(s8)
     396:	0d8c3023          	sd	s8,192(s8)
     39a:	0d9c3423          	sd	s9,200(s8)
     39e:	0dac3823          	sd	s10,208(s8)
     3a2:	0dbc3c23          	sd	s11,216(s8)
     3a6:	0fcc3023          	sd	t3,224(s8)
     3aa:	0fdc3423          	sd	t4,232(s8)
     3ae:	0fec3823          	sd	t5,240(s8)
     3b2:	0ffc3c23          	sd	t6,248(s8)
     3b6:	34202bf3          	csrr	s7,mcause
     3ba:	03fbdb93          	srli	s7,s7,0x3f
     3be:	000b8463          	beqz	s7,3c6 <mmode_intr_vector_4+0x98>
     3c2:	43f0b06f          	j	c000 <mmode_intr_handler>
     3c6:	00001817          	auipc	a6,0x1
     3ca:	41080813          	addi	a6,a6,1040 # 17d6 <test_done>
     3ce:	00080067          	jr	a6

00000000000003d2 <mmode_intr_vector_5>:
     3d2:	340c1c73          	csrrw	s8,mscratch,s8
     3d6:	000e0c33          	add	s8,t3,zero
     3da:	f08c0c13          	addi	s8,s8,-248
     3de:	001c3423          	sd	ra,8(s8)
     3e2:	002c3823          	sd	sp,16(s8)
     3e6:	003c3c23          	sd	gp,24(s8)
     3ea:	024c3023          	sd	tp,32(s8)
     3ee:	025c3423          	sd	t0,40(s8)
     3f2:	026c3823          	sd	t1,48(s8)
     3f6:	027c3c23          	sd	t2,56(s8)
     3fa:	048c3023          	sd	s0,64(s8)
     3fe:	049c3423          	sd	s1,72(s8)
     402:	04ac3823          	sd	a0,80(s8)
     406:	04bc3c23          	sd	a1,88(s8)
     40a:	06cc3023          	sd	a2,96(s8)
     40e:	06dc3423          	sd	a3,104(s8)
     412:	06ec3823          	sd	a4,112(s8)
     416:	06fc3c23          	sd	a5,120(s8)
     41a:	090c3023          	sd	a6,128(s8)
     41e:	091c3423          	sd	a7,136(s8)
     422:	092c3823          	sd	s2,144(s8)
     426:	093c3c23          	sd	s3,152(s8)
     42a:	0b4c3023          	sd	s4,160(s8)
     42e:	0b5c3423          	sd	s5,168(s8)
     432:	0b6c3823          	sd	s6,176(s8)
     436:	0b7c3c23          	sd	s7,184(s8)
     43a:	0d8c3023          	sd	s8,192(s8)
     43e:	0d9c3423          	sd	s9,200(s8)
     442:	0dac3823          	sd	s10,208(s8)
     446:	0dbc3c23          	sd	s11,216(s8)
     44a:	0fcc3023          	sd	t3,224(s8)
     44e:	0fdc3423          	sd	t4,232(s8)
     452:	0fec3823          	sd	t5,240(s8)
     456:	0ffc3c23          	sd	t6,248(s8)
     45a:	34202bf3          	csrr	s7,mcause
     45e:	03fbdb93          	srli	s7,s7,0x3f
     462:	000b8463          	beqz	s7,46a <mmode_intr_vector_5+0x98>
     466:	39b0b06f          	j	c000 <mmode_intr_handler>
     46a:	00001817          	auipc	a6,0x1
     46e:	36c80813          	addi	a6,a6,876 # 17d6 <test_done>
     472:	00080067          	jr	a6

0000000000000476 <mmode_intr_vector_6>:
     476:	340c1c73          	csrrw	s8,mscratch,s8
     47a:	000e0c33          	add	s8,t3,zero
     47e:	f08c0c13          	addi	s8,s8,-248
     482:	001c3423          	sd	ra,8(s8)
     486:	002c3823          	sd	sp,16(s8)
     48a:	003c3c23          	sd	gp,24(s8)
     48e:	024c3023          	sd	tp,32(s8)
     492:	025c3423          	sd	t0,40(s8)
     496:	026c3823          	sd	t1,48(s8)
     49a:	027c3c23          	sd	t2,56(s8)
     49e:	048c3023          	sd	s0,64(s8)
     4a2:	049c3423          	sd	s1,72(s8)
     4a6:	04ac3823          	sd	a0,80(s8)
     4aa:	04bc3c23          	sd	a1,88(s8)
     4ae:	06cc3023          	sd	a2,96(s8)
     4b2:	06dc3423          	sd	a3,104(s8)
     4b6:	06ec3823          	sd	a4,112(s8)
     4ba:	06fc3c23          	sd	a5,120(s8)
     4be:	090c3023          	sd	a6,128(s8)
     4c2:	091c3423          	sd	a7,136(s8)
     4c6:	092c3823          	sd	s2,144(s8)
     4ca:	093c3c23          	sd	s3,152(s8)
     4ce:	0b4c3023          	sd	s4,160(s8)
     4d2:	0b5c3423          	sd	s5,168(s8)
     4d6:	0b6c3823          	sd	s6,176(s8)
     4da:	0b7c3c23          	sd	s7,184(s8)
     4de:	0d8c3023          	sd	s8,192(s8)
     4e2:	0d9c3423          	sd	s9,200(s8)
     4e6:	0dac3823          	sd	s10,208(s8)
     4ea:	0dbc3c23          	sd	s11,216(s8)
     4ee:	0fcc3023          	sd	t3,224(s8)
     4f2:	0fdc3423          	sd	t4,232(s8)
     4f6:	0fec3823          	sd	t5,240(s8)
     4fa:	0ffc3c23          	sd	t6,248(s8)
     4fe:	34202bf3          	csrr	s7,mcause
     502:	03fbdb93          	srli	s7,s7,0x3f
     506:	000b8463          	beqz	s7,50e <mmode_intr_vector_6+0x98>
     50a:	2f70b06f          	j	c000 <mmode_intr_handler>
     50e:	00001817          	auipc	a6,0x1
     512:	2c880813          	addi	a6,a6,712 # 17d6 <test_done>
     516:	00080067          	jr	a6

000000000000051a <mmode_intr_vector_7>:
     51a:	340c1c73          	csrrw	s8,mscratch,s8
     51e:	000e0c33          	add	s8,t3,zero
     522:	f08c0c13          	addi	s8,s8,-248
     526:	001c3423          	sd	ra,8(s8)
     52a:	002c3823          	sd	sp,16(s8)
     52e:	003c3c23          	sd	gp,24(s8)
     532:	024c3023          	sd	tp,32(s8)
     536:	025c3423          	sd	t0,40(s8)
     53a:	026c3823          	sd	t1,48(s8)
     53e:	027c3c23          	sd	t2,56(s8)
     542:	048c3023          	sd	s0,64(s8)
     546:	049c3423          	sd	s1,72(s8)
     54a:	04ac3823          	sd	a0,80(s8)
     54e:	04bc3c23          	sd	a1,88(s8)
     552:	06cc3023          	sd	a2,96(s8)
     556:	06dc3423          	sd	a3,104(s8)
     55a:	06ec3823          	sd	a4,112(s8)
     55e:	06fc3c23          	sd	a5,120(s8)
     562:	090c3023          	sd	a6,128(s8)
     566:	091c3423          	sd	a7,136(s8)
     56a:	092c3823          	sd	s2,144(s8)
     56e:	093c3c23          	sd	s3,152(s8)
     572:	0b4c3023          	sd	s4,160(s8)
     576:	0b5c3423          	sd	s5,168(s8)
     57a:	0b6c3823          	sd	s6,176(s8)
     57e:	0b7c3c23          	sd	s7,184(s8)
     582:	0d8c3023          	sd	s8,192(s8)
     586:	0d9c3423          	sd	s9,200(s8)
     58a:	0dac3823          	sd	s10,208(s8)
     58e:	0dbc3c23          	sd	s11,216(s8)
     592:	0fcc3023          	sd	t3,224(s8)
     596:	0fdc3423          	sd	t4,232(s8)
     59a:	0fec3823          	sd	t5,240(s8)
     59e:	0ffc3c23          	sd	t6,248(s8)
     5a2:	34202bf3          	csrr	s7,mcause
     5a6:	03fbdb93          	srli	s7,s7,0x3f
     5aa:	000b8463          	beqz	s7,5b2 <mmode_intr_vector_7+0x98>
     5ae:	2530b06f          	j	c000 <mmode_intr_handler>
     5b2:	00001817          	auipc	a6,0x1
     5b6:	22480813          	addi	a6,a6,548 # 17d6 <test_done>
     5ba:	00080067          	jr	a6

00000000000005be <mmode_intr_vector_8>:
     5be:	340c1c73          	csrrw	s8,mscratch,s8
     5c2:	000e0c33          	add	s8,t3,zero
     5c6:	f08c0c13          	addi	s8,s8,-248
     5ca:	001c3423          	sd	ra,8(s8)
     5ce:	002c3823          	sd	sp,16(s8)
     5d2:	003c3c23          	sd	gp,24(s8)
     5d6:	024c3023          	sd	tp,32(s8)
     5da:	025c3423          	sd	t0,40(s8)
     5de:	026c3823          	sd	t1,48(s8)
     5e2:	027c3c23          	sd	t2,56(s8)
     5e6:	048c3023          	sd	s0,64(s8)
     5ea:	049c3423          	sd	s1,72(s8)
     5ee:	04ac3823          	sd	a0,80(s8)
     5f2:	04bc3c23          	sd	a1,88(s8)
     5f6:	06cc3023          	sd	a2,96(s8)
     5fa:	06dc3423          	sd	a3,104(s8)
     5fe:	06ec3823          	sd	a4,112(s8)
     602:	06fc3c23          	sd	a5,120(s8)
     606:	090c3023          	sd	a6,128(s8)
     60a:	091c3423          	sd	a7,136(s8)
     60e:	092c3823          	sd	s2,144(s8)
     612:	093c3c23          	sd	s3,152(s8)
     616:	0b4c3023          	sd	s4,160(s8)
     61a:	0b5c3423          	sd	s5,168(s8)
     61e:	0b6c3823          	sd	s6,176(s8)
     622:	0b7c3c23          	sd	s7,184(s8)
     626:	0d8c3023          	sd	s8,192(s8)
     62a:	0d9c3423          	sd	s9,200(s8)
     62e:	0dac3823          	sd	s10,208(s8)
     632:	0dbc3c23          	sd	s11,216(s8)
     636:	0fcc3023          	sd	t3,224(s8)
     63a:	0fdc3423          	sd	t4,232(s8)
     63e:	0fec3823          	sd	t5,240(s8)
     642:	0ffc3c23          	sd	t6,248(s8)
     646:	34202bf3          	csrr	s7,mcause
     64a:	03fbdb93          	srli	s7,s7,0x3f
     64e:	000b8463          	beqz	s7,656 <mmode_intr_vector_8+0x98>
     652:	1af0b06f          	j	c000 <mmode_intr_handler>
     656:	00001817          	auipc	a6,0x1
     65a:	18080813          	addi	a6,a6,384 # 17d6 <test_done>
     65e:	00080067          	jr	a6

0000000000000662 <mmode_intr_vector_9>:
     662:	340c1c73          	csrrw	s8,mscratch,s8
     666:	000e0c33          	add	s8,t3,zero
     66a:	f08c0c13          	addi	s8,s8,-248
     66e:	001c3423          	sd	ra,8(s8)
     672:	002c3823          	sd	sp,16(s8)
     676:	003c3c23          	sd	gp,24(s8)
     67a:	024c3023          	sd	tp,32(s8)
     67e:	025c3423          	sd	t0,40(s8)
     682:	026c3823          	sd	t1,48(s8)
     686:	027c3c23          	sd	t2,56(s8)
     68a:	048c3023          	sd	s0,64(s8)
     68e:	049c3423          	sd	s1,72(s8)
     692:	04ac3823          	sd	a0,80(s8)
     696:	04bc3c23          	sd	a1,88(s8)
     69a:	06cc3023          	sd	a2,96(s8)
     69e:	06dc3423          	sd	a3,104(s8)
     6a2:	06ec3823          	sd	a4,112(s8)
     6a6:	06fc3c23          	sd	a5,120(s8)
     6aa:	090c3023          	sd	a6,128(s8)
     6ae:	091c3423          	sd	a7,136(s8)
     6b2:	092c3823          	sd	s2,144(s8)
     6b6:	093c3c23          	sd	s3,152(s8)
     6ba:	0b4c3023          	sd	s4,160(s8)
     6be:	0b5c3423          	sd	s5,168(s8)
     6c2:	0b6c3823          	sd	s6,176(s8)
     6c6:	0b7c3c23          	sd	s7,184(s8)
     6ca:	0d8c3023          	sd	s8,192(s8)
     6ce:	0d9c3423          	sd	s9,200(s8)
     6d2:	0dac3823          	sd	s10,208(s8)
     6d6:	0dbc3c23          	sd	s11,216(s8)
     6da:	0fcc3023          	sd	t3,224(s8)
     6de:	0fdc3423          	sd	t4,232(s8)
     6e2:	0fec3823          	sd	t5,240(s8)
     6e6:	0ffc3c23          	sd	t6,248(s8)
     6ea:	34202bf3          	csrr	s7,mcause
     6ee:	03fbdb93          	srli	s7,s7,0x3f
     6f2:	000b8463          	beqz	s7,6fa <mmode_intr_vector_9+0x98>
     6f6:	10b0b06f          	j	c000 <mmode_intr_handler>
     6fa:	00001817          	auipc	a6,0x1
     6fe:	0dc80813          	addi	a6,a6,220 # 17d6 <test_done>
     702:	00080067          	jr	a6

0000000000000706 <mmode_intr_vector_10>:
     706:	340c1c73          	csrrw	s8,mscratch,s8
     70a:	000e0c33          	add	s8,t3,zero
     70e:	f08c0c13          	addi	s8,s8,-248
     712:	001c3423          	sd	ra,8(s8)
     716:	002c3823          	sd	sp,16(s8)
     71a:	003c3c23          	sd	gp,24(s8)
     71e:	024c3023          	sd	tp,32(s8)
     722:	025c3423          	sd	t0,40(s8)
     726:	026c3823          	sd	t1,48(s8)
     72a:	027c3c23          	sd	t2,56(s8)
     72e:	048c3023          	sd	s0,64(s8)
     732:	049c3423          	sd	s1,72(s8)
     736:	04ac3823          	sd	a0,80(s8)
     73a:	04bc3c23          	sd	a1,88(s8)
     73e:	06cc3023          	sd	a2,96(s8)
     742:	06dc3423          	sd	a3,104(s8)
     746:	06ec3823          	sd	a4,112(s8)
     74a:	06fc3c23          	sd	a5,120(s8)
     74e:	090c3023          	sd	a6,128(s8)
     752:	091c3423          	sd	a7,136(s8)
     756:	092c3823          	sd	s2,144(s8)
     75a:	093c3c23          	sd	s3,152(s8)
     75e:	0b4c3023          	sd	s4,160(s8)
     762:	0b5c3423          	sd	s5,168(s8)
     766:	0b6c3823          	sd	s6,176(s8)
     76a:	0b7c3c23          	sd	s7,184(s8)
     76e:	0d8c3023          	sd	s8,192(s8)
     772:	0d9c3423          	sd	s9,200(s8)
     776:	0dac3823          	sd	s10,208(s8)
     77a:	0dbc3c23          	sd	s11,216(s8)
     77e:	0fcc3023          	sd	t3,224(s8)
     782:	0fdc3423          	sd	t4,232(s8)
     786:	0fec3823          	sd	t5,240(s8)
     78a:	0ffc3c23          	sd	t6,248(s8)
     78e:	34202bf3          	csrr	s7,mcause
     792:	03fbdb93          	srli	s7,s7,0x3f
     796:	000b8463          	beqz	s7,79e <mmode_intr_vector_10+0x98>
     79a:	0670b06f          	j	c000 <mmode_intr_handler>
     79e:	00001817          	auipc	a6,0x1
     7a2:	03880813          	addi	a6,a6,56 # 17d6 <test_done>
     7a6:	00080067          	jr	a6

00000000000007aa <mmode_intr_vector_11>:
     7aa:	340c1c73          	csrrw	s8,mscratch,s8
     7ae:	000e0c33          	add	s8,t3,zero
     7b2:	f08c0c13          	addi	s8,s8,-248
     7b6:	001c3423          	sd	ra,8(s8)
     7ba:	002c3823          	sd	sp,16(s8)
     7be:	003c3c23          	sd	gp,24(s8)
     7c2:	024c3023          	sd	tp,32(s8)
     7c6:	025c3423          	sd	t0,40(s8)
     7ca:	026c3823          	sd	t1,48(s8)
     7ce:	027c3c23          	sd	t2,56(s8)
     7d2:	048c3023          	sd	s0,64(s8)
     7d6:	049c3423          	sd	s1,72(s8)
     7da:	04ac3823          	sd	a0,80(s8)
     7de:	04bc3c23          	sd	a1,88(s8)
     7e2:	06cc3023          	sd	a2,96(s8)
     7e6:	06dc3423          	sd	a3,104(s8)
     7ea:	06ec3823          	sd	a4,112(s8)
     7ee:	06fc3c23          	sd	a5,120(s8)
     7f2:	090c3023          	sd	a6,128(s8)
     7f6:	091c3423          	sd	a7,136(s8)
     7fa:	092c3823          	sd	s2,144(s8)
     7fe:	093c3c23          	sd	s3,152(s8)
     802:	0b4c3023          	sd	s4,160(s8)
     806:	0b5c3423          	sd	s5,168(s8)
     80a:	0b6c3823          	sd	s6,176(s8)
     80e:	0b7c3c23          	sd	s7,184(s8)
     812:	0d8c3023          	sd	s8,192(s8)
     816:	0d9c3423          	sd	s9,200(s8)
     81a:	0dac3823          	sd	s10,208(s8)
     81e:	0dbc3c23          	sd	s11,216(s8)
     822:	0fcc3023          	sd	t3,224(s8)
     826:	0fdc3423          	sd	t4,232(s8)
     82a:	0fec3823          	sd	t5,240(s8)
     82e:	0ffc3c23          	sd	t6,248(s8)
     832:	34202bf3          	csrr	s7,mcause
     836:	03fbdb93          	srli	s7,s7,0x3f
     83a:	000b8463          	beqz	s7,842 <mmode_intr_vector_11+0x98>
     83e:	7c20b06f          	j	c000 <mmode_intr_handler>
     842:	00001817          	auipc	a6,0x1
     846:	f9480813          	addi	a6,a6,-108 # 17d6 <test_done>
     84a:	00080067          	jr	a6

000000000000084e <mmode_intr_vector_12>:
     84e:	340c1c73          	csrrw	s8,mscratch,s8
     852:	000e0c33          	add	s8,t3,zero
     856:	f08c0c13          	addi	s8,s8,-248
     85a:	001c3423          	sd	ra,8(s8)
     85e:	002c3823          	sd	sp,16(s8)
     862:	003c3c23          	sd	gp,24(s8)
     866:	024c3023          	sd	tp,32(s8)
     86a:	025c3423          	sd	t0,40(s8)
     86e:	026c3823          	sd	t1,48(s8)
     872:	027c3c23          	sd	t2,56(s8)
     876:	048c3023          	sd	s0,64(s8)
     87a:	049c3423          	sd	s1,72(s8)
     87e:	04ac3823          	sd	a0,80(s8)
     882:	04bc3c23          	sd	a1,88(s8)
     886:	06cc3023          	sd	a2,96(s8)
     88a:	06dc3423          	sd	a3,104(s8)
     88e:	06ec3823          	sd	a4,112(s8)
     892:	06fc3c23          	sd	a5,120(s8)
     896:	090c3023          	sd	a6,128(s8)
     89a:	091c3423          	sd	a7,136(s8)
     89e:	092c3823          	sd	s2,144(s8)
     8a2:	093c3c23          	sd	s3,152(s8)
     8a6:	0b4c3023          	sd	s4,160(s8)
     8aa:	0b5c3423          	sd	s5,168(s8)
     8ae:	0b6c3823          	sd	s6,176(s8)
     8b2:	0b7c3c23          	sd	s7,184(s8)
     8b6:	0d8c3023          	sd	s8,192(s8)
     8ba:	0d9c3423          	sd	s9,200(s8)
     8be:	0dac3823          	sd	s10,208(s8)
     8c2:	0dbc3c23          	sd	s11,216(s8)
     8c6:	0fcc3023          	sd	t3,224(s8)
     8ca:	0fdc3423          	sd	t4,232(s8)
     8ce:	0fec3823          	sd	t5,240(s8)
     8d2:	0ffc3c23          	sd	t6,248(s8)
     8d6:	34202bf3          	csrr	s7,mcause
     8da:	03fbdb93          	srli	s7,s7,0x3f
     8de:	000b8463          	beqz	s7,8e6 <mmode_intr_vector_12+0x98>
     8e2:	71e0b06f          	j	c000 <mmode_intr_handler>
     8e6:	00001817          	auipc	a6,0x1
     8ea:	ef080813          	addi	a6,a6,-272 # 17d6 <test_done>
     8ee:	00080067          	jr	a6

00000000000008f2 <mmode_intr_vector_13>:
     8f2:	340c1c73          	csrrw	s8,mscratch,s8
     8f6:	000e0c33          	add	s8,t3,zero
     8fa:	f08c0c13          	addi	s8,s8,-248
     8fe:	001c3423          	sd	ra,8(s8)
     902:	002c3823          	sd	sp,16(s8)
     906:	003c3c23          	sd	gp,24(s8)
     90a:	024c3023          	sd	tp,32(s8)
     90e:	025c3423          	sd	t0,40(s8)
     912:	026c3823          	sd	t1,48(s8)
     916:	027c3c23          	sd	t2,56(s8)
     91a:	048c3023          	sd	s0,64(s8)
     91e:	049c3423          	sd	s1,72(s8)
     922:	04ac3823          	sd	a0,80(s8)
     926:	04bc3c23          	sd	a1,88(s8)
     92a:	06cc3023          	sd	a2,96(s8)
     92e:	06dc3423          	sd	a3,104(s8)
     932:	06ec3823          	sd	a4,112(s8)
     936:	06fc3c23          	sd	a5,120(s8)
     93a:	090c3023          	sd	a6,128(s8)
     93e:	091c3423          	sd	a7,136(s8)
     942:	092c3823          	sd	s2,144(s8)
     946:	093c3c23          	sd	s3,152(s8)
     94a:	0b4c3023          	sd	s4,160(s8)
     94e:	0b5c3423          	sd	s5,168(s8)
     952:	0b6c3823          	sd	s6,176(s8)
     956:	0b7c3c23          	sd	s7,184(s8)
     95a:	0d8c3023          	sd	s8,192(s8)
     95e:	0d9c3423          	sd	s9,200(s8)
     962:	0dac3823          	sd	s10,208(s8)
     966:	0dbc3c23          	sd	s11,216(s8)
     96a:	0fcc3023          	sd	t3,224(s8)
     96e:	0fdc3423          	sd	t4,232(s8)
     972:	0fec3823          	sd	t5,240(s8)
     976:	0ffc3c23          	sd	t6,248(s8)
     97a:	34202bf3          	csrr	s7,mcause
     97e:	03fbdb93          	srli	s7,s7,0x3f
     982:	000b8463          	beqz	s7,98a <mmode_intr_vector_13+0x98>
     986:	67a0b06f          	j	c000 <mmode_intr_handler>
     98a:	00001817          	auipc	a6,0x1
     98e:	e4c80813          	addi	a6,a6,-436 # 17d6 <test_done>
     992:	00080067          	jr	a6

0000000000000996 <mmode_intr_vector_14>:
     996:	340c1c73          	csrrw	s8,mscratch,s8
     99a:	000e0c33          	add	s8,t3,zero
     99e:	f08c0c13          	addi	s8,s8,-248
     9a2:	001c3423          	sd	ra,8(s8)
     9a6:	002c3823          	sd	sp,16(s8)
     9aa:	003c3c23          	sd	gp,24(s8)
     9ae:	024c3023          	sd	tp,32(s8)
     9b2:	025c3423          	sd	t0,40(s8)
     9b6:	026c3823          	sd	t1,48(s8)
     9ba:	027c3c23          	sd	t2,56(s8)
     9be:	048c3023          	sd	s0,64(s8)
     9c2:	049c3423          	sd	s1,72(s8)
     9c6:	04ac3823          	sd	a0,80(s8)
     9ca:	04bc3c23          	sd	a1,88(s8)
     9ce:	06cc3023          	sd	a2,96(s8)
     9d2:	06dc3423          	sd	a3,104(s8)
     9d6:	06ec3823          	sd	a4,112(s8)
     9da:	06fc3c23          	sd	a5,120(s8)
     9de:	090c3023          	sd	a6,128(s8)
     9e2:	091c3423          	sd	a7,136(s8)
     9e6:	092c3823          	sd	s2,144(s8)
     9ea:	093c3c23          	sd	s3,152(s8)
     9ee:	0b4c3023          	sd	s4,160(s8)
     9f2:	0b5c3423          	sd	s5,168(s8)
     9f6:	0b6c3823          	sd	s6,176(s8)
     9fa:	0b7c3c23          	sd	s7,184(s8)
     9fe:	0d8c3023          	sd	s8,192(s8)
     a02:	0d9c3423          	sd	s9,200(s8)
     a06:	0dac3823          	sd	s10,208(s8)
     a0a:	0dbc3c23          	sd	s11,216(s8)
     a0e:	0fcc3023          	sd	t3,224(s8)
     a12:	0fdc3423          	sd	t4,232(s8)
     a16:	0fec3823          	sd	t5,240(s8)
     a1a:	0ffc3c23          	sd	t6,248(s8)
     a1e:	34202bf3          	csrr	s7,mcause
     a22:	03fbdb93          	srli	s7,s7,0x3f
     a26:	000b8463          	beqz	s7,a2e <mmode_intr_vector_14+0x98>
     a2a:	5d60b06f          	j	c000 <mmode_intr_handler>
     a2e:	00001817          	auipc	a6,0x1
     a32:	da880813          	addi	a6,a6,-600 # 17d6 <test_done>
     a36:	00080067          	jr	a6

0000000000000a3a <mmode_intr_vector_15>:
     a3a:	340c1c73          	csrrw	s8,mscratch,s8
     a3e:	000e0c33          	add	s8,t3,zero
     a42:	f08c0c13          	addi	s8,s8,-248
     a46:	001c3423          	sd	ra,8(s8)
     a4a:	002c3823          	sd	sp,16(s8)
     a4e:	003c3c23          	sd	gp,24(s8)
     a52:	024c3023          	sd	tp,32(s8)
     a56:	025c3423          	sd	t0,40(s8)
     a5a:	026c3823          	sd	t1,48(s8)
     a5e:	027c3c23          	sd	t2,56(s8)
     a62:	048c3023          	sd	s0,64(s8)
     a66:	049c3423          	sd	s1,72(s8)
     a6a:	04ac3823          	sd	a0,80(s8)
     a6e:	04bc3c23          	sd	a1,88(s8)
     a72:	06cc3023          	sd	a2,96(s8)
     a76:	06dc3423          	sd	a3,104(s8)
     a7a:	06ec3823          	sd	a4,112(s8)
     a7e:	06fc3c23          	sd	a5,120(s8)
     a82:	090c3023          	sd	a6,128(s8)
     a86:	091c3423          	sd	a7,136(s8)
     a8a:	092c3823          	sd	s2,144(s8)
     a8e:	093c3c23          	sd	s3,152(s8)
     a92:	0b4c3023          	sd	s4,160(s8)
     a96:	0b5c3423          	sd	s5,168(s8)
     a9a:	0b6c3823          	sd	s6,176(s8)
     a9e:	0b7c3c23          	sd	s7,184(s8)
     aa2:	0d8c3023          	sd	s8,192(s8)
     aa6:	0d9c3423          	sd	s9,200(s8)
     aaa:	0dac3823          	sd	s10,208(s8)
     aae:	0dbc3c23          	sd	s11,216(s8)
     ab2:	0fcc3023          	sd	t3,224(s8)
     ab6:	0fdc3423          	sd	t4,232(s8)
     aba:	0fec3823          	sd	t5,240(s8)
     abe:	0ffc3c23          	sd	t6,248(s8)
     ac2:	34202bf3          	csrr	s7,mcause
     ac6:	03fbdb93          	srli	s7,s7,0x3f
     aca:	000b8463          	beqz	s7,ad2 <mmode_intr_vector_15+0x98>
     ace:	5320b06f          	j	c000 <mmode_intr_handler>
     ad2:	00001817          	auipc	a6,0x1
     ad6:	d0480813          	addi	a6,a6,-764 # 17d6 <test_done>
     ada:	00080067          	jr	a6
     ade:	00000013          	nop
     ae2:	00000013          	nop
     ae6:	00000013          	nop
     aea:	00000013          	nop
     aee:	00000013          	nop
     af2:	00000013          	nop
     af6:	00000013          	nop
     afa:	00000013          	nop
     afe:	00000013          	nop
     b02:	00000013          	nop
     b06:	00000013          	nop
     b0a:	00000013          	nop
     b0e:	00000013          	nop
     b12:	00000013          	nop
     b16:	00000013          	nop
     b1a:	00000013          	nop
     b1e:	00000013          	nop
     b22:	00000013          	nop
     b26:	00000013          	nop
     b2a:	00000013          	nop
     b2e:	00000013          	nop
     b32:	00000013          	nop
     b36:	00000013          	nop
     b3a:	00000013          	nop
     b3e:	00000013          	nop
     b42:	00000013          	nop
     b46:	00000013          	nop
     b4a:	00000013          	nop
     b4e:	00000013          	nop
     b52:	00000013          	nop
     b56:	00000013          	nop
     b5a:	00000013          	nop
     b5e:	00000013          	nop
     b62:	00000013          	nop
     b66:	00000013          	nop
     b6a:	00000013          	nop
     b6e:	00000013          	nop
     b72:	00000013          	nop
     b76:	00000013          	nop
     b7a:	00000013          	nop
     b7e:	00000013          	nop
     b82:	00000013          	nop
     b86:	00000013          	nop
     b8a:	00000013          	nop
     b8e:	00000013          	nop
     b92:	00000013          	nop
     b96:	00000013          	nop
     b9a:	00000013          	nop
     b9e:	00000013          	nop
     ba2:	00000013          	nop
     ba6:	00000013          	nop
     baa:	00000013          	nop
     bae:	00000013          	nop
     bb2:	00000013          	nop
     bb6:	00000013          	nop
     bba:	00000013          	nop
     bbe:	00000013          	nop
     bc2:	00000013          	nop
     bc6:	00000013          	nop
     bca:	00000013          	nop
     bce:	00000013          	nop
     bd2:	00000013          	nop
     bd6:	00000013          	nop
     bda:	00000013          	nop
     bde:	00000013          	nop
     be2:	00000013          	nop
     be6:	00000013          	nop
     bea:	00000013          	nop
     bee:	00000013          	nop
     bf2:	00000013          	nop
     bf6:	00000013          	nop
     bfa:	00000013          	nop
     bfe:	00000013          	nop
     c02:	00000013          	nop
     c06:	00000013          	nop
     c0a:	00000013          	nop
     c0e:	00000013          	nop
     c12:	00000013          	nop
     c16:	00000013          	nop
     c1a:	00000013          	nop
     c1e:	00000013          	nop
     c22:	00000013          	nop
     c26:	00000013          	nop
     c2a:	00000013          	nop
     c2e:	00000013          	nop
     c32:	00000013          	nop
     c36:	00000013          	nop
     c3a:	00000013          	nop
     c3e:	00000013          	nop
     c42:	00000013          	nop
     c46:	00000013          	nop
     c4a:	00000013          	nop
     c4e:	00000013          	nop
     c52:	00000013          	nop
     c56:	00000013          	nop
     c5a:	00000013          	nop
     c5e:	00000013          	nop
     c62:	00000013          	nop
     c66:	00000013          	nop
     c6a:	00000013          	nop
     c6e:	00000013          	nop
     c72:	00000013          	nop
     c76:	00000013          	nop
     c7a:	00000013          	nop
     c7e:	00000013          	nop
     c82:	00000013          	nop
     c86:	00000013          	nop
     c8a:	00000013          	nop
     c8e:	00000013          	nop
     c92:	00000013          	nop
     c96:	00000013          	nop
     c9a:	00000013          	nop
     c9e:	00000013          	nop
     ca2:	00000013          	nop
     ca6:	00000013          	nop
     caa:	00000013          	nop
     cae:	00000013          	nop
     cb2:	00000013          	nop
     cb6:	00000013          	nop
     cba:	00000013          	nop
     cbe:	00000013          	nop
     cc2:	00000013          	nop
     cc6:	00000013          	nop
     cca:	00000013          	nop
     cce:	00000013          	nop
     cd2:	00000013          	nop
     cd6:	00000013          	nop
     cda:	00000013          	nop
     cde:	00000013          	nop
     ce2:	00000013          	nop
     ce6:	00000013          	nop
     cea:	00000013          	nop
     cee:	00000013          	nop
     cf2:	00000013          	nop
     cf6:	00000013          	nop
     cfa:	00000013          	nop
     cfe:	00000013          	nop
     d02:	00000013          	nop
     d06:	00000013          	nop
     d0a:	00000013          	nop
     d0e:	00000013          	nop
     d12:	00000013          	nop
     d16:	00000013          	nop
     d1a:	00000013          	nop
     d1e:	00000013          	nop
     d22:	00000013          	nop
     d26:	00000013          	nop
     d2a:	00000013          	nop
     d2e:	00000013          	nop
     d32:	00000013          	nop
     d36:	00000013          	nop
     d3a:	00000013          	nop
     d3e:	00000013          	nop
     d42:	00000013          	nop
     d46:	00000013          	nop
     d4a:	00000013          	nop
     d4e:	00000013          	nop
     d52:	00000013          	nop
     d56:	00000013          	nop
     d5a:	00000013          	nop
     d5e:	00000013          	nop
     d62:	00000013          	nop
     d66:	00000013          	nop
     d6a:	00000013          	nop
     d6e:	00000013          	nop
     d72:	00000013          	nop
     d76:	00000013          	nop
     d7a:	00000013          	nop
     d7e:	00000013          	nop
     d82:	00000013          	nop
     d86:	00000013          	nop
     d8a:	00000013          	nop
     d8e:	00000013          	nop
     d92:	00000013          	nop
     d96:	00000013          	nop
     d9a:	00000013          	nop
     d9e:	00000013          	nop
     da2:	00000013          	nop
     da6:	00000013          	nop
     daa:	00000013          	nop
     dae:	00000013          	nop
     db2:	00000013          	nop
     db6:	00000013          	nop
     dba:	00000013          	nop
     dbe:	00000013          	nop
     dc2:	00000013          	nop
     dc6:	00000013          	nop
     dca:	00000013          	nop
     dce:	00000013          	nop
     dd2:	00000013          	nop
     dd6:	00000013          	nop
     dda:	00000013          	nop
     dde:	00000013          	nop
     de2:	00000013          	nop
     de6:	00000013          	nop
     dea:	00000013          	nop
     dee:	00000013          	nop
     df2:	00000013          	nop
     df6:	00000013          	nop
     dfa:	00000013          	nop
     dfe:	00000013          	nop
     e02:	00000013          	nop
     e06:	00000013          	nop
     e0a:	00000013          	nop
     e0e:	00000013          	nop
     e12:	00000013          	nop
     e16:	00000013          	nop
     e1a:	00000013          	nop
     e1e:	00000013          	nop
     e22:	00000013          	nop
     e26:	00000013          	nop
     e2a:	00000013          	nop
     e2e:	00000013          	nop
     e32:	00000013          	nop
     e36:	00000013          	nop
     e3a:	00000013          	nop
     e3e:	00000013          	nop
     e42:	00000013          	nop
     e46:	00000013          	nop
     e4a:	00000013          	nop
     e4e:	00000013          	nop
     e52:	00000013          	nop
     e56:	00000013          	nop
     e5a:	00000013          	nop
     e5e:	00000013          	nop
     e62:	00000013          	nop
     e66:	00000013          	nop
     e6a:	00000013          	nop
     e6e:	00000013          	nop
     e72:	00000013          	nop
     e76:	00000013          	nop
     e7a:	00000013          	nop
     e7e:	00000013          	nop
     e82:	00000013          	nop
     e86:	00000013          	nop
     e8a:	00000013          	nop
     e8e:	00000013          	nop
     e92:	00000013          	nop
     e96:	00000013          	nop
     e9a:	00000013          	nop
     e9e:	00000013          	nop
     ea2:	00000013          	nop
     ea6:	00000013          	nop
     eaa:	00000013          	nop
     eae:	00000013          	nop
     eb2:	00000013          	nop
     eb6:	00000013          	nop
     eba:	00000013          	nop
     ebe:	00000013          	nop
     ec2:	00000013          	nop
     ec6:	00000013          	nop
     eca:	00000013          	nop
     ece:	00000013          	nop
     ed2:	00000013          	nop
     ed6:	00000013          	nop
     eda:	00000013          	nop
     ede:	00000013          	nop
     ee2:	00000013          	nop
     ee6:	00000013          	nop
     eea:	00000013          	nop
     eee:	00000013          	nop
     ef2:	00000013          	nop
     ef6:	00000013          	nop
     efa:	00000013          	nop
     efe:	00000013          	nop
     f02:	00000013          	nop
     f06:	00000013          	nop
     f0a:	00000013          	nop
     f0e:	00000013          	nop
     f12:	00000013          	nop
     f16:	00000013          	nop
     f1a:	00000013          	nop
     f1e:	00000013          	nop
     f22:	00000013          	nop
     f26:	00000013          	nop
     f2a:	00000013          	nop
     f2e:	00000013          	nop
     f32:	00000013          	nop
     f36:	00000013          	nop
     f3a:	00000013          	nop
     f3e:	00000013          	nop
     f42:	00000013          	nop
     f46:	00000013          	nop
     f4a:	00000013          	nop
     f4e:	00000013          	nop
     f52:	00000013          	nop
     f56:	00000013          	nop
     f5a:	00000013          	nop
     f5e:	00000013          	nop
     f62:	00000013          	nop
     f66:	00000013          	nop
     f6a:	00000013          	nop
     f6e:	00000013          	nop
     f72:	00000013          	nop
     f76:	00000013          	nop
     f7a:	00000013          	nop
     f7e:	00000013          	nop
     f82:	00000013          	nop
     f86:	00000013          	nop
     f8a:	00000013          	nop
     f8e:	00000013          	nop
     f92:	00000013          	nop
     f96:	00000013          	nop
     f9a:	00000013          	nop
     f9e:	00000013          	nop
     fa2:	00000013          	nop
     fa6:	00000013          	nop
     faa:	00000013          	nop
     fae:	00000013          	nop
     fb2:	00000013          	nop
     fb6:	00000013          	nop
     fba:	00000013          	nop
     fbe:	00000013          	nop
     fc2:	00000013          	nop
     fc6:	00000013          	nop
     fca:	00000013          	nop
     fce:	00000013          	nop
     fd2:	00000013          	nop
     fd6:	00000013          	nop
     fda:	00000013          	nop
     fde:	00000013          	nop
     fe2:	00000013          	nop
     fe6:	00000013          	nop
     fea:	00000013          	nop
     fee:	00000013          	nop
     ff2:	00000013          	nop
     ff6:	00000013          	nop
     ffa:	00000013          	nop
     ffe:	0001                	nop

0000000000001000 <mtvec_handler>:
    1000:	0400006f          	j	1040 <mmode_exception_handler>
    1004:	93eff06f          	j	142 <mmode_intr_vector_1>
    1008:	9deff06f          	j	1e6 <mmode_intr_vector_2>
    100c:	a7eff06f          	j	28a <mmode_intr_vector_3>
    1010:	b1eff06f          	j	32e <mmode_intr_vector_4>
    1014:	bbeff06f          	j	3d2 <mmode_intr_vector_5>
    1018:	c5eff06f          	j	476 <mmode_intr_vector_6>
    101c:	cfeff06f          	j	51a <mmode_intr_vector_7>
    1020:	d9eff06f          	j	5be <mmode_intr_vector_8>
    1024:	e3eff06f          	j	662 <mmode_intr_vector_9>
    1028:	edeff06f          	j	706 <mmode_intr_vector_10>
    102c:	f7eff06f          	j	7aa <mmode_intr_vector_11>
    1030:	81fff06f          	j	84e <mmode_intr_vector_12>
    1034:	8bfff06f          	j	8f2 <mmode_intr_vector_13>
    1038:	95fff06f          	j	996 <mmode_intr_vector_14>
    103c:	9ffff06f          	j	a3a <mmode_intr_vector_15>

0000000000001040 <mmode_exception_handler>:
    1040:	340c1c73          	csrrw	s8,mscratch,s8
    1044:	000e0c33          	add	s8,t3,zero
    1048:	f08c0c13          	addi	s8,s8,-248
    104c:	001c3423          	sd	ra,8(s8)
    1050:	002c3823          	sd	sp,16(s8)
    1054:	003c3c23          	sd	gp,24(s8)
    1058:	024c3023          	sd	tp,32(s8)
    105c:	025c3423          	sd	t0,40(s8)
    1060:	026c3823          	sd	t1,48(s8)
    1064:	027c3c23          	sd	t2,56(s8)
    1068:	048c3023          	sd	s0,64(s8)
    106c:	049c3423          	sd	s1,72(s8)
    1070:	04ac3823          	sd	a0,80(s8)
    1074:	04bc3c23          	sd	a1,88(s8)
    1078:	06cc3023          	sd	a2,96(s8)
    107c:	06dc3423          	sd	a3,104(s8)
    1080:	06ec3823          	sd	a4,112(s8)
    1084:	06fc3c23          	sd	a5,120(s8)
    1088:	090c3023          	sd	a6,128(s8)
    108c:	091c3423          	sd	a7,136(s8)
    1090:	092c3823          	sd	s2,144(s8)
    1094:	093c3c23          	sd	s3,152(s8)
    1098:	0b4c3023          	sd	s4,160(s8)
    109c:	0b5c3423          	sd	s5,168(s8)
    10a0:	0b6c3823          	sd	s6,176(s8)
    10a4:	0b7c3c23          	sd	s7,184(s8)
    10a8:	0d8c3023          	sd	s8,192(s8)
    10ac:	0d9c3423          	sd	s9,200(s8)
    10b0:	0dac3823          	sd	s10,208(s8)
    10b4:	0dbc3c23          	sd	s11,216(s8)
    10b8:	0fcc3023          	sd	t3,224(s8)
    10bc:	0fdc3423          	sd	t4,232(s8)
    10c0:	0fec3823          	sd	t5,240(s8)
    10c4:	0ffc3c23          	sd	t6,248(s8)
    10c8:	34102bf3          	csrr	s7,mepc
    10cc:	34202bf3          	csrr	s7,mcause
    10d0:	4f8d                	li	t6,3
    10d2:	01fb9463          	bne	s7,t6,10da <mmode_exception_handler+0x9a>
    10d6:	3a40a06f          	j	b47a <ebreak_handler>
    10da:	4fa1                	li	t6,8
    10dc:	05fb8d63          	beq	s7,t6,1136 <ecall_handler>
    10e0:	4fa5                	li	t6,9
    10e2:	05fb8a63          	beq	s7,t6,1136 <ecall_handler>
    10e6:	4fad                	li	t6,11
    10e8:	05fb8763          	beq	s7,t6,1136 <ecall_handler>
    10ec:	4f85                	li	t6,1
    10ee:	0dfb8e63          	beq	s7,t6,11ca <instr_fault_handler>
    10f2:	4f95                	li	t6,5
    10f4:	2dfb8d63          	beq	s7,t6,13ce <load_fault_handler>
    10f8:	4f9d                	li	t6,7
    10fa:	4dfb8c63          	beq	s7,t6,15d2 <store_fault_handler>
    10fe:	4fb1                	li	t6,12
    1100:	01fb9463          	bne	s7,t6,1108 <mmode_exception_handler+0xc8>
    1104:	4a20a06f          	j	b5a6 <pt_fault_handler>
    1108:	4fb5                	li	t6,13
    110a:	01fb9463          	bne	s7,t6,1112 <mmode_exception_handler+0xd2>
    110e:	4980a06f          	j	b5a6 <pt_fault_handler>
    1112:	4fbd                	li	t6,15
    1114:	01fb9463          	bne	s7,t6,111c <mmode_exception_handler+0xdc>
    1118:	48e0a06f          	j	b5a6 <pt_fault_handler>
    111c:	4f89                	li	t6,2
    111e:	01fb9463          	bne	s7,t6,1126 <mmode_exception_handler+0xe6>
    1122:	3ee0a06f          	j	b510 <illegal_instr_handler>
    1126:	34302ff3          	csrr	t6,mtval
    112a:	00000817          	auipc	a6,0x0
    112e:	6ac80813          	addi	a6,a6,1708 # 17d6 <test_done>
    1132:	000800e7          	jalr	a6

0000000000001136 <ecall_handler>:
    1136:	fffffb97          	auipc	s7,0xfffff
    113a:	ecab8b93          	addi	s7,s7,-310 # 0 <_start>
    113e:	000bb023          	sd	zero,0(s7)
    1142:	001bb423          	sd	ra,8(s7)
    1146:	002bb823          	sd	sp,16(s7)
    114a:	003bbc23          	sd	gp,24(s7)
    114e:	024bb023          	sd	tp,32(s7)
    1152:	025bb423          	sd	t0,40(s7)
    1156:	026bb823          	sd	t1,48(s7)
    115a:	027bbc23          	sd	t2,56(s7)
    115e:	048bb023          	sd	s0,64(s7)
    1162:	049bb423          	sd	s1,72(s7)
    1166:	04abb823          	sd	a0,80(s7)
    116a:	04bbbc23          	sd	a1,88(s7)
    116e:	06cbb023          	sd	a2,96(s7)
    1172:	06dbb423          	sd	a3,104(s7)
    1176:	06ebb823          	sd	a4,112(s7)
    117a:	06fbbc23          	sd	a5,120(s7)
    117e:	090bb023          	sd	a6,128(s7)
    1182:	091bb423          	sd	a7,136(s7)
    1186:	092bb823          	sd	s2,144(s7)
    118a:	093bbc23          	sd	s3,152(s7)
    118e:	0b4bb023          	sd	s4,160(s7)
    1192:	0b5bb423          	sd	s5,168(s7)
    1196:	0b6bb823          	sd	s6,176(s7)
    119a:	0b7bbc23          	sd	s7,184(s7)
    119e:	0d8bb023          	sd	s8,192(s7)
    11a2:	0d9bb423          	sd	s9,200(s7)
    11a6:	0dabb823          	sd	s10,208(s7)
    11aa:	0dbbbc23          	sd	s11,216(s7)
    11ae:	0fcbb023          	sd	t3,224(s7)
    11b2:	0fdbb423          	sd	t4,232(s7)
    11b6:	0febb823          	sd	t5,240(s7)
    11ba:	0ffbbc23          	sd	t6,248(s7)
    11be:	0000a817          	auipc	a6,0xa
    11c2:	29c80813          	addi	a6,a6,668 # b45a <write_tohost>
    11c6:	00080067          	jr	a6

00000000000011ca <instr_fault_handler>:
    11ca:	4b81                	li	s7,0
    11cc:	340b9073          	csrw	mscratch,s7
    11d0:	4281                	li	t0,0
    11d2:	34002bf3          	csrr	s7,mscratch
    11d6:	885e                	mv	a6,s7
    11d8:	4801                	li	a6,0
    11da:	010b8263          	beq	s7,a6,11de <instr_fault_handler+0x14>
    11de:	3b002ff3          	csrr	t6,pmpaddr0
    11e2:	3a0028f3          	csrr	a7,pmpcfg0
    11e6:	a009                	j	11e8 <instr_fault_handler+0x1e>
    11e8:	45a1                	li	a1,8
    11ea:	34002bf3          	csrr	s7,mscratch
    11ee:	1bf6                	slli	s7,s7,0x3d
    11f0:	03dbdb93          	srli	s7,s7,0x3d
    11f4:	41758833          	sub	a6,a1,s7
    11f8:	187d                	addi	a6,a6,-1
    11fa:	080e                	slli	a6,a6,0x3
    11fc:	010895b3          	sll	a1,a7,a6
    1200:	0b8e                	slli	s7,s7,0x3
    1202:	985e                	add	a6,a6,s7
    1204:	0105d5b3          	srl	a1,a1,a6
    1208:	03b59813          	slli	a6,a1,0x3b
    120c:	03e85813          	srli	a6,a6,0x3e
    1210:	04080163          	beqz	a6,1252 <instr_fault_handler+0x88>
    1214:	4b85                	li	s7,1
    1216:	03780f63          	beq	a6,s7,1254 <instr_fault_handler+0x8a>
    121a:	4b89                	li	s7,2
    121c:	07780663          	beq	a6,s7,1288 <instr_fault_handler+0xbe>
    1220:	4b8d                	li	s7,3
    1222:	09780863          	beq	a6,s7,12b2 <instr_fault_handler+0xe8>
    1226:	00000b97          	auipc	s7,0x0
    122a:	5b0b8b93          	addi	s7,s7,1456 # 17d6 <test_done>
    122e:	000b8067          	jr	s7
    1232:	34002bf3          	csrr	s7,mscratch
    1236:	82fe                	mv	t0,t6
    1238:	0b85                	addi	s7,s7,1
    123a:	340b9073          	csrw	mscratch,s7
    123e:	4f85                	li	t6,1
    1240:	01fbd363          	bge	s7,t6,1246 <instr_fault_handler+0x7c>
    1244:	b779                	j	11d2 <instr_fault_handler+0x8>
    1246:	00000b97          	auipc	s7,0x0
    124a:	590b8b93          	addi	s7,s7,1424 # 17d6 <test_done>
    124e:	000b8067          	jr	s7
    1252:	b7c5                	j	1232 <instr_fault_handler+0x68>
    1254:	34002bf3          	csrr	s7,mscratch
    1258:	34302873          	csrr	a6,mtval
    125c:	00285813          	srli	a6,a6,0x2
    1260:	000b9563          	bnez	s7,126a <instr_fault_handler+0xa0>
    1264:	fc0847e3          	bltz	a6,1232 <instr_fault_handler+0x68>
    1268:	a019                	j	126e <instr_fault_handler+0xa4>
    126a:	fc5864e3          	bltu	a6,t0,1232 <instr_fault_handler+0x68>
    126e:	fdf872e3          	bgeu	a6,t6,1232 <instr_fault_handler+0x68>
    1272:	0805f813          	andi	a6,a1,128
    1276:	00080863          	beqz	a6,1286 <instr_fault_handler+0xbc>
    127a:	00000b97          	auipc	s7,0x0
    127e:	55cb8b93          	addi	s7,s7,1372 # 17d6 <test_done>
    1282:	000b8067          	jr	s7
    1286:	a09d                	j	12ec <instr_fault_handler+0x122>
    1288:	34302bf3          	csrr	s7,mtval
    128c:	002bdb93          	srli	s7,s7,0x2
    1290:	002f9813          	slli	a6,t6,0x2
    1294:	00285813          	srli	a6,a6,0x2
    1298:	f90b9de3          	bne	s7,a6,1232 <instr_fault_handler+0x68>
    129c:	0805f813          	andi	a6,a1,128
    12a0:	00080863          	beqz	a6,12b0 <instr_fault_handler+0xe6>
    12a4:	00000b97          	auipc	s7,0x0
    12a8:	532b8b93          	addi	s7,s7,1330 # 17d6 <test_done>
    12ac:	000b8067          	jr	s7
    12b0:	a835                	j	12ec <instr_fault_handler+0x122>
    12b2:	34302bf3          	csrr	s7,mtval
    12b6:	002bdb93          	srli	s7,s7,0x2
    12ba:	000bdb93          	srli	s7,s7,0x0
    12be:	000b9b93          	slli	s7,s7,0x0
    12c2:	002f9813          	slli	a6,t6,0x2
    12c6:	00285813          	srli	a6,a6,0x2
    12ca:	00085813          	srli	a6,a6,0x0
    12ce:	00081813          	slli	a6,a6,0x0
    12d2:	f70b90e3          	bne	s7,a6,1232 <instr_fault_handler+0x68>
    12d6:	0805f813          	andi	a6,a1,128
    12da:	00080963          	beqz	a6,12ec <instr_fault_handler+0x122>
    12de:	00000b97          	auipc	s7,0x0
    12e2:	4f8b8b93          	addi	s7,s7,1272 # 17d6 <test_done>
    12e6:	000b8067          	jr	s7
    12ea:	a009                	j	12ec <instr_fault_handler+0x122>
    12ec:	0045e593          	ori	a1,a1,4
    12f0:	34002bf3          	csrr	s7,mscratch
    12f4:	03d00813          	li	a6,61
    12f8:	010b9bb3          	sll	s7,s7,a6
    12fc:	010bdbb3          	srl	s7,s7,a6
    1300:	003b9813          	slli	a6,s7,0x3
    1304:	010595b3          	sll	a1,a1,a6
    1308:	00b8e8b3          	or	a7,a7,a1
    130c:	34002bf3          	csrr	s7,mscratch
    1310:	003bdb93          	srli	s7,s7,0x3
    1314:	000b8b63          	beqz	s7,132a <instr_fault_handler+0x160>
    1318:	4805                	li	a6,1
    131a:	010b8b63          	beq	s7,a6,1330 <instr_fault_handler+0x166>
    131e:	4809                	li	a6,2
    1320:	010b8b63          	beq	s7,a6,1336 <instr_fault_handler+0x16c>
    1324:	480d                	li	a6,3
    1326:	010b8b63          	beq	s7,a6,133c <instr_fault_handler+0x172>
    132a:	3a089073          	csrw	pmpcfg0,a7
    132e:	a809                	j	1340 <instr_fault_handler+0x176>
    1330:	3a189073          	csrw	pmpcfg1,a7
    1334:	a031                	j	1340 <instr_fault_handler+0x176>
    1336:	3a289073          	csrw	pmpcfg2,a7
    133a:	a019                	j	1340 <instr_fault_handler+0x176>
    133c:	3a389073          	csrw	pmpcfg3,a7
    1340:	0001                	nop
    1342:	008c3083          	ld	ra,8(s8)
    1346:	010c3103          	ld	sp,16(s8)
    134a:	018c3183          	ld	gp,24(s8)
    134e:	020c3203          	ld	tp,32(s8)
    1352:	028c3283          	ld	t0,40(s8)
    1356:	030c3303          	ld	t1,48(s8)
    135a:	038c3383          	ld	t2,56(s8)
    135e:	040c3403          	ld	s0,64(s8)
    1362:	048c3483          	ld	s1,72(s8)
    1366:	050c3503          	ld	a0,80(s8)
    136a:	058c3583          	ld	a1,88(s8)
    136e:	060c3603          	ld	a2,96(s8)
    1372:	068c3683          	ld	a3,104(s8)
    1376:	070c3703          	ld	a4,112(s8)
    137a:	078c3783          	ld	a5,120(s8)
    137e:	080c3803          	ld	a6,128(s8)
    1382:	088c3883          	ld	a7,136(s8)
    1386:	090c3903          	ld	s2,144(s8)
    138a:	098c3983          	ld	s3,152(s8)
    138e:	0a0c3a03          	ld	s4,160(s8)
    1392:	0a8c3a83          	ld	s5,168(s8)
    1396:	0b0c3b03          	ld	s6,176(s8)
    139a:	0b8c3b83          	ld	s7,184(s8)
    139e:	0c0c3c03          	ld	s8,192(s8)
    13a2:	0c8c3c83          	ld	s9,200(s8)
    13a6:	0d0c3d03          	ld	s10,208(s8)
    13aa:	0d8c3d83          	ld	s11,216(s8)
    13ae:	0e0c3e03          	ld	t3,224(s8)
    13b2:	0e8c3e83          	ld	t4,232(s8)
    13b6:	0f0c3f03          	ld	t5,240(s8)
    13ba:	0f8c3f83          	ld	t6,248(s8)
    13be:	0f8c0c13          	addi	s8,s8,248
    13c2:	000c0e33          	add	t3,s8,zero
    13c6:	340c1c73          	csrrw	s8,mscratch,s8
    13ca:	30200073          	mret

00000000000013ce <load_fault_handler>:
    13ce:	4b81                	li	s7,0
    13d0:	340b9073          	csrw	mscratch,s7
    13d4:	4281                	li	t0,0
    13d6:	34002bf3          	csrr	s7,mscratch
    13da:	885e                	mv	a6,s7
    13dc:	4801                	li	a6,0
    13de:	010b8263          	beq	s7,a6,13e2 <load_fault_handler+0x14>
    13e2:	3b002ff3          	csrr	t6,pmpaddr0
    13e6:	3a0028f3          	csrr	a7,pmpcfg0
    13ea:	a009                	j	13ec <load_fault_handler+0x1e>
    13ec:	45a1                	li	a1,8
    13ee:	34002bf3          	csrr	s7,mscratch
    13f2:	1bf6                	slli	s7,s7,0x3d
    13f4:	03dbdb93          	srli	s7,s7,0x3d
    13f8:	41758833          	sub	a6,a1,s7
    13fc:	187d                	addi	a6,a6,-1
    13fe:	080e                	slli	a6,a6,0x3
    1400:	010895b3          	sll	a1,a7,a6
    1404:	0b8e                	slli	s7,s7,0x3
    1406:	985e                	add	a6,a6,s7
    1408:	0105d5b3          	srl	a1,a1,a6
    140c:	03b59813          	slli	a6,a1,0x3b
    1410:	03e85813          	srli	a6,a6,0x3e
    1414:	04080163          	beqz	a6,1456 <load_fault_handler+0x88>
    1418:	4b85                	li	s7,1
    141a:	03780f63          	beq	a6,s7,1458 <load_fault_handler+0x8a>
    141e:	4b89                	li	s7,2
    1420:	07780663          	beq	a6,s7,148c <load_fault_handler+0xbe>
    1424:	4b8d                	li	s7,3
    1426:	09780863          	beq	a6,s7,14b6 <load_fault_handler+0xe8>
    142a:	00000b97          	auipc	s7,0x0
    142e:	3acb8b93          	addi	s7,s7,940 # 17d6 <test_done>
    1432:	000b8067          	jr	s7
    1436:	34002bf3          	csrr	s7,mscratch
    143a:	82fe                	mv	t0,t6
    143c:	0b85                	addi	s7,s7,1
    143e:	340b9073          	csrw	mscratch,s7
    1442:	4f85                	li	t6,1
    1444:	01fbd363          	bge	s7,t6,144a <load_fault_handler+0x7c>
    1448:	b779                	j	13d6 <load_fault_handler+0x8>
    144a:	00000b97          	auipc	s7,0x0
    144e:	38cb8b93          	addi	s7,s7,908 # 17d6 <test_done>
    1452:	000b8067          	jr	s7
    1456:	b7c5                	j	1436 <load_fault_handler+0x68>
    1458:	34002bf3          	csrr	s7,mscratch
    145c:	34302873          	csrr	a6,mtval
    1460:	00285813          	srli	a6,a6,0x2
    1464:	000b9563          	bnez	s7,146e <load_fault_handler+0xa0>
    1468:	fc0847e3          	bltz	a6,1436 <load_fault_handler+0x68>
    146c:	a019                	j	1472 <load_fault_handler+0xa4>
    146e:	fc5864e3          	bltu	a6,t0,1436 <load_fault_handler+0x68>
    1472:	fdf872e3          	bgeu	a6,t6,1436 <load_fault_handler+0x68>
    1476:	0805f813          	andi	a6,a1,128
    147a:	00080863          	beqz	a6,148a <load_fault_handler+0xbc>
    147e:	00000b97          	auipc	s7,0x0
    1482:	358b8b93          	addi	s7,s7,856 # 17d6 <test_done>
    1486:	000b8067          	jr	s7
    148a:	a09d                	j	14f0 <load_fault_handler+0x122>
    148c:	34302bf3          	csrr	s7,mtval
    1490:	002bdb93          	srli	s7,s7,0x2
    1494:	002f9813          	slli	a6,t6,0x2
    1498:	00285813          	srli	a6,a6,0x2
    149c:	f90b9de3          	bne	s7,a6,1436 <load_fault_handler+0x68>
    14a0:	0805f813          	andi	a6,a1,128
    14a4:	00080863          	beqz	a6,14b4 <load_fault_handler+0xe6>
    14a8:	00000b97          	auipc	s7,0x0
    14ac:	32eb8b93          	addi	s7,s7,814 # 17d6 <test_done>
    14b0:	000b8067          	jr	s7
    14b4:	a835                	j	14f0 <load_fault_handler+0x122>
    14b6:	34302bf3          	csrr	s7,mtval
    14ba:	002bdb93          	srli	s7,s7,0x2
    14be:	000bdb93          	srli	s7,s7,0x0
    14c2:	000b9b93          	slli	s7,s7,0x0
    14c6:	002f9813          	slli	a6,t6,0x2
    14ca:	00285813          	srli	a6,a6,0x2
    14ce:	00085813          	srli	a6,a6,0x0
    14d2:	00081813          	slli	a6,a6,0x0
    14d6:	f70b90e3          	bne	s7,a6,1436 <load_fault_handler+0x68>
    14da:	0805f813          	andi	a6,a1,128
    14de:	00080963          	beqz	a6,14f0 <load_fault_handler+0x122>
    14e2:	00000b97          	auipc	s7,0x0
    14e6:	2f4b8b93          	addi	s7,s7,756 # 17d6 <test_done>
    14ea:	000b8067          	jr	s7
    14ee:	a009                	j	14f0 <load_fault_handler+0x122>
    14f0:	0015e593          	ori	a1,a1,1
    14f4:	34002bf3          	csrr	s7,mscratch
    14f8:	03d00813          	li	a6,61
    14fc:	010b9bb3          	sll	s7,s7,a6
    1500:	010bdbb3          	srl	s7,s7,a6
    1504:	003b9813          	slli	a6,s7,0x3
    1508:	010595b3          	sll	a1,a1,a6
    150c:	00b8e8b3          	or	a7,a7,a1
    1510:	34002bf3          	csrr	s7,mscratch
    1514:	003bdb93          	srli	s7,s7,0x3
    1518:	000b8b63          	beqz	s7,152e <load_fault_handler+0x160>
    151c:	4805                	li	a6,1
    151e:	010b8b63          	beq	s7,a6,1534 <load_fault_handler+0x166>
    1522:	4809                	li	a6,2
    1524:	010b8b63          	beq	s7,a6,153a <load_fault_handler+0x16c>
    1528:	480d                	li	a6,3
    152a:	010b8b63          	beq	s7,a6,1540 <load_fault_handler+0x172>
    152e:	3a089073          	csrw	pmpcfg0,a7
    1532:	a809                	j	1544 <load_fault_handler+0x176>
    1534:	3a189073          	csrw	pmpcfg1,a7
    1538:	a031                	j	1544 <load_fault_handler+0x176>
    153a:	3a289073          	csrw	pmpcfg2,a7
    153e:	a019                	j	1544 <load_fault_handler+0x176>
    1540:	3a389073          	csrw	pmpcfg3,a7
    1544:	0001                	nop
    1546:	008c3083          	ld	ra,8(s8)
    154a:	010c3103          	ld	sp,16(s8)
    154e:	018c3183          	ld	gp,24(s8)
    1552:	020c3203          	ld	tp,32(s8)
    1556:	028c3283          	ld	t0,40(s8)
    155a:	030c3303          	ld	t1,48(s8)
    155e:	038c3383          	ld	t2,56(s8)
    1562:	040c3403          	ld	s0,64(s8)
    1566:	048c3483          	ld	s1,72(s8)
    156a:	050c3503          	ld	a0,80(s8)
    156e:	058c3583          	ld	a1,88(s8)
    1572:	060c3603          	ld	a2,96(s8)
    1576:	068c3683          	ld	a3,104(s8)
    157a:	070c3703          	ld	a4,112(s8)
    157e:	078c3783          	ld	a5,120(s8)
    1582:	080c3803          	ld	a6,128(s8)
    1586:	088c3883          	ld	a7,136(s8)
    158a:	090c3903          	ld	s2,144(s8)
    158e:	098c3983          	ld	s3,152(s8)
    1592:	0a0c3a03          	ld	s4,160(s8)
    1596:	0a8c3a83          	ld	s5,168(s8)
    159a:	0b0c3b03          	ld	s6,176(s8)
    159e:	0b8c3b83          	ld	s7,184(s8)
    15a2:	0c0c3c03          	ld	s8,192(s8)
    15a6:	0c8c3c83          	ld	s9,200(s8)
    15aa:	0d0c3d03          	ld	s10,208(s8)
    15ae:	0d8c3d83          	ld	s11,216(s8)
    15b2:	0e0c3e03          	ld	t3,224(s8)
    15b6:	0e8c3e83          	ld	t4,232(s8)
    15ba:	0f0c3f03          	ld	t5,240(s8)
    15be:	0f8c3f83          	ld	t6,248(s8)
    15c2:	0f8c0c13          	addi	s8,s8,248
    15c6:	000c0e33          	add	t3,s8,zero
    15ca:	340c1c73          	csrrw	s8,mscratch,s8
    15ce:	30200073          	mret

00000000000015d2 <store_fault_handler>:
    15d2:	4b81                	li	s7,0
    15d4:	340b9073          	csrw	mscratch,s7
    15d8:	4281                	li	t0,0
    15da:	34002bf3          	csrr	s7,mscratch
    15de:	885e                	mv	a6,s7
    15e0:	4801                	li	a6,0
    15e2:	010b8263          	beq	s7,a6,15e6 <store_fault_handler+0x14>
    15e6:	3b002ff3          	csrr	t6,pmpaddr0
    15ea:	3a0028f3          	csrr	a7,pmpcfg0
    15ee:	a009                	j	15f0 <store_fault_handler+0x1e>
    15f0:	45a1                	li	a1,8
    15f2:	34002bf3          	csrr	s7,mscratch
    15f6:	1bf6                	slli	s7,s7,0x3d
    15f8:	03dbdb93          	srli	s7,s7,0x3d
    15fc:	41758833          	sub	a6,a1,s7
    1600:	187d                	addi	a6,a6,-1
    1602:	080e                	slli	a6,a6,0x3
    1604:	010895b3          	sll	a1,a7,a6
    1608:	0b8e                	slli	s7,s7,0x3
    160a:	985e                	add	a6,a6,s7
    160c:	0105d5b3          	srl	a1,a1,a6
    1610:	03b59813          	slli	a6,a1,0x3b
    1614:	03e85813          	srli	a6,a6,0x3e
    1618:	04080163          	beqz	a6,165a <store_fault_handler+0x88>
    161c:	4b85                	li	s7,1
    161e:	03780f63          	beq	a6,s7,165c <store_fault_handler+0x8a>
    1622:	4b89                	li	s7,2
    1624:	07780663          	beq	a6,s7,1690 <store_fault_handler+0xbe>
    1628:	4b8d                	li	s7,3
    162a:	09780863          	beq	a6,s7,16ba <store_fault_handler+0xe8>
    162e:	00000b97          	auipc	s7,0x0
    1632:	1a8b8b93          	addi	s7,s7,424 # 17d6 <test_done>
    1636:	000b8067          	jr	s7
    163a:	34002bf3          	csrr	s7,mscratch
    163e:	82fe                	mv	t0,t6
    1640:	0b85                	addi	s7,s7,1
    1642:	340b9073          	csrw	mscratch,s7
    1646:	4f85                	li	t6,1
    1648:	01fbd363          	bge	s7,t6,164e <store_fault_handler+0x7c>
    164c:	b779                	j	15da <store_fault_handler+0x8>
    164e:	00000b97          	auipc	s7,0x0
    1652:	188b8b93          	addi	s7,s7,392 # 17d6 <test_done>
    1656:	000b8067          	jr	s7
    165a:	b7c5                	j	163a <store_fault_handler+0x68>
    165c:	34002bf3          	csrr	s7,mscratch
    1660:	34302873          	csrr	a6,mtval
    1664:	00285813          	srli	a6,a6,0x2
    1668:	000b9563          	bnez	s7,1672 <store_fault_handler+0xa0>
    166c:	fc0847e3          	bltz	a6,163a <store_fault_handler+0x68>
    1670:	a019                	j	1676 <store_fault_handler+0xa4>
    1672:	fc5864e3          	bltu	a6,t0,163a <store_fault_handler+0x68>
    1676:	fdf872e3          	bgeu	a6,t6,163a <store_fault_handler+0x68>
    167a:	0805f813          	andi	a6,a1,128
    167e:	00080863          	beqz	a6,168e <store_fault_handler+0xbc>
    1682:	00000b97          	auipc	s7,0x0
    1686:	154b8b93          	addi	s7,s7,340 # 17d6 <test_done>
    168a:	000b8067          	jr	s7
    168e:	a09d                	j	16f4 <store_fault_handler+0x122>
    1690:	34302bf3          	csrr	s7,mtval
    1694:	002bdb93          	srli	s7,s7,0x2
    1698:	002f9813          	slli	a6,t6,0x2
    169c:	00285813          	srli	a6,a6,0x2
    16a0:	f90b9de3          	bne	s7,a6,163a <store_fault_handler+0x68>
    16a4:	0805f813          	andi	a6,a1,128
    16a8:	00080863          	beqz	a6,16b8 <store_fault_handler+0xe6>
    16ac:	00000b97          	auipc	s7,0x0
    16b0:	12ab8b93          	addi	s7,s7,298 # 17d6 <test_done>
    16b4:	000b8067          	jr	s7
    16b8:	a835                	j	16f4 <store_fault_handler+0x122>
    16ba:	34302bf3          	csrr	s7,mtval
    16be:	002bdb93          	srli	s7,s7,0x2
    16c2:	000bdb93          	srli	s7,s7,0x0
    16c6:	000b9b93          	slli	s7,s7,0x0
    16ca:	002f9813          	slli	a6,t6,0x2
    16ce:	00285813          	srli	a6,a6,0x2
    16d2:	00085813          	srli	a6,a6,0x0
    16d6:	00081813          	slli	a6,a6,0x0
    16da:	f70b90e3          	bne	s7,a6,163a <store_fault_handler+0x68>
    16de:	0805f813          	andi	a6,a1,128
    16e2:	00080963          	beqz	a6,16f4 <store_fault_handler+0x122>
    16e6:	00000b97          	auipc	s7,0x0
    16ea:	0f0b8b93          	addi	s7,s7,240 # 17d6 <test_done>
    16ee:	000b8067          	jr	s7
    16f2:	a009                	j	16f4 <store_fault_handler+0x122>
    16f4:	0035e593          	ori	a1,a1,3
    16f8:	34002bf3          	csrr	s7,mscratch
    16fc:	03d00813          	li	a6,61
    1700:	010b9bb3          	sll	s7,s7,a6
    1704:	010bdbb3          	srl	s7,s7,a6
    1708:	003b9813          	slli	a6,s7,0x3
    170c:	010595b3          	sll	a1,a1,a6
    1710:	00b8e8b3          	or	a7,a7,a1
    1714:	34002bf3          	csrr	s7,mscratch
    1718:	003bdb93          	srli	s7,s7,0x3
    171c:	000b8b63          	beqz	s7,1732 <store_fault_handler+0x160>
    1720:	4805                	li	a6,1
    1722:	010b8b63          	beq	s7,a6,1738 <store_fault_handler+0x166>
    1726:	4809                	li	a6,2
    1728:	010b8b63          	beq	s7,a6,173e <store_fault_handler+0x16c>
    172c:	480d                	li	a6,3
    172e:	010b8b63          	beq	s7,a6,1744 <store_fault_handler+0x172>
    1732:	3a089073          	csrw	pmpcfg0,a7
    1736:	a809                	j	1748 <store_fault_handler+0x176>
    1738:	3a189073          	csrw	pmpcfg1,a7
    173c:	a031                	j	1748 <store_fault_handler+0x176>
    173e:	3a289073          	csrw	pmpcfg2,a7
    1742:	a019                	j	1748 <store_fault_handler+0x176>
    1744:	3a389073          	csrw	pmpcfg3,a7
    1748:	0001                	nop
    174a:	008c3083          	ld	ra,8(s8)
    174e:	010c3103          	ld	sp,16(s8)
    1752:	018c3183          	ld	gp,24(s8)
    1756:	020c3203          	ld	tp,32(s8)
    175a:	028c3283          	ld	t0,40(s8)
    175e:	030c3303          	ld	t1,48(s8)
    1762:	038c3383          	ld	t2,56(s8)
    1766:	040c3403          	ld	s0,64(s8)
    176a:	048c3483          	ld	s1,72(s8)
    176e:	050c3503          	ld	a0,80(s8)
    1772:	058c3583          	ld	a1,88(s8)
    1776:	060c3603          	ld	a2,96(s8)
    177a:	068c3683          	ld	a3,104(s8)
    177e:	070c3703          	ld	a4,112(s8)
    1782:	078c3783          	ld	a5,120(s8)
    1786:	080c3803          	ld	a6,128(s8)
    178a:	088c3883          	ld	a7,136(s8)
    178e:	090c3903          	ld	s2,144(s8)
    1792:	098c3983          	ld	s3,152(s8)
    1796:	0a0c3a03          	ld	s4,160(s8)
    179a:	0a8c3a83          	ld	s5,168(s8)
    179e:	0b0c3b03          	ld	s6,176(s8)
    17a2:	0b8c3b83          	ld	s7,184(s8)
    17a6:	0c0c3c03          	ld	s8,192(s8)
    17aa:	0c8c3c83          	ld	s9,200(s8)
    17ae:	0d0c3d03          	ld	s10,208(s8)
    17b2:	0d8c3d83          	ld	s11,216(s8)
    17b6:	0e0c3e03          	ld	t3,224(s8)
    17ba:	0e8c3e83          	ld	t4,232(s8)
    17be:	0f0c3f03          	ld	t5,240(s8)
    17c2:	0f8c3f83          	ld	t6,248(s8)
    17c6:	0f8c0c13          	addi	s8,s8,248
    17ca:	000c0e33          	add	t3,s8,zero
    17ce:	340c1c73          	csrrw	s8,mscratch,s8
    17d2:	30200073          	mret

00000000000017d6 <test_done>:
    17d6:	4185                	li	gp,1
    17d8:	00000073          	ecall

00000000000017dc <main>:
    17dc:	4601                	li	a2,0
    17de:	fff00c9b          	addiw	s9,zero,-1
    17e2:	1cfe                	slli	s9,s9,0x3f
    17e4:	fffcb9b7          	lui	s3,0xfffcb
    17e8:	0ed9899b          	addiw	s3,s3,237
    17ec:	09be                	slli	s3,s3,0xf
    17ee:	f2598993          	addi	s3,s3,-219 # fffffffffffcaf25 <_end+0xfffffffffffab225>
    17f2:	09c2                	slli	s3,s3,0x10
    17f4:	b9998993          	addi	s3,s3,-1127
    17f8:	09b2                	slli	s3,s3,0xc
    17fa:	7d898993          	addi	s3,s3,2008
    17fe:	fff0029b          	addiw	t0,zero,-1
    1802:	12fe                	slli	t0,t0,0x3f
    1804:	54fd                	li	s1,-1
    1806:	fff0039b          	addiw	t2,zero,-1
    180a:	13fe                	slli	t2,t2,0x3f
    180c:	062536b7          	lui	a3,0x6253
    1810:	2256869b          	addiw	a3,a3,549
    1814:	06b2                	slli	a3,a3,0xc
    1816:	14968693          	addi	a3,a3,329 # 6253149 <_end+0x6233449>
    181a:	06b2                	slli	a3,a3,0xc
    181c:	f7f68693          	addi	a3,a3,-129
    1820:	06b2                	slli	a3,a3,0xc
    1822:	e3c68693          	addi	a3,a3,-452
    1826:	fff00d1b          	addiw	s10,zero,-1
    182a:	1d7e                	slli	s10,s10,0x3f
    182c:	4701                	li	a4,0
    182e:	57fd                	li	a5,-1
    1830:	00fd09bb          	addw	s3,s10,a5
    1834:	0296b9b3          	mulhu	s3,a3,s1
    1838:	00fd09bb          	addw	s3,s10,a5
    183c:	0299e733          	rem	a4,s3,s1
    1840:	e0ac869b          	addiw	a3,s9,-502
    1844:	e9c89717          	auipc	a4,0xe9c89
    1848:	0001                	nop
    184a:	41928d33          	sub	s10,t0,s9
    184e:	0254a633          	mulhsu	a2,s1,t0
    1852:	e9c89717          	auipc	a4,0xe9c89
    1856:	13a60d13          	addi	s10,a2,314
    185a:	5d328d37          	lui	s10,0x5d328
    185e:	e0ac869b          	addiw	a3,s9,-502
    1862:	02d2f9b3          	remu	s3,t0,a3
    1866:	02c9e7bb          	remw	a5,s3,a2
    186a:	0001                	nop
    186c:	e0ac869b          	addiw	a3,s9,-502
    1870:	413602bb          	subw	t0,a2,s3
    1874:	02d28cb3          	mul	s9,t0,a3
    1878:	413602bb          	subw	t0,a2,s3
    187c:	413602bb          	subw	t0,a2,s3
    1880:	13a60d13          	addi	s10,a2,314
    1884:	033674bb          	remuw	s1,a2,s3
    1888:	13a60d13          	addi	s10,a2,314
    188c:	fff0089b          	addiw	a7,zero,-1
    1890:	18fe                	slli	a7,a7,0x3f
    1892:	fff00d1b          	addiw	s10,zero,-1
    1896:	1d7e                	slli	s10,s10,0x3f
    1898:	5f7d                	li	t5,-1
    189a:	4081                	li	ra,0
    189c:	fff0061b          	addiw	a2,zero,-1
    18a0:	167e                	slli	a2,a2,0x3f
    18a2:	fff00c9b          	addiw	s9,zero,-1
    18a6:	1cfe                	slli	s9,s9,0x3f
    18a8:	fff0029b          	addiw	t0,zero,-1
    18ac:	12fe                	slli	t0,t0,0x3f
    18ae:	05951337          	lui	t1,0x5951
    18b2:	dc53031b          	addiw	t1,t1,-571
    18b6:	0332                	slli	t1,t1,0xc
    18b8:	7dd30313          	addi	t1,t1,2013 # 59517dd <_end+0x5931add>
    18bc:	0332                	slli	t1,t1,0xc
    18be:	0b930313          	addi	t1,t1,185
    18c2:	0332                	slli	t1,t1,0xc
    18c4:	f0630313          	addi	t1,t1,-250
    18c8:	4781                	li	a5,0
    18ca:	fff0091b          	addiw	s2,zero,-1
    18ce:	197e                	slli	s2,s2,0x3f
    18d0:	e0ad029b          	addiw	t0,s10,-502
    18d4:	03a372b3          	remu	t0,t1,s10
    18d8:	40cd0cbb          	subw	s9,s10,a2
    18dc:	03e28cb3          	mul	s9,t0,t5
    18e0:	e9c89317          	auipc	t1,0xe9c89
    18e4:	e0ad029b          	addiw	t0,s10,-502
    18e8:	13a60913          	addi	s2,a2,314
    18ec:	03295cbb          	divuw	s9,s2,s2
    18f0:	0001                	nop
    18f2:	02c8ef33          	rem	t5,a7,a2
    18f6:	e9c89317          	auipc	t1,0xe9c89
    18fa:	03294d33          	div	s10,s2,s2
    18fe:	13a60913          	addi	s2,a2,314
    1902:	e0ad029b          	addiw	t0,s10,-502
    1906:	03ef42bb          	divw	t0,t5,t5
    190a:	03a372b3          	remu	t0,t1,s10
    190e:	0001                	nop
    1910:	03ecd7b3          	divu	a5,s9,t5
    1914:	40cd0cbb          	subw	s9,s10,a2
    1918:	e0ad029b          	addiw	t0,s10,-502
    191c:	0001                	nop
    191e:	0217833b          	mulw	t1,a5,ra
    1922:	996a                	add	s2,s2,s10
    1924:	40cd0cbb          	subw	s9,s10,a2
    1928:	02c8ef33          	rem	t5,a7,a2
    192c:	e0ad029b          	addiw	t0,s10,-502
    1930:	03a372b3          	remu	t0,t1,s10
    1934:	40cd0cbb          	subw	s9,s10,a2
    1938:	03ecd7b3          	divu	a5,s9,t5
    193c:	0396793b          	remuw	s2,a2,s9
    1940:	02a389b7          	lui	s3,0x2a38
    1944:	ce99899b          	addiw	s3,s3,-791
    1948:	09b6                	slli	s3,s3,0xd
    194a:	54598993          	addi	s3,s3,1349 # 2a38545 <_end+0x2a18845>
    194e:	09b2                	slli	s3,s3,0xc
    1950:	97f98993          	addi	s3,s3,-1665
    1954:	09b2                	slli	s3,s3,0xc
    1956:	d7998993          	addi	s3,s3,-647
    195a:	53fd                	li	t2,-1
    195c:	557d                	li	a0,-1
    195e:	0091b8b7          	lui	a7,0x91b
    1962:	29f8889b          	addiw	a7,a7,671
    1966:	08b6                	slli	a7,a7,0xd
    1968:	ebd88893          	addi	a7,a7,-323 # 91aebd <_end+0x8fb1bd>
    196c:	08b6                	slli	a7,a7,0xd
    196e:	45b88893          	addi	a7,a7,1115
    1972:	08b6                	slli	a7,a7,0xd
    1974:	62788893          	addi	a7,a7,1575
    1978:	ff7d21b7          	lui	gp,0xff7d2
    197c:	ad71819b          	addiw	gp,gp,-1321
    1980:	01b2                	slli	gp,gp,0xc
    1982:	5d118193          	addi	gp,gp,1489 # ffffffffff7d25d1 <_end+0xffffffffff7b28d1>
    1986:	01b6                	slli	gp,gp,0xd
    1988:	f8118193          	addi	gp,gp,-127
    198c:	01ba                	slli	gp,gp,0xe
    198e:	98418193          	addi	gp,gp,-1660
    1992:	577d                	li	a4,-1
    1994:	fff0079b          	addiw	a5,zero,-1
    1998:	17fe                	slli	a5,a5,0x3f
    199a:	fff0069b          	addiw	a3,zero,-1
    199e:	16fe                	slli	a3,a3,0x3f
    19a0:	4c81                	li	s9,0
    19a2:	4b81                	li	s7,0
    19a4:	02e1ebbb          	remw	s7,gp,a4
    19a8:	0311a533          	mulhsu	a0,gp,a7
    19ac:	02dcf8bb          	remuw	a7,s9,a3
    19b0:	023781bb          	mulw	gp,a5,gp
    19b4:	0001                	nop
    19b6:	02a1b9b3          	mulhu	s3,gp,a0
    19ba:	0001                	nop
    19bc:	02f1a3b3          	mulhsu	t2,gp,a5
    19c0:	02e7f1bb          	remuw	gp,a5,a4
    19c4:	02a1b9b3          	mulhu	s3,gp,a0
    19c8:	e9c89397          	auipc	t2,0xe9c89
    19cc:	0398e73b          	remw	a4,a7,s9
    19d0:	5d328737          	lui	a4,0x5d328
    19d4:	027711b3          	mulh	gp,a4,t2
    19d8:	007509b3          	add	s3,a0,t2
    19dc:	031cecb3          	rem	s9,s9,a7
    19e0:	02f1a3b3          	mulhsu	t2,gp,a5
    19e4:	0001                	nop
    19e6:	4981                	li	s3,0
    19e8:	5d7d                	li	s10,-1
    19ea:	fff0091b          	addiw	s2,zero,-1
    19ee:	197e                	slli	s2,s2,0x3f
    19f0:	fff0089b          	addiw	a7,zero,-1
    19f4:	18fe                	slli	a7,a7,0x3f
    19f6:	4381                	li	t2,0
    19f8:	fff00b1b          	addiw	s6,zero,-1
    19fc:	1b7e                	slli	s6,s6,0x3f
    19fe:	ff7fd537          	lui	a0,0xff7fd
    1a02:	19b5051b          	addiw	a0,a0,411
    1a06:	0532                	slli	a0,a0,0xc
    1a08:	30750513          	addi	a0,a0,775 # ffffffffff7fd307 <_end+0xffffffffff7dd607>
    1a0c:	0532                	slli	a0,a0,0xc
    1a0e:	f1750513          	addi	a0,a0,-233
    1a12:	053e                	slli	a0,a0,0xf
    1a14:	edd50513          	addi	a0,a0,-291
    1a18:	fff00c9b          	addiw	s9,zero,-1
    1a1c:	1cfe                	slli	s9,s9,0x3f
    1a1e:	fff0079b          	addiw	a5,zero,-1
    1a22:	17fe                	slli	a5,a5,0x3f
    1a24:	676df2b7          	lui	t0,0x676df
    1a28:	cfb2829b          	addiw	t0,t0,-773
    1a2c:	02b2                	slli	t0,t0,0xc
    1a2e:	31b28293          	addi	t0,t0,795 # 676df31b <_end+0x676bf61b>
    1a32:	02be                	slli	t0,t0,0xf
    1a34:	0e828293          	addi	t0,t0,232
    1a38:	0312b933          	mulhu	s2,t0,a7
    1a3c:	025d753b          	remuw	a0,s10,t0
    1a40:	41350933          	sub	s2,a0,s3
    1a44:	025d753b          	remuw	a0,s10,t0
    1a48:	007b0d33          	add	s10,s6,t2
    1a4c:	41a907bb          	subw	a5,s2,s10
    1a50:	5d328b37          	lui	s6,0x5d328
    1a54:	13a50913          	addi	s2,a0,314
    1a58:	032b67bb          	remw	a5,s6,s2
    1a5c:	007b0d33          	add	s10,s6,t2
    1a60:	0329eb33          	rem	s6,s3,s2
    1a64:	13a50913          	addi	s2,a0,314
    1a68:	02528d33          	mul	s10,t0,t0
    1a6c:	13a50913          	addi	s2,a0,314
    1a70:	039579b3          	remu	s3,a0,s9
    1a74:	03194b33          	div	s6,s2,a7
    1a78:	41350933          	sub	s2,a0,s3
    1a7c:	e9c89517          	auipc	a0,0xe9c89
    1a80:	5d328b37          	lui	s6,0x5d328
    1a84:	007b0d33          	add	s10,s6,t2
    1a88:	03194b33          	div	s6,s2,a7
    1a8c:	5d328b37          	lui	s6,0x5d328
    1a90:	4981                	li	s3,0
    1a92:	5d7d                	li	s10,-1
    1a94:	5b7d                	li	s6,-1
    1a96:	4881                	li	a7,0
    1a98:	53fd                	li	t2,-1
    1a9a:	4c81                	li	s9,0
    1a9c:	fe7f01b7          	lui	gp,0xfe7f0
    1aa0:	b4d1819b          	addiw	gp,gp,-1203
    1aa4:	01b6                	slli	gp,gp,0xd
    1aa6:	3a718193          	addi	gp,gp,935 # fffffffffe7f03a7 <_end+0xfffffffffe7d06a7>
    1aaa:	01b2                	slli	gp,gp,0xc
    1aac:	2c118193          	addi	gp,gp,705
    1ab0:	01b2                	slli	gp,gp,0xc
    1ab2:	e3c18193          	addi	gp,gp,-452
    1ab6:	5ffd                	li	t6,-1
    1ab8:	02fee7b7          	lui	a5,0x2fee
    1abc:	e9d7879b          	addiw	a5,a5,-355
    1ac0:	07b6                	slli	a5,a5,0xd
    1ac2:	72178793          	addi	a5,a5,1825 # 2fee721 <_end+0x2fcea21>
    1ac6:	07b2                	slli	a5,a5,0xc
    1ac8:	f5b78793          	addi	a5,a5,-165
    1acc:	07b2                	slli	a5,a5,0xc
    1ace:	9b578793          	addi	a5,a5,-1611
    1ad2:	5dfd                	li	s11,-1
    1ad4:	03b8f8bb          	remuw	a7,a7,s11
    1ad8:	e0ad8d9b          	addiw	s11,s11,-502
    1adc:	02f7ddb3          	divu	s11,a5,a5
    1ae0:	03b7fb33          	remu	s6,a5,s11
    1ae4:	03b988bb          	mulw	a7,s3,s11
    1ae8:	036fcfbb          	divw	t6,t6,s6
    1aec:	41978b33          	sub	s6,a5,s9
    1af0:	e9c89397          	auipc	t2,0xe9c89
    1af4:	027d58bb          	divuw	a7,s10,t2
    1af8:	91da                	add	gp,gp,s6
    1afa:	03b8f8bb          	remuw	a7,a7,s11
    1afe:	02f783b3          	mul	t2,a5,a5
    1b02:	033d11b3          	mulh	gp,s10,s3
    1b06:	023d49b3          	div	s3,s10,gp
    1b0a:	033d11b3          	mulh	gp,s10,s3
    1b0e:	5d328b37          	lui	s6,0x5d328
    1b12:	036fcfbb          	divw	t6,t6,s6
    1b16:	0319eb33          	rem	s6,s3,a7
    1b1a:	036dad33          	mulhsu	s10,s11,s6
    1b1e:	027d58bb          	divuw	a7,s10,t2
    1b22:	fff00e9b          	addiw	t4,zero,-1
    1b26:	1efe                	slli	t4,t4,0x3f
    1b28:	4681                	li	a3,0
    1b2a:	4781                	li	a5,0
    1b2c:	fff0031b          	addiw	t1,zero,-1
    1b30:	137e                	slli	t1,t1,0x3f
    1b32:	000e1637          	lui	a2,0xe1
    1b36:	0bd6061b          	addiw	a2,a2,189
    1b3a:	0636                	slli	a2,a2,0xd
    1b3c:	7db60613          	addi	a2,a2,2011 # e17db <_end+0xc1adb>
    1b40:	0632                	slli	a2,a2,0xc
    1b42:	29b60613          	addi	a2,a2,667
    1b46:	064a                	slli	a2,a2,0x12
    1b48:	f1760613          	addi	a2,a2,-233
    1b4c:	4d01                	li	s10,0
    1b4e:	547d                	li	s0,-1
    1b50:	fe820537          	lui	a0,0xfe820
    1b54:	2f95051b          	addiw	a0,a0,761
    1b58:	0532                	slli	a0,a0,0xc
    1b5a:	46f50513          	addi	a0,a0,1135 # fffffffffe82046f <_end+0xfffffffffe80076f>
    1b5e:	0532                	slli	a0,a0,0xc
    1b60:	05150513          	addi	a0,a0,81
    1b64:	053a                	slli	a0,a0,0xe
    1b66:	0c050513          	addi	a0,a0,192
    1b6a:	4b01                	li	s6,0
    1b6c:	fff0091b          	addiw	s2,zero,-1
    1b70:	197e                	slli	s2,s2,0x3f
    1b72:	0267833b          	mulw	t1,a5,t1
    1b76:	e9c89317          	auipc	t1,0xe9c89
    1b7a:	02d956bb          	divuw	a3,s2,a3
    1b7e:	41a30433          	sub	s0,t1,s10
    1b82:	02d956bb          	divuw	a3,s2,a3
    1b86:	02db4d3b          	divw	s10,s6,a3
    1b8a:	008d0933          	add	s2,s10,s0
    1b8e:	028d6b33          	rem	s6,s10,s0
    1b92:	41a30433          	sub	s0,t1,s10
    1b96:	0001                	nop
    1b98:	01dd07bb          	addw	a5,s10,t4
    1b9c:	008d0933          	add	s2,s10,s0
    1ba0:	02aea433          	mulhsu	s0,t4,a0
    1ba4:	0001                	nop
    1ba6:	02ad1533          	mulh	a0,s10,a0
    1baa:	0001                	nop
    1bac:	e9c89317          	auipc	t1,0xe9c89
    1bb0:	010dd7b7          	lui	a5,0x10dd
    1bb4:	5b17879b          	addiw	a5,a5,1457
    1bb8:	07b2                	slli	a5,a5,0xc
    1bba:	eef78793          	addi	a5,a5,-273 # 10dceef <_end+0x10bd1ef>
    1bbe:	07b2                	slli	a5,a5,0xc
    1bc0:	ea978793          	addi	a5,a5,-343
    1bc4:	07b6                	slli	a5,a5,0xd
    1bc6:	0785                	addi	a5,a5,1
    1bc8:	567d                	li	a2,-1
    1bca:	4b81                	li	s7,0
    1bcc:	4401                	li	s0,0
    1bce:	fff0071b          	addiw	a4,zero,-1
    1bd2:	177e                	slli	a4,a4,0x3f
    1bd4:	001d3d37          	lui	s10,0x1d3
    1bd8:	37fd0d1b          	addiw	s10,s10,895
    1bdc:	0d3a                	slli	s10,s10,0xe
    1bde:	19dd0d13          	addi	s10,s10,413 # 1d319d <_end+0x1b349d>
    1be2:	0d3e                	slli	s10,s10,0xf
    1be4:	47fd0d13          	addi	s10,s10,1151
    1be8:	0d32                	slli	s10,s10,0xc
    1bea:	31dd0d13          	addi	s10,s10,797
    1bee:	fc73d2b7          	lui	t0,0xfc73d
    1bf2:	c352829b          	addiw	t0,t0,-971
    1bf6:	02b6                	slli	t0,t0,0xd
    1bf8:	b1528293          	addi	t0,t0,-1259 # fffffffffc73cb15 <_end+0xfffffffffc71ce15>
    1bfc:	02b2                	slli	t0,t0,0xc
    1bfe:	73728293          	addi	t0,t0,1847
    1c02:	02b2                	slli	t0,t0,0xc
    1c04:	0c728293          	addi	t0,t0,199
    1c08:	003a31b7          	lui	gp,0x3a3
    1c0c:	a671819b          	addiw	gp,gp,-1433
    1c10:	01b6                	slli	gp,gp,0xd
    1c12:	20d18193          	addi	gp,gp,525 # 3a320d <_end+0x38350d>
    1c16:	01b2                	slli	gp,gp,0xc
    1c18:	da118193          	addi	gp,gp,-607
    1c1c:	01c2                	slli	gp,gp,0x10
    1c1e:	fd118193          	addi	gp,gp,-47
    1c22:	5ffd                	li	t6,-1
    1c24:	fff00c9b          	addiw	s9,zero,-1
    1c28:	1cfe                	slli	s9,s9,0x3f
    1c2a:	0281e433          	rem	s0,gp,s0
    1c2e:	5d328d37          	lui	s10,0x5d328
    1c32:	02efc7bb          	divw	a5,t6,a4
    1c36:	03947bb3          	remu	s7,s0,s9
    1c3a:	023f81bb          	mulw	gp,t6,gp
    1c3e:	0001                	nop
    1c40:	0001                	nop
    1c42:	02f7d1b3          	divu	gp,a5,a5
    1c46:	03f617b3          	mulh	a5,a2,t6
    1c4a:	00fd0433          	add	s0,s10,a5
    1c4e:	03745cbb          	divuw	s9,s0,s7
    1c52:	02f7d1b3          	divu	gp,a5,a5
    1c56:	8c19                	sub	s0,s0,a4
    1c58:	02f7d1b3          	divu	gp,a5,a5
    1c5c:	0001                	nop
    1c5e:	e0a18b9b          	addiw	s7,gp,-502
    1c62:	00fd0433          	add	s0,s10,a5
    1c66:	03f617b3          	mulh	a5,a2,t6
    1c6a:	03745cbb          	divuw	s9,s0,s7
    1c6e:	03947bb3          	remu	s7,s0,s9
    1c72:	00fd02bb          	addw	t0,s10,a5
    1c76:	fff00b1b          	addiw	s6,zero,-1
    1c7a:	1b7e                	slli	s6,s6,0x3f
    1c7c:	fff00a9b          	addiw	s5,zero,-1
    1c80:	1afe                	slli	s5,s5,0x3f
    1c82:	56fd                	li	a3,-1
    1c84:	fe97a937          	lui	s2,0xfe97a
    1c88:	7ad9091b          	addiw	s2,s2,1965
    1c8c:	0932                	slli	s2,s2,0xc
    1c8e:	92590913          	addi	s2,s2,-1755 # fffffffffe979925 <_end+0xfffffffffe959c25>
    1c92:	0932                	slli	s2,s2,0xc
    1c94:	4c590913          	addi	s2,s2,1221
    1c98:	0932                	slli	s2,s2,0xc
    1c9a:	1d990913          	addi	s2,s2,473
    1c9e:	639d                	lui	t2,0x7
    1ca0:	3dd3839b          	addiw	t2,t2,989
    1ca4:	03ca                	slli	t2,t2,0x12
    1ca6:	04538393          	addi	t2,t2,69 # 7045 <main+0x5869>
    1caa:	03be                	slli	t2,t2,0xf
    1cac:	aa938393          	addi	t2,t2,-1367
    1cb0:	03b2                	slli	t2,t2,0xc
    1cb2:	29938393          	addi	t2,t2,665
    1cb6:	ffb40737          	lui	a4,0xffb40
    1cba:	f0b7071b          	addiw	a4,a4,-245
    1cbe:	0736                	slli	a4,a4,0xd
    1cc0:	7a970713          	addi	a4,a4,1961 # ffffffffffb407a9 <_end+0xffffffffffb20aa9>
    1cc4:	0732                	slli	a4,a4,0xc
    1cc6:	e3f70713          	addi	a4,a4,-449
    1cca:	0736                	slli	a4,a4,0xd
    1ccc:	50570713          	addi	a4,a4,1285
    1cd0:	4f81                	li	t6,0
    1cd2:	fff0021b          	addiw	tp,zero,-1
    1cd6:	127e                	slli	tp,tp,0x3f
    1cd8:	017de337          	lui	t1,0x17de
    1cdc:	9cd3031b          	addiw	t1,t1,-1587
    1ce0:	0332                	slli	t1,t1,0xc
    1ce2:	3d730313          	addi	t1,t1,983 # 17de3d7 <_end+0x17be6d7>
    1ce6:	0336                	slli	t1,t1,0xd
    1ce8:	6df30313          	addi	t1,t1,1759
    1cec:	0332                	slli	t1,t1,0xc
    1cee:	bcb30313          	addi	t1,t1,-1077
    1cf2:	5a7d                	li	s4,-1
    1cf4:	004b0933          	add	s2,s6,tp
    1cf8:	032376b3          	remu	a3,t1,s2
    1cfc:	02671733          	mulh	a4,a4,t1
    1d00:	02671733          	mulh	a4,a4,t1
    1d04:	032376b3          	remu	a3,t1,s2
    1d08:	026a4b33          	div	s6,s4,t1
    1d0c:	026a4b33          	div	s6,s4,t1
    1d10:	41620933          	sub	s2,tp,s6
    1d14:	41620933          	sub	s2,tp,s6
    1d18:	407206bb          	subw	a3,tp,t2
    1d1c:	e9c89317          	auipc	t1,0xe9c89
    1d20:	02727abb          	remuw	s5,tp,t2
    1d24:	026a4b33          	div	s6,s4,t1
    1d28:	02496233          	rem	tp,s2,tp
    1d2c:	e9c89317          	auipc	t1,0xe9c89
    1d30:	004b0933          	add	s2,s6,tp
    1d34:	e9c89317          	auipc	t1,0xe9c89
    1d38:	02e753b3          	divu	t2,a4,a4
    1d3c:	02d3a233          	mulhsu	tp,t2,a3
    1d40:	0001                	nop
    1d42:	02727abb          	remuw	s5,tp,t2
    1d46:	02e74fbb          	divw	t6,a4,a4
    1d4a:	036383bb          	mulw	t2,t2,s6
    1d4e:	5ffd                	li	t6,-1
    1d50:	557d                	li	a0,-1
    1d52:	4b81                	li	s7,0
    1d54:	fff0031b          	addiw	t1,zero,-1
    1d58:	137e                	slli	t1,t1,0x3f
    1d5a:	4601                	li	a2,0
    1d5c:	fff00d1b          	addiw	s10,zero,-1
    1d60:	1d7e                	slli	s10,s10,0x3f
    1d62:	fff0039b          	addiw	t2,zero,-1
    1d66:	13fe                	slli	t2,t2,0x3f
    1d68:	51fd                	li	gp,-1
    1d6a:	fe9352b7          	lui	t0,0xfe935
    1d6e:	f712829b          	addiw	t0,t0,-143
    1d72:	02b2                	slli	t0,t0,0xc
    1d74:	68728293          	addi	t0,t0,1671 # fffffffffe935687 <_end+0xfffffffffe915987>
    1d78:	02b2                	slli	t0,t0,0xc
    1d7a:	59128293          	addi	t0,t0,1425
    1d7e:	02b6                	slli	t0,t0,0xd
    1d80:	a2b28293          	addi	t0,t0,-1493
    1d84:	fff55737          	lui	a4,0xfff55
    1d88:	fad7071b          	addiw	a4,a4,-83
    1d8c:	0732                	slli	a4,a4,0xc
    1d8e:	08b70713          	addi	a4,a4,139 # fffffffffff5508b <_end+0xfffffffffff3538b>
    1d92:	073a                	slli	a4,a4,0xe
    1d94:	ecf70713          	addi	a4,a4,-305
    1d98:	0732                	slli	a4,a4,0xc
    1d9a:	d5570713          	addi	a4,a4,-683
    1d9e:	40cd0fbb          	subw	t6,s10,a2
    1da2:	e9c89317          	auipc	t1,0xe9c89
    1da6:	02563d33          	mulhu	s10,a2,t0
    1daa:	5d328d37          	lui	s10,0x5d328
    1dae:	02efa3b3          	mulhsu	t2,t6,a4
    1db2:	027713b3          	mulh	t2,a4,t2
    1db6:	02a1e733          	rem	a4,gp,a0
    1dba:	13a60513          	addi	a0,a2,314
    1dbe:	41a30533          	sub	a0,t1,s10
    1dc2:	956a                	add	a0,a0,s10
    1dc4:	02a1e733          	rem	a4,gp,a0
    1dc8:	02efa3b3          	mulhsu	t2,t6,a4
    1dcc:	02e371b3          	remu	gp,t1,a4
    1dd0:	027713b3          	mulh	t2,a4,t2
    1dd4:	02a54d33          	div	s10,a0,a0
    1dd8:	02563d33          	mulhu	s10,a2,t0
    1ddc:	02563d33          	mulhu	s10,a2,t0
    1de0:	02563d33          	mulhu	s10,a2,t0
    1de4:	e0ad0b9b          	addiw	s7,s10,-502
    1de8:	02a54d33          	div	s10,a0,a0
    1dec:	41a30533          	sub	a0,t1,s10
    1df0:	41a30533          	sub	a0,t1,s10
    1df4:	40cd0fbb          	subw	t6,s10,a2
    1df8:	02a1e733          	rem	a4,gp,a0
    1dfc:	026fdbb3          	divu	s7,t6,t1
    1e00:	956a                	add	a0,a0,s10
    1e02:	5cfd                	li	s9,-1
    1e04:	5a7d                	li	s4,-1
    1e06:	fcaab937          	lui	s2,0xfcaab
    1e0a:	5ff9091b          	addiw	s2,s2,1535
    1e0e:	0936                	slli	s2,s2,0xd
    1e10:	a8d90913          	addi	s2,s2,-1395 # fffffffffcaaaa8d <_end+0xfffffffffca8ad8d>
    1e14:	0932                	slli	s2,s2,0xc
    1e16:	c9f90913          	addi	s2,s2,-865
    1e1a:	0932                	slli	s2,s2,0xc
    1e1c:	db090913          	addi	s2,s2,-592
    1e20:	fffc8337          	lui	t1,0xfffc8
    1e24:	bc73031b          	addiw	t1,t1,-1081
    1e28:	033a                	slli	t1,t1,0xe
    1e2a:	da330313          	addi	t1,t1,-605 # fffffffffffc7da3 <_end+0xfffffffffffa80a3>
    1e2e:	033a                	slli	t1,t1,0xe
    1e30:	1df30313          	addi	t1,t1,479
    1e34:	0342                	slli	t1,t1,0x10
    1e36:	1c730313          	addi	t1,t1,455
    1e3a:	58fd                	li	a7,-1
    1e3c:	fff00d1b          	addiw	s10,zero,-1
    1e40:	1d7e                	slli	s10,s10,0x3f
    1e42:	001733b7          	lui	t2,0x173
    1e46:	8453839b          	addiw	t2,t2,-1979
    1e4a:	03b2                	slli	t2,t2,0xc
    1e4c:	bf938393          	addi	t2,t2,-1031 # 172bf9 <_end+0x152ef9>
    1e50:	03b6                	slli	t2,t2,0xd
    1e52:	b4b38393          	addi	t2,t2,-1205
    1e56:	03b2                	slli	t2,t2,0xc
    1e58:	6d838393          	addi	t2,t2,1752
    1e5c:	4481                	li	s1,0
    1e5e:	4681                	li	a3,0
    1e60:	fff0021b          	addiw	tp,zero,-1
    1e64:	127e                	slli	tp,tp,0x3f
    1e66:	0264a3b3          	mulhsu	t2,s1,t1
    1e6a:	e0ad069b          	addiw	a3,s10,-502
    1e6e:	e0ad069b          	addiw	a3,s10,-502
    1e72:	0293893b          	mulw	s2,t2,s1
    1e76:	0001                	nop
    1e78:	41a20233          	sub	tp,tp,s10
    1e7c:	007d033b          	addw	t1,s10,t2
    1e80:	0324d3b3          	divu	t2,s1,s2
    1e84:	41a20233          	sub	tp,tp,s10
    1e88:	029d14b3          	mulh	s1,s10,s1
    1e8c:	e9c89317          	auipc	t1,0xe9c89
    1e90:	5d328d37          	lui	s10,0x5d328
    1e94:	032a4a33          	div	s4,s4,s2
    1e98:	03468cb3          	mul	s9,a3,s4
    1e9c:	024964bb          	remw	s1,s2,tp
    1ea0:	5d328d37          	lui	s10,0x5d328
    1ea4:	007d033b          	addw	t1,s10,t2
    1ea8:	fff00d9b          	addiw	s11,zero,-1
    1eac:	1dfe                	slli	s11,s11,0x3f
    1eae:	fff00d1b          	addiw	s10,zero,-1
    1eb2:	1d7e                	slli	s10,s10,0x3f
    1eb4:	4c81                	li	s9,0
    1eb6:	f8af23b7          	lui	t2,0xf8af2
    1eba:	f793839b          	addiw	t2,t2,-135
    1ebe:	03b2                	slli	t2,t2,0xc
    1ec0:	87138393          	addi	t2,t2,-1935 # fffffffff8af1871 <_end+0xfffffffff8ad1b71>
    1ec4:	03b2                	slli	t2,t2,0xc
    1ec6:	db738393          	addi	t2,t2,-585
    1eca:	03b2                	slli	t2,t2,0xc
    1ecc:	79e38393          	addi	t2,t2,1950
    1ed0:	fff0049b          	addiw	s1,zero,-1
    1ed4:	14fe                	slli	s1,s1,0x3f
    1ed6:	00623437          	lui	s0,0x623
    1eda:	2954041b          	addiw	s0,s0,661
    1ede:	043a                	slli	s0,s0,0xe
    1ee0:	4b540413          	addi	s0,s0,1205 # 6234b5 <_end+0x6037b5>
    1ee4:	0436                	slli	s0,s0,0xd
    1ee6:	0a740413          	addi	s0,s0,167
    1eea:	0432                	slli	s0,s0,0xc
    1eec:	17240413          	addi	s0,s0,370
    1ef0:	00256537          	lui	a0,0x256
    1ef4:	4a55051b          	addiw	a0,a0,1189
    1ef8:	0542                	slli	a0,a0,0x10
    1efa:	a7750513          	addi	a0,a0,-1417 # 255a77 <_end+0x235d77>
    1efe:	0532                	slli	a0,a0,0xc
    1f00:	d2750513          	addi	a0,a0,-729
    1f04:	0536                	slli	a0,a0,0xd
    1f06:	61250513          	addi	a0,a0,1554
    1f0a:	5efd                	li	t4,-1
    1f0c:	577d                	li	a4,-1
    1f0e:	fff0021b          	addiw	tp,zero,-1
    1f12:	127e                	slli	tp,tp,0x3f
    1f14:	008d0533          	add	a0,s10,s0
    1f18:	028de733          	rem	a4,s11,s0
    1f1c:	e9c89717          	auipc	a4,0xe9c89
    1f20:	0244743b          	remuw	s0,s0,tp
    1f24:	0244743b          	remuw	s0,s0,tp
    1f28:	02923d33          	mulhu	s10,tp,s1
    1f2c:	02ad853b          	mulw	a0,s11,a0
    1f30:	008d0533          	add	a0,s10,s0
    1f34:	0294a233          	mulhsu	tp,s1,s1
    1f38:	0001                	nop
    1f3a:	02456ebb          	remw	t4,a0,tp
    1f3e:	41a20533          	sub	a0,tp,s10
    1f42:	0001                	nop
    1f44:	e9c89717          	auipc	a4,0xe9c89
    1f48:	02a554bb          	divuw	s1,a0,a0
    1f4c:	5d328d37          	lui	s10,0x5d328
    1f50:	0244743b          	remuw	s0,s0,tp
    1f54:	039d1db3          	mulh	s11,s10,s9
    1f58:	0001                	nop
    1f5a:	028de733          	rem	a4,s11,s0
    1f5e:	02ad853b          	mulw	a0,s11,a0
    1f62:	0294a233          	mulhsu	tp,s1,s1
    1f66:	008d0533          	add	a0,s10,s0
    1f6a:	02974ebb          	divw	t4,a4,s1
    1f6e:	41a20533          	sub	a0,tp,s10
    1f72:	4044073b          	subw	a4,s0,tp
    1f76:	02923d33          	mulhu	s10,tp,s1
    1f7a:	4d01                	li	s10,0
    1f7c:	56fd                	li	a3,-1
    1f7e:	fff0021b          	addiw	tp,zero,-1
    1f82:	127e                	slli	tp,tp,0x3f
    1f84:	fff00f9b          	addiw	t6,zero,-1
    1f88:	1ffe                	slli	t6,t6,0x3f
    1f8a:	57fd                	li	a5,-1
    1f8c:	fff0019b          	addiw	gp,zero,-1
    1f90:	11fe                	slli	gp,gp,0x3f
    1f92:	fff0049b          	addiw	s1,zero,-1
    1f96:	14fe                	slli	s1,s1,0x3f
    1f98:	577d                	li	a4,-1
    1f9a:	4301                	li	t1,0
    1f9c:	59fd                	li	s3,-1
    1f9e:	03fd76b3          	remu	a3,s10,t6
    1fa2:	02f9a333          	mulhsu	t1,s3,a5
    1fa6:	02f9a333          	mulhsu	t1,s3,a5
    1faa:	024d4d33          	div	s10,s10,tp
    1fae:	024d4d33          	div	s10,s10,tp
    1fb2:	0033073b          	addw	a4,t1,gp
    1fb6:	03a1b6b3          	mulhu	a3,gp,s10
    1fba:	023f8d3b          	mulw	s10,t6,gp
    1fbe:	02d1ed33          	rem	s10,gp,a3
    1fc2:	023f8d3b          	mulw	s10,t6,gp
    1fc6:	e0a48f9b          	addiw	t6,s1,-502
    1fca:	024d4d33          	div	s10,s10,tp
    1fce:	03f1dfb3          	divu	t6,gp,t6
    1fd2:	e0a48f9b          	addiw	t6,s1,-502
    1fd6:	024987b3          	mul	a5,s3,tp
    1fda:	02d1ed33          	rem	s10,gp,a3
    1fde:	13ad0313          	addi	t1,s10,314 # 5d32813a <_end+0x5d30843a>
    1fe2:	0033073b          	addw	a4,t1,gp
    1fe6:	5d328d37          	lui	s10,0x5d328
    1fea:	013307b3          	add	a5,t1,s3
    1fee:	03a1b6b3          	mulhu	a3,gp,s10
    1ff2:	0001                	nop
    1ff4:	03f251bb          	divuw	gp,tp,t6
    1ff8:	5b7d                	li	s6,-1
    1ffa:	ffd89237          	lui	tp,0xffd89
    1ffe:	32f2021b          	addiw	tp,tp,815
    2002:	023e                	slli	tp,tp,0xf
    2004:	020d                	addi	tp,tp,3
    2006:	0236                	slli	tp,tp,0xd
    2008:	1f320213          	addi	tp,tp,499 # ffffffffffd891f3 <_end+0xffffffffffd694f3>
    200c:	0236                	slli	tp,tp,0xd
    200e:	ef520213          	addi	tp,tp,-267 # fffffffffffffef5 <_end+0xfffffffffffe01f5>
    2012:	547d                	li	s0,-1
    2014:	4381                	li	t2,0
    2016:	fff0029b          	addiw	t0,zero,-1
    201a:	12fe                	slli	t0,t0,0x3f
    201c:	4681                	li	a3,0
    201e:	ff7094b7          	lui	s1,0xff709
    2022:	ce54849b          	addiw	s1,s1,-795
    2026:	04b2                	slli	s1,s1,0xc
    2028:	90d48493          	addi	s1,s1,-1779 # ffffffffff70890d <_end+0xffffffffff6e8c0d>
    202c:	04b6                	slli	s1,s1,0xd
    202e:	b0f48493          	addi	s1,s1,-1265
    2032:	04b6                	slli	s1,s1,0xd
    2034:	4b548493          	addi	s1,s1,1205
    2038:	577d                	li	a4,-1
    203a:	fff0079b          	addiw	a5,zero,-1
    203e:	17fe                	slli	a5,a5,0x3f
    2040:	fff0089b          	addiw	a7,zero,-1
    2044:	18fe                	slli	a7,a7,0x3f
    2046:	02d778bb          	remuw	a7,a4,a3
    204a:	0001                	nop
    204c:	0001                	nop
    204e:	02e7e43b          	remw	s0,a5,a4
    2052:	02f7a7b3          	mulhsu	a5,a5,a5
    2056:	0318c8b3          	div	a7,a7,a7
    205a:	d9d4889b          	addiw	a7,s1,-611
    205e:	02f8c4bb          	divw	s1,a7,a5
    2062:	0272c4b3          	div	s1,t0,t2
    2066:	031768b3          	rem	a7,a4,a7
    206a:	00e708bb          	addw	a7,a4,a4
    206e:	0001                	nop
    2070:	03188733          	mul	a4,a7,a7
    2074:	df588893          	addi	a7,a7,-523
    2078:	00e408bb          	addw	a7,s0,a4
    207c:	0312d4b3          	divu	s1,t0,a7
    2080:	02f2c3b3          	div	t2,t0,a5
    2084:	13a40493          	addi	s1,s0,314
    2088:	e0a6841b          	addiw	s0,a3,-502
    208c:	0318d7bb          	divuw	a5,a7,a7
    2090:	0318f8b3          	remu	a7,a7,a7
    2094:	02e764bb          	remw	s1,a4,a4
    2098:	eba1b8b7          	lui	a7,0xeba1b
    209c:	02e6e8b3          	rem	a7,a3,a4
    20a0:	0362a8b3          	mulhsu	a7,t0,s6
    20a4:	031887bb          	mulw	a5,a7,a7
    20a8:	e0a6829b          	addiw	t0,a3,-502
    20ac:	411882b3          	sub	t0,a7,a7
    20b0:	0254473b          	divw	a4,s0,t0
    20b4:	02f7b8b3          	mulhu	a7,a5,a5
    20b8:	5a7d                	li	s4,-1
    20ba:	5f7d                	li	t5,-1
    20bc:	5efd                	li	t4,-1
    20be:	4501                	li	a0,0
    20c0:	58fd                	li	a7,-1
    20c2:	4381                	li	t2,0
    20c4:	52fd                	li	t0,-1
    20c6:	fff0031b          	addiw	t1,zero,-1
    20ca:	137e                	slli	t1,t1,0x3f
    20cc:	4781                	li	a5,0
    20ce:	50fd                	li	ra,-1
    20d0:	025353bb          	divuw	t2,t1,t0
    20d4:	03d0a3b3          	mulhsu	t2,ra,t4
    20d8:	03e28333          	mul	t1,t0,t5
    20dc:	031a70bb          	remuw	ra,s4,a7
    20e0:	02a3ea33          	rem	s4,t2,a0
    20e4:	03eec7bb          	divw	a5,t4,t5
    20e8:	03eeba33          	mulhu	s4,t4,t5
    20ec:	00f5033b          	addw	t1,a0,a5
    20f0:	02a3ea33          	rem	s4,t2,a0
    20f4:	13aa0513          	addi	a0,s4,314
    20f8:	03eec7bb          	divw	a5,t4,t5
    20fc:	03d0a3b3          	mulhsu	t2,ra,t4
    2100:	00630a33          	add	s4,t1,t1
    2104:	02a372b3          	remu	t0,t1,a0
    2108:	03eec7bb          	divw	a5,t4,t5
    210c:	03eeba33          	mulhu	s4,t4,t5
    2110:	fff0019b          	addiw	gp,zero,-1
    2114:	11fe                	slli	gp,gp,0x3f
    2116:	4d01                	li	s10,0
    2118:	4b81                	li	s7,0
    211a:	4381                	li	t2,0
    211c:	5a7d                	li	s4,-1
    211e:	4d81                	li	s11,0
    2120:	4281                	li	t0,0
    2122:	5afd                	li	s5,-1
    2124:	537d                	li	t1,-1
    2126:	4b01                	li	s6,0
    2128:	037b11b3          	mulh	gp,s6,s7
    212c:	025bcdbb          	divw	s11,s7,t0
    2130:	0001                	nop
    2132:	03b182bb          	mulw	t0,gp,s11
    2136:	40330a33          	sub	s4,t1,gp
    213a:	034d6dbb          	remw	s11,s10,s4
    213e:	41ba0bbb          	subw	s7,s4,s11
    2142:	e0ad8d9b          	addiw	s11,s11,-502
    2146:	0001                	nop
    2148:	e0ad8d9b          	addiw	s11,s11,-502
    214c:	e0ad8d9b          	addiw	s11,s11,-502
    2150:	01bb0a33          	add	s4,s6,s11
    2154:	037b11b3          	mulh	gp,s6,s7
    2158:	037b11b3          	mulh	gp,s6,s7
    215c:	e0ad8d9b          	addiw	s11,s11,-502
    2160:	03ba7a3b          	remuw	s4,s4,s11
    2164:	03aa82b3          	mul	t0,s5,s10
    2168:	03b182bb          	mulw	t0,gp,s11
    216c:	40330a33          	sub	s4,t1,gp
    2170:	025bcdbb          	divw	s11,s7,t0
    2174:	0001                	nop
    2176:	025bcdbb          	divw	s11,s7,t0
    217a:	0001                	nop
    217c:	13aa0d13          	addi	s10,s4,314
    2180:	03ba7a3b          	remuw	s4,s4,s11
    2184:	e0ad8d9b          	addiw	s11,s11,-502
    2188:	40330a33          	sub	s4,t1,gp
    218c:	fe653a37          	lui	s4,0xfe653
    2190:	99da0a1b          	addiw	s4,s4,-1635
    2194:	0a32                	slli	s4,s4,0xc
    2196:	39da0a13          	addi	s4,s4,925 # fffffffffe65339d <_end+0xfffffffffe63369d>
    219a:	0a32                	slli	s4,s4,0xc
    219c:	125a0a13          	addi	s4,s4,293
    21a0:	0a32                	slli	s4,s4,0xc
    21a2:	b93a0a13          	addi	s4,s4,-1133
    21a6:	fd7126b7          	lui	a3,0xfd712
    21aa:	48f6869b          	addiw	a3,a3,1167
    21ae:	06b2                	slli	a3,a3,0xc
    21b0:	1c568693          	addi	a3,a3,453 # fffffffffd7121c5 <_end+0xfffffffffd6f24c5>
    21b4:	06b6                	slli	a3,a3,0xd
    21b6:	6a168693          	addi	a3,a3,1697
    21ba:	06b2                	slli	a3,a3,0xc
    21bc:	f9f68693          	addi	a3,a3,-97
    21c0:	5efd                	li	t4,-1
    21c2:	53fd                	li	t2,-1
    21c4:	fff0089b          	addiw	a7,zero,-1
    21c8:	18fe                	slli	a7,a7,0x3f
    21ca:	4c81                	li	s9,0
    21cc:	4281                	li	t0,0
    21ce:	fff00a9b          	addiw	s5,zero,-1
    21d2:	1afe                	slli	s5,s5,0x3f
    21d4:	01d537b7          	lui	a5,0x1d53
    21d8:	c3b7879b          	addiw	a5,a5,-965
    21dc:	07b2                	slli	a5,a5,0xc
    21de:	a9778793          	addi	a5,a5,-1385 # 1d52a97 <_end+0x1d32d97>
    21e2:	07b2                	slli	a5,a5,0xc
    21e4:	17ed                	addi	a5,a5,-5
    21e6:	07b2                	slli	a5,a5,0xc
    21e8:	fd378793          	addi	a5,a5,-45
    21ec:	527d                	li	tp,-1
    21ee:	02578abb          	mulw	s5,a5,t0
    21f2:	03da8eb3          	mul	t4,s5,t4
    21f6:	015a0abb          	addw	s5,s4,s5
    21fa:	e0ac8e9b          	addiw	t4,s9,-502
    21fe:	03da43b3          	div	t2,s4,t4
    2202:	02578abb          	mulw	s5,a5,t0
    2206:	005206b3          	add	a3,tp,t0
    220a:	03da1ab3          	mulh	s5,s4,t4
    220e:	015a0abb          	addw	s5,s4,s5
    2212:	03da8eb3          	mul	t4,s5,t4
    2216:	e0ac8e9b          	addiw	t4,s9,-502
    221a:	027257bb          	divuw	a5,tp,t2
    221e:	407202bb          	subw	t0,tp,t2
    2222:	035ec6bb          	divw	a3,t4,s5
    2226:	407202bb          	subw	t0,tp,t2
    222a:	035ad6b3          	divu	a3,s5,s5
    222e:	03da1ab3          	mulh	s5,s4,t4
    2232:	015a0abb          	addw	s5,s4,s5
    2236:	035ec6bb          	divw	a3,t4,s5
    223a:	e9c89a97          	auipc	s5,0xe9c89
    223e:	407202bb          	subw	t0,tp,t2
    2242:	02578abb          	mulw	s5,a5,t0
    2246:	015a0abb          	addw	s5,s4,s5
    224a:	4d81                	li	s11,0
    224c:	f8bb1937          	lui	s2,0xf8bb1
    2250:	3579091b          	addiw	s2,s2,855
    2254:	0932                	slli	s2,s2,0xc
    2256:	39d90913          	addi	s2,s2,925 # fffffffff8bb139d <_end+0xfffffffff8b9169d>
    225a:	0932                	slli	s2,s2,0xc
    225c:	df190913          	addi	s2,s2,-527
    2260:	0932                	slli	s2,s2,0xc
    2262:	30a90913          	addi	s2,s2,778
    2266:	5cfd                	li	s9,-1
    2268:	fff0039b          	addiw	t2,zero,-1
    226c:	13fe                	slli	t2,t2,0x3f
    226e:	011b68b7          	lui	a7,0x11b6
    2272:	4c18889b          	addiw	a7,a7,1217
    2276:	08b2                	slli	a7,a7,0xc
    2278:	f1188893          	addi	a7,a7,-239 # 11b5f11 <_end+0x1196211>
    227c:	08b2                	slli	a7,a7,0xc
    227e:	b1588893          	addi	a7,a7,-1259
    2282:	08ba                	slli	a7,a7,0xe
    2284:	d9288893          	addi	a7,a7,-622
    2288:	ff0ef4b7          	lui	s1,0xff0ef
    228c:	bcf4849b          	addiw	s1,s1,-1073
    2290:	04b2                	slli	s1,s1,0xc
    2292:	ccf48493          	addi	s1,s1,-817 # ffffffffff0eeccf <_end+0xffffffffff0cefcf>
    2296:	04b2                	slli	s1,s1,0xc
    2298:	30548493          	addi	s1,s1,773
    229c:	04ba                	slli	s1,s1,0xe
    229e:	4db48493          	addi	s1,s1,1243
    22a2:	01e332b7          	lui	t0,0x1e33
    22a6:	49d2829b          	addiw	t0,t0,1181
    22aa:	02b2                	slli	t0,t0,0xc
    22ac:	a4128293          	addi	t0,t0,-1471 # 1e32a41 <_end+0x1e12d41>
    22b0:	02b2                	slli	t0,t0,0xc
    22b2:	e8328293          	addi	t0,t0,-381
    22b6:	02b6                	slli	t0,t0,0xd
    22b8:	e2728293          	addi	t0,t0,-473
    22bc:	0041ab37          	lui	s6,0x41a
    22c0:	f3db0b1b          	addiw	s6,s6,-195
    22c4:	0b32                	slli	s6,s6,0xc
    22c6:	d49b0b13          	addi	s6,s6,-695 # 419d49 <_end+0x3fa049>
    22ca:	0b32                	slli	s6,s6,0xc
    22cc:	581b0b13          	addi	s6,s6,1409
    22d0:	0b3e                	slli	s6,s6,0xf
    22d2:	704b0b13          	addi	s6,s6,1796
    22d6:	fff00f9b          	addiw	t6,zero,-1
    22da:	1ffe                	slli	t6,t6,0x3f
    22dc:	fff0071b          	addiw	a4,zero,-1
    22e0:	177e                	slli	a4,a4,0x3f
    22e2:	5d328b37          	lui	s6,0x5d328
    22e6:	029714b3          	mulh	s1,a4,s1
    22ea:	03694933          	div	s2,s2,s6
    22ee:	03b974bb          	remuw	s1,s2,s11
    22f2:	02528cb3          	mul	s9,t0,t0
    22f6:	031de733          	rem	a4,s11,a7
    22fa:	029714b3          	mulh	s1,a4,s1
    22fe:	029714b3          	mulh	s1,a4,s1
    2302:	0312f2b3          	remu	t0,t0,a7
    2306:	02efcfbb          	divw	t6,t6,a4
    230a:	02e4a3b3          	mulhsu	t2,s1,a4
    230e:	41b90cbb          	subw	s9,s2,s11
    2312:	0001                	nop
    2314:	0001                	nop
    2316:	0001                	nop
    2318:	03694933          	div	s2,s2,s6
    231c:	01fb08bb          	addw	a7,s6,t6
    2320:	02c78bb3          	mul	s7,a5,a2
    2324:	e9c89317          	auipc	t1,0xe9c89
    2328:	e9c89317          	auipc	t1,0xe9c89
    232c:	1f7d                	addi	t5,t5,-1
    232e:	02817933          	remu	s2,sp,s0
    2332:	54f6a993          	slti	s3,a3,1359
    2336:	dfa53c93          	sltiu	s9,a0,-518
    233a:	13ad0213          	addi	tp,s10,314 # 5d32813a <_end+0x5d30843a>
    233e:	5d328737          	lui	a4,0x5d328
    2342:	00e1d23b          	srlw	tp,gp,a4
    2346:	8439                	srai	s0,s0,0xe
    2348:	8d01                	sub	a0,a0,s0
    234a:	e0a1059b          	addiw	a1,sp,-502
    234e:	008643b3          	xor	t2,a2,s0
    2352:	00f31f9b          	slliw	t6,t1,0xf
    2356:	41d98233          	sub	tp,s3,t4
    235a:	9ead                	addw	a3,a3,a1
    235c:	51fd                	li	gp,-1
    235e:	717d                	addi	sp,sp,-16
    2360:	40675113          	srai	sp,a4,0x6
    2364:	01a37233          	and	tp,t1,s10
    2368:	41d98233          	sub	tp,s3,t4
    236c:	016a92bb          	sllw	t0,s5,s6
    2370:	004e5ab3          	srl	s5,t3,tp
    2374:	00f31f9b          	slliw	t6,t1,0xf
    2378:	e0a1059b          	addiw	a1,sp,-502
    237c:	039f7a3b          	remuw	s4,t5,s9
    2380:	004e5ab3          	srl	s5,t3,tp
    2384:	38057713          	andi	a4,a0,896
    2388:	13ad0213          	addi	tp,s10,314
    238c:	e0a1059b          	addiw	a1,sp,-502
    2390:	8439                	srai	s0,s0,0xe
    2392:	0001                	nop
    2394:	03e0c033          	div	zero,ra,t5
    2398:	808d                	srli	s1,s1,0x3
    239a:	808d                	srli	s1,s1,0x3
    239c:	1f7d                	addi	t5,t5,-1
    239e:	5d328737          	lui	a4,0x5d328
    23a2:	01182a33          	slt	s4,a6,a7
    23a6:	02dadfb3          	divu	t6,s5,a3
    23aa:	5d328737          	lui	a4,0x5d328
    23ae:	8439                	srai	s0,s0,0xe
    23b0:	5d328737          	lui	a4,0x5d328
    23b4:	8ec9                	or	a3,a3,a0
    23b6:	808d                	srli	s1,s1,0x3
    23b8:	00f48133          	add	sp,s1,a5
    23bc:	02f24d3b          	divw	s10,tp,a5
    23c0:	02f24d3b          	divw	s10,tp,a5
    23c4:	41c7043b          	subw	s0,a4,t3
    23c8:	1f7d                	addi	t5,t5,-1
    23ca:	51fd                	li	gp,-1
    23cc:	9ead                	addw	a3,a3,a1
    23ce:	02e189bb          	mulw	s3,gp,a4
    23d2:	033fd793          	srli	a5,t6,0x33
    23d6:	02e8b633          	mulhu	a2,a7,a4
    23da:	090e                	slli	s2,s2,0x3
    23dc:	9ead                	addw	a3,a3,a1
    23de:	0001                	nop
    23e0:	01320b3b          	addw	s6,tp,s3
    23e4:	02c78bb3          	mul	s7,a5,a2
    23e8:	01a3ba33          	sltu	s4,t2,s10
    23ec:	8d01                	sub	a0,a0,s0
    23ee:	037f9333          	mulh	t1,t6,s7
    23f2:	039f7a3b          	remuw	s4,t5,s9
    23f6:	00f31f9b          	slliw	t6,t1,0xf
    23fa:	13ad0213          	addi	tp,s10,314
    23fe:	717d                	addi	sp,sp,-16
    2400:	0001                	nop
    2402:	13ad0213          	addi	tp,s10,314
    2406:	8ef1                	and	a3,a3,a2
    2408:	0001                	nop
    240a:	029d29b3          	mulhsu	s3,s10,s1
    240e:	0001                	nop
    2410:	01320b3b          	addw	s6,tp,s3
    2414:	88d2                	mv	a7,s4
    2416:	02f24d3b          	divw	s10,tp,a5
    241a:	e0a1059b          	addiw	a1,sp,-502
    241e:	016a92bb          	sllw	t0,s5,s6
    2422:	1f7d                	addi	t5,t5,-1
    2424:	9c8d                	subw	s1,s1,a1
    2426:	0313633b          	remw	t1,t1,a7
    242a:	03e0c033          	div	zero,ra,t5
    242e:	8ec9                	or	a3,a3,a0
    2430:	41c7043b          	subw	s0,a4,t3
    2434:	01a37233          	and	tp,t1,s10
    2438:	808d                	srli	s1,s1,0x3
    243a:	9ead                	addw	a3,a3,a1
    243c:	317d                	addiw	sp,sp,-1
    243e:	808d                	srli	s1,s1,0x3
    2440:	090e                	slli	s2,s2,0x3
    2442:	38057713          	andi	a4,a0,896
    2446:	02e189bb          	mulw	s3,gp,a4
    244a:	016a92bb          	sllw	t0,s5,s6
    244e:	039f7a3b          	remuw	s4,t5,s9
    2452:	961a                	add	a2,a2,t1
    2454:	0398d53b          	divuw	a0,a7,s9
    2458:	02c78bb3          	mul	s7,a5,a2
    245c:	03509613          	slli	a2,ra,0x35
    2460:	808d                	srli	s1,s1,0x3
    2462:	00f31f9b          	slliw	t6,t1,0xf
    2466:	40dad233          	sra	tp,s5,a3
    246a:	00fed41b          	srliw	s0,t4,0xf
    246e:	717d                	addi	sp,sp,-16
    2470:	090e                	slli	s2,s2,0x3
    2472:	13ad0213          	addi	tp,s10,314
    2476:	13ad0213          	addi	tp,s10,314
    247a:	00e1d23b          	srlw	tp,gp,a4
    247e:	02e189bb          	mulw	s3,gp,a4
    2482:	00e1d23b          	srlw	tp,gp,a4
    2486:	e0a1059b          	addiw	a1,sp,-502
    248a:	40dad233          	sra	tp,s5,a3
    248e:	808d                	srli	s1,s1,0x3
    2490:	4048dcbb          	sraw	s9,a7,tp
    2494:	00fed41b          	srliw	s0,t4,0xf
    2498:	00e1d23b          	srlw	tp,gp,a4
    249c:	1f7d                	addi	t5,t5,-1
    249e:	317d                	addiw	sp,sp,-1
    24a0:	54f6a993          	slti	s3,a3,1359
    24a4:	8d3d                	xor	a0,a0,a5
    24a6:	317d                	addiw	sp,sp,-1
    24a8:	40675113          	srai	sp,a4,0x6
    24ac:	8439                	srai	s0,s0,0xe
    24ae:	8ec9                	or	a3,a3,a0
    24b0:	1f7d                	addi	t5,t5,-1
    24b2:	8ec9                	or	a3,a3,a0
    24b4:	01a3ba33          	sltu	s4,t2,s10
    24b8:	090e                	slli	s2,s2,0x3
    24ba:	090e                	slli	s2,s2,0x3
    24bc:	51fd                	li	gp,-1
    24be:	9ead                	addw	a3,a3,a1
    24c0:	0313633b          	remw	t1,t1,a7
    24c4:	8d01                	sub	a0,a0,s0
    24c6:	6eed                	lui	t4,0x1b
    24c8:	54f6a993          	slti	s3,a3,1359
    24cc:	039f7a3b          	remuw	s4,t5,s9
    24d0:	40865a1b          	sraiw	s4,a2,0x8
    24d4:	01320b3b          	addw	s6,tp,s3
    24d8:	e0a1059b          	addiw	a1,sp,-502
    24dc:	41d98233          	sub	tp,s3,t4
    24e0:	033fd793          	srli	a5,t6,0x33
    24e4:	0001                	nop
    24e6:	51fd                	li	gp,-1
    24e8:	01320b3b          	addw	s6,tp,s3
    24ec:	01182a33          	slt	s4,a6,a7
    24f0:	090e                	slli	s2,s2,0x3
    24f2:	8d3d                	xor	a0,a0,a5
    24f4:	dfa53c93          	sltiu	s9,a0,-518
    24f8:	01182a33          	slt	s4,a6,a7
    24fc:	8d01                	sub	a0,a0,s0
    24fe:	02e8b633          	mulhu	a2,a7,a4
    2502:	02817933          	remu	s2,sp,s0
    2506:	02c78bb3          	mul	s7,a5,a2
    250a:	8d3d                	xor	a0,a0,a5
    250c:	0001                	nop
    250e:	0398d53b          	divuw	a0,a7,s9
    2512:	01a37233          	and	tp,t1,s10
    2516:	8d3d                	xor	a0,a0,a5
    2518:	4048dcbb          	sraw	s9,a7,tp
    251c:	01320b3b          	addw	s6,tp,s3
    2520:	00f164b3          	or	s1,sp,a5
    2524:	0a04                	addi	s1,sp,272
    2526:	1f7d                	addi	t5,t5,-1
    2528:	8439                	srai	s0,s0,0xe
    252a:	016a92bb          	sllw	t0,s5,s6
    252e:	51fd                	li	gp,-1
    2530:	039f7a3b          	remuw	s4,t5,s9
    2534:	51fd                	li	gp,-1
    2536:	090e                	slli	s2,s2,0x3
    2538:	00e1d23b          	srlw	tp,gp,a4
    253c:	02817933          	remu	s2,sp,s0
    2540:	317d                	addiw	sp,sp,-1
    2542:	13ad0213          	addi	tp,s10,314
    2546:	42686493          	ori	s1,a6,1062
    254a:	02e189bb          	mulw	s3,gp,a4
    254e:	6eed                	lui	t4,0x1b
    2550:	090e                	slli	s2,s2,0x3
    2552:	13ad0213          	addi	tp,s10,314
    2556:	01a37233          	and	tp,t1,s10
    255a:	dfa53c93          	sltiu	s9,a0,-518
    255e:	38057713          	andi	a4,a0,896
    2562:	41d98233          	sub	tp,s3,t4
    2566:	717d                	addi	sp,sp,-16
    2568:	01a3ba33          	sltu	s4,t2,s10
    256c:	88d2                	mv	a7,s4
    256e:	02dadfb3          	divu	t6,s5,a3
    2572:	01f099b3          	sll	s3,ra,t6
    2576:	4048dcbb          	sraw	s9,a7,tp
    257a:	02e8b633          	mulhu	a2,a7,a4
    257e:	9c8d                	subw	s1,s1,a1
    2580:	090e                	slli	s2,s2,0x3
    2582:	41d98233          	sub	tp,s3,t4
    2586:	0398d53b          	divuw	a0,a7,s9
    258a:	01a37233          	and	tp,t1,s10
    258e:	0001                	nop
    2590:	8ec9                	or	a3,a3,a0
    2592:	6eed                	lui	t4,0x1b
    2594:	0a04                	addi	s1,sp,272
    2596:	01a3ba33          	sltu	s4,t2,s10
    259a:	e0a1059b          	addiw	a1,sp,-502
    259e:	1f7d                	addi	t5,t5,-1
    25a0:	9c8d                	subw	s1,s1,a1
    25a2:	00fed41b          	srliw	s0,t4,0xf
    25a6:	01f099b3          	sll	s3,ra,t6
    25aa:	02c78bb3          	mul	s7,a5,a2
    25ae:	004e5ab3          	srl	s5,t3,tp
    25b2:	5d328737          	lui	a4,0x5d328
    25b6:	01182a33          	slt	s4,a6,a7
    25ba:	40675113          	srai	sp,a4,0x6
    25be:	54f6a993          	slti	s3,a3,1359
    25c2:	40865a1b          	sraiw	s4,a2,0x8
    25c6:	0001                	nop
    25c8:	e9c89317          	auipc	t1,0xe9c89
    25cc:	13ad0213          	addi	tp,s10,314
    25d0:	008643b3          	xor	t2,a2,s0
    25d4:	8439                	srai	s0,s0,0xe
    25d6:	987d                	andi	s0,s0,-1
    25d8:	8439                	srai	s0,s0,0xe
    25da:	00e1d23b          	srlw	tp,gp,a4
    25de:	41c7043b          	subw	s0,a4,t3
    25e2:	13ad0213          	addi	tp,s10,314
    25e6:	40dad233          	sra	tp,s5,a3
    25ea:	e9c89317          	auipc	t1,0xe9c89
    25ee:	00fed41b          	srliw	s0,t4,0xf
    25f2:	13ad0213          	addi	tp,s10,314
    25f6:	40dad233          	sra	tp,s5,a3
    25fa:	4048dcbb          	sraw	s9,a7,tp
    25fe:	e9c89317          	auipc	t1,0xe9c89
    2602:	41d98233          	sub	tp,s3,t4
    2606:	808d                	srli	s1,s1,0x3
    2608:	02e189bb          	mulw	s3,gp,a4
    260c:	8ef1                	and	a3,a3,a2
    260e:	02dadfb3          	divu	t6,s5,a3
    2612:	8ec9                	or	a3,a3,a0
    2614:	961a                	add	a2,a2,t1
    2616:	8ef1                	and	a3,a3,a2
    2618:	02c78bb3          	mul	s7,a5,a2
    261c:	00fed41b          	srliw	s0,t4,0xf
    2620:	40675113          	srai	sp,a4,0x6
    2624:	4048dcbb          	sraw	s9,a7,tp
    2628:	41c7043b          	subw	s0,a4,t3
    262c:	01a37233          	and	tp,t1,s10
    2630:	008643b3          	xor	t2,a2,s0
    2634:	40675113          	srai	sp,a4,0x6
    2638:	02dadfb3          	divu	t6,s5,a3
    263c:	4048dcbb          	sraw	s9,a7,tp
    2640:	00fed41b          	srliw	s0,t4,0xf
    2644:	88d2                	mv	a7,s4
    2646:	004e5ab3          	srl	s5,t3,tp
    264a:	8ec9                	or	a3,a3,a0
    264c:	5d328737          	lui	a4,0x5d328
    2650:	0001                	nop
    2652:	8d01                	sub	a0,a0,s0
    2654:	0313633b          	remw	t1,t1,a7
    2658:	02e8b633          	mulhu	a2,a7,a4
    265c:	1f7d                	addi	t5,t5,-1
    265e:	0001                	nop
    2660:	01a37233          	and	tp,t1,s10
    2664:	40865a1b          	sraiw	s4,a2,0x8
    2668:	008643b3          	xor	t2,a2,s0
    266c:	5d328737          	lui	a4,0x5d328
    2670:	004e5ab3          	srl	s5,t3,tp
    2674:	004e5ab3          	srl	s5,t3,tp
    2678:	03e0c033          	div	zero,ra,t5
    267c:	0001                	nop
    267e:	41d98233          	sub	tp,s3,t4
    2682:	41d98233          	sub	tp,s3,t4
    2686:	dfa53c93          	sltiu	s9,a0,-518
    268a:	03e0c033          	div	zero,ra,t5
    268e:	0a04                	addi	s1,sp,272
    2690:	033fd793          	srli	a5,t6,0x33
    2694:	00f164b3          	or	s1,sp,a5
    2698:	8ef1                	and	a3,a3,a2
    269a:	6eed                	lui	t4,0x1b
    269c:	40dad233          	sra	tp,s5,a3
    26a0:	029d29b3          	mulhsu	s3,s10,s1
    26a4:	02e964b3          	rem	s1,s2,a4
    26a8:	8d01                	sub	a0,a0,s0
    26aa:	0a04                	addi	s1,sp,272
    26ac:	01f099b3          	sll	s3,ra,t6
    26b0:	02e8b633          	mulhu	a2,a7,a4
    26b4:	016a92bb          	sllw	t0,s5,s6
    26b8:	03e0c033          	div	zero,ra,t5
    26bc:	40675113          	srai	sp,a4,0x6
    26c0:	88d2                	mv	a7,s4
    26c2:	88d2                	mv	a7,s4
    26c4:	317d                	addiw	sp,sp,-1
    26c6:	02e8b633          	mulhu	a2,a7,a4
    26ca:	9ead                	addw	a3,a3,a1
    26cc:	38057713          	andi	a4,a0,896
    26d0:	0001                	nop
    26d2:	41d98233          	sub	tp,s3,t4
    26d6:	1f7d                	addi	t5,t5,-1
    26d8:	38057713          	andi	a4,a0,896
    26dc:	54f6a993          	slti	s3,a3,1359
    26e0:	0a04                	addi	s1,sp,272
    26e2:	9abbcc93          	xori	s9,s7,-1621
    26e6:	039f7a3b          	remuw	s4,t5,s9
    26ea:	01f099b3          	sll	s3,ra,t6
    26ee:	0001                	nop
    26f0:	6eed                	lui	t4,0x1b
    26f2:	00fed41b          	srliw	s0,t4,0xf
    26f6:	00f48133          	add	sp,s1,a5
    26fa:	6eed                	lui	t4,0x1b
    26fc:	090e                	slli	s2,s2,0x3
    26fe:	8ef1                	and	a3,a3,a2
    2700:	033fd793          	srli	a5,t6,0x33
    2704:	02e8b633          	mulhu	a2,a7,a4
    2708:	03e0c033          	div	zero,ra,t5
    270c:	037f9333          	mulh	t1,t6,s7
    2710:	02e8b633          	mulhu	a2,a7,a4
    2714:	54f6a993          	slti	s3,a3,1359
    2718:	8ec9                	or	a3,a3,a0
    271a:	039f7a3b          	remuw	s4,t5,s9
    271e:	0001                	nop
    2720:	029d29b3          	mulhsu	s3,s10,s1
    2724:	02e189bb          	mulw	s3,gp,a4
    2728:	8439                	srai	s0,s0,0xe
    272a:	02817933          	remu	s2,sp,s0
    272e:	00f31f9b          	slliw	t6,t1,0xf
    2732:	317d                	addiw	sp,sp,-1
    2734:	0a04                	addi	s1,sp,272
    2736:	40675113          	srai	sp,a4,0x6
    273a:	00f48133          	add	sp,s1,a5
    273e:	02f24d3b          	divw	s10,tp,a5
    2742:	00f31f9b          	slliw	t6,t1,0xf
    2746:	808d                	srli	s1,s1,0x3
    2748:	40dad233          	sra	tp,s5,a3
    274c:	51fd                	li	gp,-1
    274e:	090e                	slli	s2,s2,0x3
    2750:	40dad233          	sra	tp,s5,a3
    2754:	03509613          	slli	a2,ra,0x35
    2758:	090e                	slli	s2,s2,0x3
    275a:	00f48133          	add	sp,s1,a5
    275e:	dfa53c93          	sltiu	s9,a0,-518
    2762:	808d                	srli	s1,s1,0x3
    2764:	51fd                	li	gp,-1
    2766:	037f9333          	mulh	t1,t6,s7
    276a:	9ead                	addw	a3,a3,a1
    276c:	317d                	addiw	sp,sp,-1
    276e:	02f24d3b          	divw	s10,tp,a5
    2772:	01a37233          	and	tp,t1,s10
    2776:	717d                	addi	sp,sp,-16
    2778:	01182a33          	slt	s4,a6,a7
    277c:	42686493          	ori	s1,a6,1062
    2780:	961a                	add	a2,a2,t1
    2782:	0398d53b          	divuw	a0,a7,s9
    2786:	8ec9                	or	a3,a3,a0
    2788:	00f31f9b          	slliw	t6,t1,0xf
    278c:	0001                	nop
    278e:	51fd                	li	gp,-1
    2790:	029d29b3          	mulhsu	s3,s10,s1
    2794:	0001                	nop
    2796:	9abbcc93          	xori	s9,s7,-1621
    279a:	090e                	slli	s2,s2,0x3
    279c:	03e0c033          	div	zero,ra,t5
    27a0:	033fd793          	srli	a5,t6,0x33
    27a4:	0313633b          	remw	t1,t1,a7
    27a8:	dfa53c93          	sltiu	s9,a0,-518
    27ac:	01320b3b          	addw	s6,tp,s3
    27b0:	029d29b3          	mulhsu	s3,s10,s1
    27b4:	03509613          	slli	a2,ra,0x35
    27b8:	0313633b          	remw	t1,t1,a7
    27bc:	13ad0213          	addi	tp,s10,314
    27c0:	090e                	slli	s2,s2,0x3
    27c2:	0001                	nop
    27c4:	4048dcbb          	sraw	s9,a7,tp
    27c8:	40dad233          	sra	tp,s5,a3
    27cc:	8439                	srai	s0,s0,0xe
    27ce:	0398d53b          	divuw	a0,a7,s9
    27d2:	02e964b3          	rem	s1,s2,a4
    27d6:	01a3ba33          	sltu	s4,t2,s10
    27da:	9ead                	addw	a3,a3,a1
    27dc:	008643b3          	xor	t2,a2,s0
    27e0:	02817933          	remu	s2,sp,s0
    27e4:	9abbcc93          	xori	s9,s7,-1621
    27e8:	808d                	srli	s1,s1,0x3
    27ea:	e9c89317          	auipc	t1,0xe9c89
    27ee:	8d01                	sub	a0,a0,s0
    27f0:	41d98233          	sub	tp,s3,t4
    27f4:	9c8d                	subw	s1,s1,a1
    27f6:	38057713          	andi	a4,a0,896
    27fa:	02dadfb3          	divu	t6,s5,a3
    27fe:	42686493          	ori	s1,a6,1062
    2802:	88d2                	mv	a7,s4
    2804:	01f099b3          	sll	s3,ra,t6
    2808:	02dadfb3          	divu	t6,s5,a3
    280c:	e9c89317          	auipc	t1,0xe9c89
    2810:	02c78bb3          	mul	s7,a5,a2
    2814:	88d2                	mv	a7,s4
    2816:	037f9333          	mulh	t1,t6,s7
    281a:	51fd                	li	gp,-1
    281c:	00e1d23b          	srlw	tp,gp,a4
    2820:	0313633b          	remw	t1,t1,a7
    2824:	02e189bb          	mulw	s3,gp,a4
    2828:	8439                	srai	s0,s0,0xe
    282a:	9abbcc93          	xori	s9,s7,-1621
    282e:	4048dcbb          	sraw	s9,a7,tp
    2832:	004e5ab3          	srl	s5,t3,tp
    2836:	01182a33          	slt	s4,a6,a7
    283a:	40865a1b          	sraiw	s4,a2,0x8
    283e:	033fd793          	srli	a5,t6,0x33
    2842:	00e1d23b          	srlw	tp,gp,a4
    2846:	00f164b3          	or	s1,sp,a5
    284a:	03e0c033          	div	zero,ra,t5
    284e:	987d                	andi	s0,s0,-1
    2850:	54f6a993          	slti	s3,a3,1359
    2854:	01a3ba33          	sltu	s4,t2,s10
    2858:	4048dcbb          	sraw	s9,a7,tp
    285c:	00f164b3          	or	s1,sp,a5
    2860:	02dadfb3          	divu	t6,s5,a3
    2864:	4048dcbb          	sraw	s9,a7,tp
    2868:	039f7a3b          	remuw	s4,t5,s9
    286c:	00e1d23b          	srlw	tp,gp,a4
    2870:	8ef1                	and	a3,a3,a2
    2872:	01f099b3          	sll	s3,ra,t6
    2876:	54f6a993          	slti	s3,a3,1359
    287a:	01a3ba33          	sltu	s4,t2,s10
    287e:	0001                	nop
    2880:	0398d53b          	divuw	a0,a7,s9
    2884:	41c7043b          	subw	s0,a4,t3
    2888:	5d328737          	lui	a4,0x5d328
    288c:	0313633b          	remw	t1,t1,a7
    2890:	01a37233          	and	tp,t1,s10
    2894:	40865a1b          	sraiw	s4,a2,0x8
    2898:	037f9333          	mulh	t1,t6,s7
    289c:	01f099b3          	sll	s3,ra,t6
    28a0:	02dadfb3          	divu	t6,s5,a3
    28a4:	01f099b3          	sll	s3,ra,t6
    28a8:	00fed41b          	srliw	s0,t4,0xf
    28ac:	9c8d                	subw	s1,s1,a1
    28ae:	02f24d3b          	divw	s10,tp,a5
    28b2:	0313633b          	remw	t1,t1,a7
    28b6:	01320b3b          	addw	s6,tp,s3
    28ba:	004e5ab3          	srl	s5,t3,tp
    28be:	987d                	andi	s0,s0,-1
    28c0:	0313633b          	remw	t1,t1,a7
    28c4:	51fd                	li	gp,-1
    28c6:	13ad0213          	addi	tp,s10,314
    28ca:	8439                	srai	s0,s0,0xe
    28cc:	8ec9                	or	a3,a3,a0
    28ce:	40dad233          	sra	tp,s5,a3
    28d2:	8d3d                	xor	a0,a0,a5
    28d4:	40865a1b          	sraiw	s4,a2,0x8
    28d8:	e0a1059b          	addiw	a1,sp,-502
    28dc:	029d29b3          	mulhsu	s3,s10,s1
    28e0:	00f48133          	add	sp,s1,a5
    28e4:	317d                	addiw	sp,sp,-1
    28e6:	8439                	srai	s0,s0,0xe
    28e8:	e9c89317          	auipc	t1,0xe9c89
    28ec:	e9c89317          	auipc	t1,0xe9c89
    28f0:	317d                	addiw	sp,sp,-1
    28f2:	008643b3          	xor	t2,a2,s0
    28f6:	38057713          	andi	a4,a0,896
    28fa:	e0a1059b          	addiw	a1,sp,-502
    28fe:	dfa53c93          	sltiu	s9,a0,-518
    2902:	03e0c033          	div	zero,ra,t5
    2906:	016a92bb          	sllw	t0,s5,s6
    290a:	02e964b3          	rem	s1,s2,a4
    290e:	e0a1059b          	addiw	a1,sp,-502
    2912:	00fed41b          	srliw	s0,t4,0xf
    2916:	090e                	slli	s2,s2,0x3
    2918:	02c78bb3          	mul	s7,a5,a2
    291c:	090e                	slli	s2,s2,0x3
    291e:	02e189bb          	mulw	s3,gp,a4
    2922:	961a                	add	a2,a2,t1
    2924:	13ad0213          	addi	tp,s10,314
    2928:	9c8d                	subw	s1,s1,a1
    292a:	808d                	srli	s1,s1,0x3
    292c:	88d2                	mv	a7,s4
    292e:	01320b3b          	addw	s6,tp,s3
    2932:	40dad233          	sra	tp,s5,a3
    2936:	0398d53b          	divuw	a0,a7,s9
    293a:	51fd                	li	gp,-1
    293c:	808d                	srli	s1,s1,0x3
    293e:	38057713          	andi	a4,a0,896
    2942:	8ef1                	and	a3,a3,a2
    2944:	40675113          	srai	sp,a4,0x6
    2948:	717d                	addi	sp,sp,-16
    294a:	02817933          	remu	s2,sp,s0
    294e:	717d                	addi	sp,sp,-16
    2950:	02817933          	remu	s2,sp,s0
    2954:	00e1d23b          	srlw	tp,gp,a4
    2958:	1f7d                	addi	t5,t5,-1
    295a:	e9c89317          	auipc	t1,0xe9c89
    295e:	033fd793          	srli	a5,t6,0x33
    2962:	0a04                	addi	s1,sp,272
    2964:	039f7a3b          	remuw	s4,t5,s9
    2968:	40dad233          	sra	tp,s5,a3
    296c:	01320b3b          	addw	s6,tp,s3
    2970:	0001                	nop
    2972:	808d                	srli	s1,s1,0x3
    2974:	40865a1b          	sraiw	s4,a2,0x8
    2978:	40865a1b          	sraiw	s4,a2,0x8
    297c:	dfa53c93          	sltiu	s9,a0,-518
    2980:	008643b3          	xor	t2,a2,s0
    2984:	00fed41b          	srliw	s0,t4,0xf
    2988:	40dad233          	sra	tp,s5,a3
    298c:	8ef1                	and	a3,a3,a2
    298e:	40675113          	srai	sp,a4,0x6
    2992:	51fd                	li	gp,-1
    2994:	961a                	add	a2,a2,t1
    2996:	8d3d                	xor	a0,a0,a5
    2998:	090e                	slli	s2,s2,0x3
    299a:	004e5ab3          	srl	s5,t3,tp
    299e:	40675113          	srai	sp,a4,0x6
    29a2:	02f24d3b          	divw	s10,tp,a5
    29a6:	01a37233          	and	tp,t1,s10
    29aa:	008643b3          	xor	t2,a2,s0
    29ae:	008643b3          	xor	t2,a2,s0
    29b2:	40dad233          	sra	tp,s5,a3
    29b6:	008643b3          	xor	t2,a2,s0
    29ba:	0001                	nop
    29bc:	808d                	srli	s1,s1,0x3
    29be:	41c7043b          	subw	s0,a4,t3
    29c2:	9c8d                	subw	s1,s1,a1
    29c4:	54f6a993          	slti	s3,a3,1359
    29c8:	0313633b          	remw	t1,t1,a7
    29cc:	9ead                	addw	a3,a3,a1
    29ce:	016a92bb          	sllw	t0,s5,s6
    29d2:	0001                	nop
    29d4:	00e1d23b          	srlw	tp,gp,a4
    29d8:	03509613          	slli	a2,ra,0x35
    29dc:	033fd793          	srli	a5,t6,0x33
    29e0:	808d                	srli	s1,s1,0x3
    29e2:	02e189bb          	mulw	s3,gp,a4
    29e6:	9ead                	addw	a3,a3,a1
    29e8:	8ef1                	and	a3,a3,a2
    29ea:	1f7d                	addi	t5,t5,-1
    29ec:	037f9333          	mulh	t1,t6,s7
    29f0:	00fed41b          	srliw	s0,t4,0xf
    29f4:	03e0c033          	div	zero,ra,t5
    29f8:	987d                	andi	s0,s0,-1
    29fa:	00f48133          	add	sp,s1,a5
    29fe:	02817933          	remu	s2,sp,s0
    2a02:	e9c89317          	auipc	t1,0xe9c89
    2a06:	9c8d                	subw	s1,s1,a1
    2a08:	01a3ba33          	sltu	s4,t2,s10
    2a0c:	008643b3          	xor	t2,a2,s0
    2a10:	987d                	andi	s0,s0,-1
    2a12:	029d29b3          	mulhsu	s3,s10,s1
    2a16:	037f9333          	mulh	t1,t6,s7
    2a1a:	9ead                	addw	a3,a3,a1
    2a1c:	e0a1059b          	addiw	a1,sp,-502
    2a20:	02e8b633          	mulhu	a2,a7,a4
    2a24:	40865a1b          	sraiw	s4,a2,0x8
    2a28:	1f7d                	addi	t5,t5,-1
    2a2a:	9c8d                	subw	s1,s1,a1
    2a2c:	01f099b3          	sll	s3,ra,t6
    2a30:	01a37233          	and	tp,t1,s10
    2a34:	808d                	srli	s1,s1,0x3
    2a36:	0398d53b          	divuw	a0,a7,s9
    2a3a:	090e                	slli	s2,s2,0x3
    2a3c:	51fd                	li	gp,-1
    2a3e:	02e189bb          	mulw	s3,gp,a4
    2a42:	717d                	addi	sp,sp,-16
    2a44:	02e189bb          	mulw	s3,gp,a4
    2a48:	008643b3          	xor	t2,a2,s0
    2a4c:	008643b3          	xor	t2,a2,s0
    2a50:	40865a1b          	sraiw	s4,a2,0x8
    2a54:	01f099b3          	sll	s3,ra,t6
    2a58:	00fed41b          	srliw	s0,t4,0xf
    2a5c:	03509613          	slli	a2,ra,0x35
    2a60:	02e189bb          	mulw	s3,gp,a4
    2a64:	00fed41b          	srliw	s0,t4,0xf
    2a68:	004e5ab3          	srl	s5,t3,tp
    2a6c:	41d98233          	sub	tp,s3,t4
    2a70:	38057713          	andi	a4,a0,896
    2a74:	8d01                	sub	a0,a0,s0
    2a76:	00f31f9b          	slliw	t6,t1,0xf
    2a7a:	03e0c033          	div	zero,ra,t5
    2a7e:	0398d53b          	divuw	a0,a7,s9
    2a82:	717d                	addi	sp,sp,-16
    2a84:	090e                	slli	s2,s2,0x3
    2a86:	9abbcc93          	xori	s9,s7,-1621
    2a8a:	00e1d23b          	srlw	tp,gp,a4
    2a8e:	01182a33          	slt	s4,a6,a7
    2a92:	987d                	andi	s0,s0,-1
    2a94:	029d29b3          	mulhsu	s3,s10,s1
    2a98:	e9c89317          	auipc	t1,0xe9c89
    2a9c:	961a                	add	a2,a2,t1
    2a9e:	9c8d                	subw	s1,s1,a1
    2aa0:	033fd793          	srli	a5,t6,0x33
    2aa4:	00e1d23b          	srlw	tp,gp,a4
    2aa8:	54f6a993          	slti	s3,a3,1359
    2aac:	e0a1059b          	addiw	a1,sp,-502
    2ab0:	4048dcbb          	sraw	s9,a7,tp
    2ab4:	6eed                	lui	t4,0x1b
    2ab6:	40675113          	srai	sp,a4,0x6
    2aba:	01a37233          	and	tp,t1,s10
    2abe:	02c78bb3          	mul	s7,a5,a2
    2ac2:	40dad233          	sra	tp,s5,a3
    2ac6:	41c7043b          	subw	s0,a4,t3
    2aca:	03509613          	slli	a2,ra,0x35
    2ace:	961a                	add	a2,a2,t1
    2ad0:	008643b3          	xor	t2,a2,s0
    2ad4:	02817933          	remu	s2,sp,s0
    2ad8:	961a                	add	a2,a2,t1
    2ada:	51fd                	li	gp,-1
    2adc:	0313633b          	remw	t1,t1,a7
    2ae0:	54f6a993          	slti	s3,a3,1359
    2ae4:	01a3ba33          	sltu	s4,t2,s10
    2ae8:	41d98233          	sub	tp,s3,t4
    2aec:	0001                	nop
    2aee:	9abbcc93          	xori	s9,s7,-1621
    2af2:	40dad233          	sra	tp,s5,a3
    2af6:	00f48133          	add	sp,s1,a5
    2afa:	037f9333          	mulh	t1,t6,s7
    2afe:	8439                	srai	s0,s0,0xe
    2b00:	01f099b3          	sll	s3,ra,t6
    2b04:	01a3ba33          	sltu	s4,t2,s10
    2b08:	8d3d                	xor	a0,a0,a5
    2b0a:	01a3ba33          	sltu	s4,t2,s10
    2b0e:	9ead                	addw	a3,a3,a1
    2b10:	037f9333          	mulh	t1,t6,s7
    2b14:	42686493          	ori	s1,a6,1062
    2b18:	41c7043b          	subw	s0,a4,t3
    2b1c:	01320b3b          	addw	s6,tp,s3
    2b20:	41d98233          	sub	tp,s3,t4
    2b24:	0001                	nop
    2b26:	01f099b3          	sll	s3,ra,t6
    2b2a:	808d                	srli	s1,s1,0x3
    2b2c:	02e8b633          	mulhu	a2,a7,a4
    2b30:	03e0c033          	div	zero,ra,t5
    2b34:	00f48133          	add	sp,s1,a5
    2b38:	717d                	addi	sp,sp,-16
    2b3a:	41d98233          	sub	tp,s3,t4
    2b3e:	016a92bb          	sllw	t0,s5,s6
    2b42:	01a3ba33          	sltu	s4,t2,s10
    2b46:	9ead                	addw	a3,a3,a1
    2b48:	0398d53b          	divuw	a0,a7,s9
    2b4c:	01a3ba33          	sltu	s4,t2,s10
    2b50:	0001                	nop
    2b52:	00f48133          	add	sp,s1,a5
    2b56:	88d2                	mv	a7,s4
    2b58:	03509613          	slli	a2,ra,0x35
    2b5c:	54f6a993          	slti	s3,a3,1359
    2b60:	01320b3b          	addw	s6,tp,s3
    2b64:	03e0c033          	div	zero,ra,t5
    2b68:	0001                	nop
    2b6a:	8439                	srai	s0,s0,0xe
    2b6c:	41d98233          	sub	tp,s3,t4
    2b70:	717d                	addi	sp,sp,-16
    2b72:	41d98233          	sub	tp,s3,t4
    2b76:	004e5ab3          	srl	s5,t3,tp
    2b7a:	039f7a3b          	remuw	s4,t5,s9
    2b7e:	0001                	nop
    2b80:	033fd793          	srli	a5,t6,0x33
    2b84:	5d328737          	lui	a4,0x5d328
    2b88:	13ad0213          	addi	tp,s10,314
    2b8c:	54f6a993          	slti	s3,a3,1359
    2b90:	02dadfb3          	divu	t6,s5,a3
    2b94:	51fd                	li	gp,-1
    2b96:	02817933          	remu	s2,sp,s0
    2b9a:	40dad233          	sra	tp,s5,a3
    2b9e:	0001                	nop
    2ba0:	037f9333          	mulh	t1,t6,s7
    2ba4:	717d                	addi	sp,sp,-16
    2ba6:	01182a33          	slt	s4,a6,a7
    2baa:	40675113          	srai	sp,a4,0x6
    2bae:	987d                	andi	s0,s0,-1
    2bb0:	8d3d                	xor	a0,a0,a5
    2bb2:	004e5ab3          	srl	s5,t3,tp
    2bb6:	00f164b3          	or	s1,sp,a5
    2bba:	40dad233          	sra	tp,s5,a3
    2bbe:	1f7d                	addi	t5,t5,-1
    2bc0:	717d                	addi	sp,sp,-16
    2bc2:	00e1d23b          	srlw	tp,gp,a4
    2bc6:	090e                	slli	s2,s2,0x3
    2bc8:	5d328737          	lui	a4,0x5d328
    2bcc:	090e                	slli	s2,s2,0x3
    2bce:	01a37233          	and	tp,t1,s10
    2bd2:	00f31f9b          	slliw	t6,t1,0xf
    2bd6:	090e                	slli	s2,s2,0x3
    2bd8:	029d29b3          	mulhsu	s3,s10,s1
    2bdc:	40dad233          	sra	tp,s5,a3
    2be0:	004e5ab3          	srl	s5,t3,tp
    2be4:	961a                	add	a2,a2,t1
    2be6:	40675113          	srai	sp,a4,0x6
    2bea:	02817933          	remu	s2,sp,s0
    2bee:	00f31f9b          	slliw	t6,t1,0xf
    2bf2:	037f9333          	mulh	t1,t6,s7
    2bf6:	5d328737          	lui	a4,0x5d328
    2bfa:	02e964b3          	rem	s1,s2,a4
    2bfe:	987d                	andi	s0,s0,-1
    2c00:	5d328737          	lui	a4,0x5d328
    2c04:	0a04                	addi	s1,sp,272
    2c06:	51fd                	li	gp,-1
    2c08:	00f164b3          	or	s1,sp,a5
    2c0c:	717d                	addi	sp,sp,-16
    2c0e:	008643b3          	xor	t2,a2,s0
    2c12:	00fed41b          	srliw	s0,t4,0xf
    2c16:	5d328737          	lui	a4,0x5d328
    2c1a:	9c8d                	subw	s1,s1,a1
    2c1c:	02f24d3b          	divw	s10,tp,a5
    2c20:	9c8d                	subw	s1,s1,a1
    2c22:	808d                	srli	s1,s1,0x3
    2c24:	41c7043b          	subw	s0,a4,t3
    2c28:	41d98233          	sub	tp,s3,t4
    2c2c:	02dadfb3          	divu	t6,s5,a3
    2c30:	9ead                	addw	a3,a3,a1
    2c32:	9abbcc93          	xori	s9,s7,-1621
    2c36:	8ec9                	or	a3,a3,a0
    2c38:	02817933          	remu	s2,sp,s0
    2c3c:	03509613          	slli	a2,ra,0x35
    2c40:	02e189bb          	mulw	s3,gp,a4
    2c44:	029d29b3          	mulhsu	s3,s10,s1
    2c48:	01a37233          	and	tp,t1,s10
    2c4c:	40dad233          	sra	tp,s5,a3
    2c50:	01a37233          	and	tp,t1,s10
    2c54:	6eed                	lui	t4,0x1b
    2c56:	961a                	add	a2,a2,t1
    2c58:	5d328737          	lui	a4,0x5d328
    2c5c:	02e8b633          	mulhu	a2,a7,a4
    2c60:	0001                	nop
    2c62:	02c78bb3          	mul	s7,a5,a2
    2c66:	dfa53c93          	sltiu	s9,a0,-518
    2c6a:	8439                	srai	s0,s0,0xe
    2c6c:	01a3ba33          	sltu	s4,t2,s10
    2c70:	9abbcc93          	xori	s9,s7,-1621
    2c74:	54f6a993          	slti	s3,a3,1359
    2c78:	e9c89317          	auipc	t1,0xe9c89
    2c7c:	01a3ba33          	sltu	s4,t2,s10
    2c80:	03509613          	slli	a2,ra,0x35
    2c84:	8439                	srai	s0,s0,0xe
    2c86:	8d3d                	xor	a0,a0,a5
    2c88:	38057713          	andi	a4,a0,896
    2c8c:	13ad0213          	addi	tp,s10,314
    2c90:	00e1d23b          	srlw	tp,gp,a4
    2c94:	38057713          	andi	a4,a0,896
    2c98:	42686493          	ori	s1,a6,1062
    2c9c:	03e0c033          	div	zero,ra,t5
    2ca0:	8d01                	sub	a0,a0,s0
    2ca2:	38057713          	andi	a4,a0,896
    2ca6:	0a04                	addi	s1,sp,272
    2ca8:	40dad233          	sra	tp,s5,a3
    2cac:	01f099b3          	sll	s3,ra,t6
    2cb0:	51fd                	li	gp,-1
    2cb2:	317d                	addiw	sp,sp,-1
    2cb4:	13ad0213          	addi	tp,s10,314
    2cb8:	e9c89317          	auipc	t1,0xe9c89
    2cbc:	88d2                	mv	a7,s4
    2cbe:	e9c89317          	auipc	t1,0xe9c89
    2cc2:	02dadfb3          	divu	t6,s5,a3
    2cc6:	38057713          	andi	a4,a0,896
    2cca:	03509613          	slli	a2,ra,0x35
    2cce:	00f48133          	add	sp,s1,a5
    2cd2:	9abbcc93          	xori	s9,s7,-1621
    2cd6:	01182a33          	slt	s4,a6,a7
    2cda:	dfa53c93          	sltiu	s9,a0,-518
    2cde:	02817933          	remu	s2,sp,s0
    2ce2:	42686493          	ori	s1,a6,1062
    2ce6:	317d                	addiw	sp,sp,-1
    2ce8:	40865a1b          	sraiw	s4,a2,0x8
    2cec:	0a04                	addi	s1,sp,272
    2cee:	037f9333          	mulh	t1,t6,s7
    2cf2:	987d                	andi	s0,s0,-1
    2cf4:	033fd793          	srli	a5,t6,0x33
    2cf8:	5d328737          	lui	a4,0x5d328
    2cfc:	40dad233          	sra	tp,s5,a3
    2d00:	00fed41b          	srliw	s0,t4,0xf
    2d04:	01182a33          	slt	s4,a6,a7
    2d08:	13ad0213          	addi	tp,s10,314
    2d0c:	0001                	nop
    2d0e:	004e5ab3          	srl	s5,t3,tp
    2d12:	dfa53c93          	sltiu	s9,a0,-518
    2d16:	037f9333          	mulh	t1,t6,s7
    2d1a:	03e0c033          	div	zero,ra,t5
    2d1e:	029d29b3          	mulhsu	s3,s10,s1
    2d22:	037f9333          	mulh	t1,t6,s7
    2d26:	41c7043b          	subw	s0,a4,t3
    2d2a:	54f6a993          	slti	s3,a3,1359
    2d2e:	0001                	nop
    2d30:	9ead                	addw	a3,a3,a1
    2d32:	03509613          	slli	a2,ra,0x35
    2d36:	8439                	srai	s0,s0,0xe
    2d38:	54f6a993          	slti	s3,a3,1359
    2d3c:	008643b3          	xor	t2,a2,s0
    2d40:	13ad0213          	addi	tp,s10,314
    2d44:	03e0c033          	div	zero,ra,t5
    2d48:	01f099b3          	sll	s3,ra,t6
    2d4c:	016a92bb          	sllw	t0,s5,s6
    2d50:	01f099b3          	sll	s3,ra,t6
    2d54:	0001                	nop
    2d56:	037f9333          	mulh	t1,t6,s7
    2d5a:	01a37233          	and	tp,t1,s10
    2d5e:	317d                	addiw	sp,sp,-1
    2d60:	9ead                	addw	a3,a3,a1
    2d62:	03e0c033          	div	zero,ra,t5
    2d66:	0001                	nop
    2d68:	00f164b3          	or	s1,sp,a5
    2d6c:	0001                	nop
    2d6e:	4048dcbb          	sraw	s9,a7,tp
    2d72:	8d01                	sub	a0,a0,s0
    2d74:	38057713          	andi	a4,a0,896
    2d78:	033fd793          	srli	a5,t6,0x33
    2d7c:	00f31f9b          	slliw	t6,t1,0xf
    2d80:	008643b3          	xor	t2,a2,s0
    2d84:	02c78bb3          	mul	s7,a5,a2
    2d88:	03509613          	slli	a2,ra,0x35
    2d8c:	004e5ab3          	srl	s5,t3,tp
    2d90:	e9c89317          	auipc	t1,0xe9c89
    2d94:	40675113          	srai	sp,a4,0x6
    2d98:	0398d53b          	divuw	a0,a7,s9
    2d9c:	0a04                	addi	s1,sp,272
    2d9e:	0001                	nop
    2da0:	033fd793          	srli	a5,t6,0x33
    2da4:	317d                	addiw	sp,sp,-1
    2da6:	317d                	addiw	sp,sp,-1
    2da8:	039f7a3b          	remuw	s4,t5,s9
    2dac:	02dadfb3          	divu	t6,s5,a3
    2db0:	9abbcc93          	xori	s9,s7,-1621
    2db4:	02c78bb3          	mul	s7,a5,a2
    2db8:	029d29b3          	mulhsu	s3,s10,s1
    2dbc:	dfa53c93          	sltiu	s9,a0,-518
    2dc0:	54f6a993          	slti	s3,a3,1359
    2dc4:	8ef1                	and	a3,a3,a2
    2dc6:	00f31f9b          	slliw	t6,t1,0xf
    2dca:	01320b3b          	addw	s6,tp,s3
    2dce:	00f164b3          	or	s1,sp,a5
    2dd2:	8d3d                	xor	a0,a0,a5
    2dd4:	1f7d                	addi	t5,t5,-1
    2dd6:	9abbcc93          	xori	s9,s7,-1621
    2dda:	01a3ba33          	sltu	s4,t2,s10
    2dde:	02f24d3b          	divw	s10,tp,a5
    2de2:	0398d53b          	divuw	a0,a7,s9
    2de6:	0a04                	addi	s1,sp,272
    2de8:	8ec9                	or	a3,a3,a0
    2dea:	987d                	andi	s0,s0,-1
    2dec:	01f099b3          	sll	s3,ra,t6
    2df0:	961a                	add	a2,a2,t1
    2df2:	01320b3b          	addw	s6,tp,s3
    2df6:	41d98233          	sub	tp,s3,t4
    2dfa:	01182a33          	slt	s4,a6,a7
    2dfe:	e9c89317          	auipc	t1,0xe9c89
    2e02:	e0a1059b          	addiw	a1,sp,-502
    2e06:	01182a33          	slt	s4,a6,a7
    2e0a:	808d                	srli	s1,s1,0x3
    2e0c:	02dadfb3          	divu	t6,s5,a3
    2e10:	01320b3b          	addw	s6,tp,s3
    2e14:	0001                	nop
    2e16:	8d01                	sub	a0,a0,s0
    2e18:	008643b3          	xor	t2,a2,s0
    2e1c:	1f7d                	addi	t5,t5,-1
    2e1e:	8ec9                	or	a3,a3,a0
    2e20:	e9c89317          	auipc	t1,0xe9c89
    2e24:	00f48133          	add	sp,s1,a5
    2e28:	41d98233          	sub	tp,s3,t4
    2e2c:	0a04                	addi	s1,sp,272
    2e2e:	02e189bb          	mulw	s3,gp,a4
    2e32:	4048dcbb          	sraw	s9,a7,tp
    2e36:	13ad0213          	addi	tp,s10,314
    2e3a:	02f24d3b          	divw	s10,tp,a5
    2e3e:	0001                	nop
    2e40:	00e1d23b          	srlw	tp,gp,a4
    2e44:	029d29b3          	mulhsu	s3,s10,s1
    2e48:	016a92bb          	sllw	t0,s5,s6
    2e4c:	00fed41b          	srliw	s0,t4,0xf
    2e50:	961a                	add	a2,a2,t1
    2e52:	40675113          	srai	sp,a4,0x6
    2e56:	e0a1059b          	addiw	a1,sp,-502
    2e5a:	13ad0213          	addi	tp,s10,314
    2e5e:	0313633b          	remw	t1,t1,a7
    2e62:	6eed                	lui	t4,0x1b
    2e64:	00e1d23b          	srlw	tp,gp,a4
    2e68:	40865a1b          	sraiw	s4,a2,0x8
    2e6c:	02c78bb3          	mul	s7,a5,a2
    2e70:	317d                	addiw	sp,sp,-1
    2e72:	40675113          	srai	sp,a4,0x6
    2e76:	42686493          	ori	s1,a6,1062
    2e7a:	0001                	nop
    2e7c:	037f9333          	mulh	t1,t6,s7
    2e80:	008643b3          	xor	t2,a2,s0
    2e84:	8ec9                	or	a3,a3,a0
    2e86:	6eed                	lui	t4,0x1b
    2e88:	02817933          	remu	s2,sp,s0
    2e8c:	8ef1                	and	a3,a3,a2
    2e8e:	02817933          	remu	s2,sp,s0
    2e92:	016a92bb          	sllw	t0,s5,s6
    2e96:	033fd793          	srli	a5,t6,0x33
    2e9a:	02e964b3          	rem	s1,s2,a4
    2e9e:	41c7043b          	subw	s0,a4,t3
    2ea2:	9c8d                	subw	s1,s1,a1
    2ea4:	51fd                	li	gp,-1
    2ea6:	00f48133          	add	sp,s1,a5
    2eaa:	0398d53b          	divuw	a0,a7,s9
    2eae:	00fed41b          	srliw	s0,t4,0xf
    2eb2:	0398d53b          	divuw	a0,a7,s9
    2eb6:	00f48133          	add	sp,s1,a5
    2eba:	40865a1b          	sraiw	s4,a2,0x8
    2ebe:	e9c89317          	auipc	t1,0xe9c89
    2ec2:	03509613          	slli	a2,ra,0x35
    2ec6:	8439                	srai	s0,s0,0xe
    2ec8:	40dad233          	sra	tp,s5,a3
    2ecc:	54f6a993          	slti	s3,a3,1359
    2ed0:	8ec9                	or	a3,a3,a0
    2ed2:	9abbcc93          	xori	s9,s7,-1621
    2ed6:	037f9333          	mulh	t1,t6,s7
    2eda:	02dadfb3          	divu	t6,s5,a3
    2ede:	8d01                	sub	a0,a0,s0
    2ee0:	01a37233          	and	tp,t1,s10
    2ee4:	4048dcbb          	sraw	s9,a7,tp
    2ee8:	00f164b3          	or	s1,sp,a5
    2eec:	9c8d                	subw	s1,s1,a1
    2eee:	03e0c033          	div	zero,ra,t5
    2ef2:	01a37233          	and	tp,t1,s10
    2ef6:	01a3ba33          	sltu	s4,t2,s10
    2efa:	54f6a993          	slti	s3,a3,1359
    2efe:	0313633b          	remw	t1,t1,a7
    2f02:	e0a1059b          	addiw	a1,sp,-502
    2f06:	8d01                	sub	a0,a0,s0
    2f08:	9c8d                	subw	s1,s1,a1
    2f0a:	51fd                	li	gp,-1
    2f0c:	01f099b3          	sll	s3,ra,t6
    2f10:	037f9333          	mulh	t1,t6,s7
    2f14:	01320b3b          	addw	s6,tp,s3
    2f18:	02e964b3          	rem	s1,s2,a4
    2f1c:	317d                	addiw	sp,sp,-1
    2f1e:	0001                	nop
    2f20:	033fd793          	srli	a5,t6,0x33
    2f24:	01f099b3          	sll	s3,ra,t6
    2f28:	4048dcbb          	sraw	s9,a7,tp
    2f2c:	03e0c033          	div	zero,ra,t5
    2f30:	02e189bb          	mulw	s3,gp,a4
    2f34:	01a3ba33          	sltu	s4,t2,s10
    2f38:	40865a1b          	sraiw	s4,a2,0x8
    2f3c:	00f31f9b          	slliw	t6,t1,0xf
    2f40:	01a3ba33          	sltu	s4,t2,s10
    2f44:	0001                	nop
    2f46:	e9c89317          	auipc	t1,0xe9c89
    2f4a:	1f7d                	addi	t5,t5,-1
    2f4c:	01182a33          	slt	s4,a6,a7
    2f50:	51fd                	li	gp,-1
    2f52:	54f6a993          	slti	s3,a3,1359
    2f56:	016a92bb          	sllw	t0,s5,s6
    2f5a:	0001                	nop
    2f5c:	40865a1b          	sraiw	s4,a2,0x8
    2f60:	016a92bb          	sllw	t0,s5,s6
    2f64:	01a3ba33          	sltu	s4,t2,s10
    2f68:	9c8d                	subw	s1,s1,a1
    2f6a:	9abbcc93          	xori	s9,s7,-1621
    2f6e:	4048dcbb          	sraw	s9,a7,tp
    2f72:	01a3ba33          	sltu	s4,t2,s10
    2f76:	40dad233          	sra	tp,s5,a3
    2f7a:	e9c89317          	auipc	t1,0xe9c89
    2f7e:	e0a1059b          	addiw	a1,sp,-502
    2f82:	4d81                	li	s11,0
    2f84:	4701                	li	a4,0
    2f86:	fff00b1b          	addiw	s6,zero,-1
    2f8a:	1b7e                	slli	s6,s6,0x3f
    2f8c:	fff0031b          	addiw	t1,zero,-1
    2f90:	137e                	slli	t1,t1,0x3f
    2f92:	00a384b7          	lui	s1,0xa38
    2f96:	2274849b          	addiw	s1,s1,551
    2f9a:	04ba                	slli	s1,s1,0xe
    2f9c:	31b48493          	addi	s1,s1,795 # a3831b <_end+0xa1861b>
    2fa0:	04b2                	slli	s1,s1,0xc
    2fa2:	bf948493          	addi	s1,s1,-1031
    2fa6:	04b2                	slli	s1,s1,0xc
    2fa8:	ad248493          	addi	s1,s1,-1326
    2fac:	fff00a9b          	addiw	s5,zero,-1
    2fb0:	1afe                	slli	s5,s5,0x3f
    2fb2:	ff119d37          	lui	s10,0xff119
    2fb6:	393d0d1b          	addiw	s10,s10,915
    2fba:	0d36                	slli	s10,s10,0xd
    2fbc:	afdd0d13          	addi	s10,s10,-1283 # ffffffffff118afd <_end+0xffffffffff0f8dfd>
    2fc0:	0d32                	slli	s10,s10,0xc
    2fc2:	f43d0d13          	addi	s10,s10,-189
    2fc6:	0d32                	slli	s10,s10,0xc
    2fc8:	9f9d0d13          	addi	s10,s10,-1543
    2fcc:	fff0069b          	addiw	a3,zero,-1
    2fd0:	16fe                	slli	a3,a3,0x3f
    2fd2:	031f1137          	lui	sp,0x31f1
    2fd6:	57b1011b          	addiw	sp,sp,1403
    2fda:	0136                	slli	sp,sp,0xd
    2fdc:	64f10113          	addi	sp,sp,1615 # 31f164f <_end+0x31d194f>
    2fe0:	0132                	slli	sp,sp,0xc
    2fe2:	65110113          	addi	sp,sp,1617
    2fe6:	0132                	slli	sp,sp,0xc
    2fe8:	9b210113          	addi	sp,sp,-1614
    2fec:	00c28637          	lui	a2,0xc28
    2ff0:	95d6061b          	addiw	a2,a2,-1699
    2ff4:	0632                	slli	a2,a2,0xc
    2ff6:	1b960613          	addi	a2,a2,441 # c281b9 <_end+0xc084b9>
    2ffa:	0636                	slli	a2,a2,0xd
    2ffc:	3b560613          	addi	a2,a2,949
    3000:	063a                	slli	a2,a2,0xe
    3002:	e3860613          	addi	a2,a2,-456
    3006:	02671733          	mulh	a4,a4,t1
    300a:	02e75db3          	divu	s11,a4,a4
    300e:	0001                	nop
    3010:	02671733          	mulh	a4,a4,t1
    3014:	015d013b          	addw	sp,s10,s5
    3018:	0353533b          	divuw	t1,t1,s5
    301c:	02e75db3          	divu	s11,a4,a4
    3020:	029674bb          	remuw	s1,a2,s1
    3024:	02c16b33          	rem	s6,sp,a2
    3028:	40e104bb          	subw	s1,sp,a4
    302c:	026d833b          	mulw	t1,s11,t1
    3030:	e0ad0d1b          	addiw	s10,s10,-502
    3034:	0001                	nop
    3036:	0001                	nop
    3038:	03a37133          	remu	sp,t1,s10
    303c:	02ea8333          	mul	t1,s5,a4
    3040:	03a37133          	remu	sp,t1,s10
    3044:	e9c89317          	auipc	t1,0xe9c89
    3048:	e9c89317          	auipc	t1,0xe9c89
    304c:	02c16b33          	rem	s6,sp,a2
    3050:	02671733          	mulh	a4,a4,t1
    3054:	0353533b          	divuw	t1,t1,s5
    3058:	026d833b          	mulw	t1,s11,t1
    305c:	016a92bb          	sllw	t0,s5,s6
    3060:	8d01                	sub	a0,a0,s0
    3062:	01f099b3          	sll	s3,ra,t6
    3066:	8d01                	sub	a0,a0,s0
    3068:	5d328737          	lui	a4,0x5d328
    306c:	0a04                	addi	s1,sp,272
    306e:	e0a1059b          	addiw	a1,sp,-502
    3072:	01a37233          	and	tp,t1,s10
    3076:	13ad0213          	addi	tp,s10,314
    307a:	03509613          	slli	a2,ra,0x35
    307e:	40675113          	srai	sp,a4,0x6
    3082:	40675113          	srai	sp,a4,0x6
    3086:	00f31f9b          	slliw	t6,t1,0xf
    308a:	0398d53b          	divuw	a0,a7,s9
    308e:	00f164b3          	or	s1,sp,a5
    3092:	02e189bb          	mulw	s3,gp,a4
    3096:	40675113          	srai	sp,a4,0x6
    309a:	41d98233          	sub	tp,s3,t4
    309e:	03e0c033          	div	zero,ra,t5
    30a2:	317d                	addiw	sp,sp,-1
    30a4:	0001                	nop
    30a6:	9c8d                	subw	s1,s1,a1
    30a8:	00e1d23b          	srlw	tp,gp,a4
    30ac:	02dadfb3          	divu	t6,s5,a3
    30b0:	9ead                	addw	a3,a3,a1
    30b2:	02817933          	remu	s2,sp,s0
    30b6:	01a37233          	and	tp,t1,s10
    30ba:	03509613          	slli	a2,ra,0x35
    30be:	8439                	srai	s0,s0,0xe
    30c0:	6eed                	lui	t4,0x1b
    30c2:	02f24d3b          	divw	s10,tp,a5
    30c6:	717d                	addi	sp,sp,-16
    30c8:	e9c89317          	auipc	t1,0xe9c89
    30cc:	1f7d                	addi	t5,t5,-1
    30ce:	13ad0213          	addi	tp,s10,314
    30d2:	54f6a993          	slti	s3,a3,1359
    30d6:	8d01                	sub	a0,a0,s0
    30d8:	0001                	nop
    30da:	8d3d                	xor	a0,a0,a5
    30dc:	00f164b3          	or	s1,sp,a5
    30e0:	dfa53c93          	sltiu	s9,a0,-518
    30e4:	13ad0213          	addi	tp,s10,314
    30e8:	02817933          	remu	s2,sp,s0
    30ec:	02dadfb3          	divu	t6,s5,a3
    30f0:	40dad233          	sra	tp,s5,a3
    30f4:	40675113          	srai	sp,a4,0x6
    30f8:	e0a1059b          	addiw	a1,sp,-502
    30fc:	51fd                	li	gp,-1
    30fe:	008643b3          	xor	t2,a2,s0
    3102:	e9c89317          	auipc	t1,0xe9c89
    3106:	0001                	nop
    3108:	40865a1b          	sraiw	s4,a2,0x8
    310c:	0313633b          	remw	t1,t1,a7
    3110:	717d                	addi	sp,sp,-16
    3112:	51fd                	li	gp,-1
    3114:	e9c89317          	auipc	t1,0xe9c89
    3118:	02dadfb3          	divu	t6,s5,a3
    311c:	88d2                	mv	a7,s4
    311e:	8d3d                	xor	a0,a0,a5
    3120:	51fd                	li	gp,-1
    3122:	0398d53b          	divuw	a0,a7,s9
    3126:	40dad233          	sra	tp,s5,a3
    312a:	02dadfb3          	divu	t6,s5,a3
    312e:	01182a33          	slt	s4,a6,a7
    3132:	9abbcc93          	xori	s9,s7,-1621
    3136:	01182a33          	slt	s4,a6,a7
    313a:	8439                	srai	s0,s0,0xe
    313c:	016a92bb          	sllw	t0,s5,s6
    3140:	016a92bb          	sllw	t0,s5,s6
    3144:	5d328737          	lui	a4,0x5d328
    3148:	090e                	slli	s2,s2,0x3
    314a:	317d                	addiw	sp,sp,-1
    314c:	717d                	addi	sp,sp,-16
    314e:	987d                	andi	s0,s0,-1
    3150:	029d29b3          	mulhsu	s3,s10,s1
    3154:	8ec9                	or	a3,a3,a0
    3156:	4048dcbb          	sraw	s9,a7,tp
    315a:	e9c89317          	auipc	t1,0xe9c89
    315e:	02f24d3b          	divw	s10,tp,a5
    3162:	0001                	nop
    3164:	40865a1b          	sraiw	s4,a2,0x8
    3168:	02e189bb          	mulw	s3,gp,a4
    316c:	e0a1059b          	addiw	a1,sp,-502
    3170:	38057713          	andi	a4,a0,896
    3174:	008643b3          	xor	t2,a2,s0
    3178:	0a04                	addi	s1,sp,272
    317a:	51fd                	li	gp,-1
    317c:	02c78bb3          	mul	s7,a5,a2
    3180:	00f31f9b          	slliw	t6,t1,0xf
    3184:	40dad233          	sra	tp,s5,a3
    3188:	01a3ba33          	sltu	s4,t2,s10
    318c:	717d                	addi	sp,sp,-16
    318e:	8ec9                	or	a3,a3,a0
    3190:	03509613          	slli	a2,ra,0x35
    3194:	00e1d23b          	srlw	tp,gp,a4
    3198:	808d                	srli	s1,s1,0x3
    319a:	987d                	andi	s0,s0,-1
    319c:	02dadfb3          	divu	t6,s5,a3
    31a0:	01a3ba33          	sltu	s4,t2,s10
    31a4:	54f6a993          	slti	s3,a3,1359
    31a8:	008643b3          	xor	t2,a2,s0
    31ac:	51fd                	li	gp,-1
    31ae:	88d2                	mv	a7,s4
    31b0:	40865a1b          	sraiw	s4,a2,0x8
    31b4:	02e8b633          	mulhu	a2,a7,a4
    31b8:	02f24d3b          	divw	s10,tp,a5
    31bc:	8d3d                	xor	a0,a0,a5
    31be:	40865a1b          	sraiw	s4,a2,0x8
    31c2:	0398d53b          	divuw	a0,a7,s9
    31c6:	9abbcc93          	xori	s9,s7,-1621
    31ca:	38057713          	andi	a4,a0,896
    31ce:	8439                	srai	s0,s0,0xe
    31d0:	01f099b3          	sll	s3,ra,t6
    31d4:	01320b3b          	addw	s6,tp,s3
    31d8:	00e1d23b          	srlw	tp,gp,a4
    31dc:	02e8b633          	mulhu	a2,a7,a4
    31e0:	02dadfb3          	divu	t6,s5,a3
    31e4:	e9c89317          	auipc	t1,0xe9c89
    31e8:	00f48133          	add	sp,s1,a5
    31ec:	5d328737          	lui	a4,0x5d328
    31f0:	54f6a993          	slti	s3,a3,1359
    31f4:	13ad0213          	addi	tp,s10,314
    31f8:	e9c89317          	auipc	t1,0xe9c89
    31fc:	0001                	nop
    31fe:	6eed                	lui	t4,0x1b
    3200:	01f099b3          	sll	s3,ra,t6
    3204:	01a37233          	and	tp,t1,s10
    3208:	8ec9                	or	a3,a3,a0
    320a:	6eed                	lui	t4,0x1b
    320c:	01320b3b          	addw	s6,tp,s3
    3210:	317d                	addiw	sp,sp,-1
    3212:	54f6a993          	slti	s3,a3,1359
    3216:	008643b3          	xor	t2,a2,s0
    321a:	0398d53b          	divuw	a0,a7,s9
    321e:	029d29b3          	mulhsu	s3,s10,s1
    3222:	961a                	add	a2,a2,t1
    3224:	02c78bb3          	mul	s7,a5,a2
    3228:	8d01                	sub	a0,a0,s0
    322a:	808d                	srli	s1,s1,0x3
    322c:	0001                	nop
    322e:	00e1d23b          	srlw	tp,gp,a4
    3232:	5d328737          	lui	a4,0x5d328
    3236:	88d2                	mv	a7,s4
    3238:	8d3d                	xor	a0,a0,a5
    323a:	0001                	nop
    323c:	016a92bb          	sllw	t0,s5,s6
    3240:	0001                	nop
    3242:	02e189bb          	mulw	s3,gp,a4
    3246:	029d29b3          	mulhsu	s3,s10,s1
    324a:	e9c89317          	auipc	t1,0xe9c89
    324e:	0001                	nop
    3250:	51fd                	li	gp,-1
    3252:	01f099b3          	sll	s3,ra,t6
    3256:	01a37233          	and	tp,t1,s10
    325a:	00f164b3          	or	s1,sp,a5
    325e:	02817933          	remu	s2,sp,s0
    3262:	9abbcc93          	xori	s9,s7,-1621
    3266:	008643b3          	xor	t2,a2,s0
    326a:	6eed                	lui	t4,0x1b
    326c:	9c8d                	subw	s1,s1,a1
    326e:	090e                	slli	s2,s2,0x3
    3270:	03509613          	slli	a2,ra,0x35
    3274:	41c7043b          	subw	s0,a4,t3
    3278:	9ead                	addw	a3,a3,a1
    327a:	00f48133          	add	sp,s1,a5
    327e:	039f7a3b          	remuw	s4,t5,s9
    3282:	02dadfb3          	divu	t6,s5,a3
    3286:	40675113          	srai	sp,a4,0x6
    328a:	717d                	addi	sp,sp,-16
    328c:	004e5ab3          	srl	s5,t3,tp
    3290:	029d29b3          	mulhsu	s3,s10,s1
    3294:	13ad0213          	addi	tp,s10,314
    3298:	41d98233          	sub	tp,s3,t4
    329c:	e9c89317          	auipc	t1,0xe9c89
    32a0:	4048dcbb          	sraw	s9,a7,tp
    32a4:	40675113          	srai	sp,a4,0x6
    32a8:	5d328737          	lui	a4,0x5d328
    32ac:	01a37233          	and	tp,t1,s10
    32b0:	40865a1b          	sraiw	s4,a2,0x8
    32b4:	88d2                	mv	a7,s4
    32b6:	008643b3          	xor	t2,a2,s0
    32ba:	090e                	slli	s2,s2,0x3
    32bc:	00e1d23b          	srlw	tp,gp,a4
    32c0:	004e5ab3          	srl	s5,t3,tp
    32c4:	41c7043b          	subw	s0,a4,t3
    32c8:	0398d53b          	divuw	a0,a7,s9
    32cc:	987d                	andi	s0,s0,-1
    32ce:	0398d53b          	divuw	a0,a7,s9
    32d2:	02e189bb          	mulw	s3,gp,a4
    32d6:	01182a33          	slt	s4,a6,a7
    32da:	6eed                	lui	t4,0x1b
    32dc:	02c78bb3          	mul	s7,a5,a2
    32e0:	9c8d                	subw	s1,s1,a1
    32e2:	03e0c033          	div	zero,ra,t5
    32e6:	6eed                	lui	t4,0x1b
    32e8:	033fd793          	srli	a5,t6,0x33
    32ec:	41d98233          	sub	tp,s3,t4
    32f0:	0001                	nop
    32f2:	8ef1                	and	a3,a3,a2
    32f4:	9abbcc93          	xori	s9,s7,-1621
    32f8:	03e0c033          	div	zero,ra,t5
    32fc:	02c78bb3          	mul	s7,a5,a2
    3300:	e0a1059b          	addiw	a1,sp,-502
    3304:	02e964b3          	rem	s1,s2,a4
    3308:	01f099b3          	sll	s3,ra,t6
    330c:	02e964b3          	rem	s1,s2,a4
    3310:	02817933          	remu	s2,sp,s0
    3314:	090e                	slli	s2,s2,0x3
    3316:	9ead                	addw	a3,a3,a1
    3318:	02c78bb3          	mul	s7,a5,a2
    331c:	317d                	addiw	sp,sp,-1
    331e:	6eed                	lui	t4,0x1b
    3320:	54f6a993          	slti	s3,a3,1359
    3324:	0001                	nop
    3326:	51fd                	li	gp,-1
    3328:	e9c89317          	auipc	t1,0xe9c89
    332c:	1f7d                	addi	t5,t5,-1
    332e:	9abbcc93          	xori	s9,s7,-1621
    3332:	02f24d3b          	divw	s10,tp,a5
    3336:	02817933          	remu	s2,sp,s0
    333a:	38057713          	andi	a4,a0,896
    333e:	00f31f9b          	slliw	t6,t1,0xf
    3342:	dfa53c93          	sltiu	s9,a0,-518
    3346:	00f48133          	add	sp,s1,a5
    334a:	41d98233          	sub	tp,s3,t4
    334e:	029d29b3          	mulhsu	s3,s10,s1
    3352:	01f099b3          	sll	s3,ra,t6
    3356:	029d29b3          	mulhsu	s3,s10,s1
    335a:	033fd793          	srli	a5,t6,0x33
    335e:	039f7a3b          	remuw	s4,t5,s9
    3362:	004e5ab3          	srl	s5,t3,tp
    3366:	01320b3b          	addw	s6,tp,s3
    336a:	9c8d                	subw	s1,s1,a1
    336c:	004e5ab3          	srl	s5,t3,tp
    3370:	008643b3          	xor	t2,a2,s0
    3374:	008643b3          	xor	t2,a2,s0
    3378:	039f7a3b          	remuw	s4,t5,s9
    337c:	02e964b3          	rem	s1,s2,a4
    3380:	1f7d                	addi	t5,t5,-1
    3382:	00f31f9b          	slliw	t6,t1,0xf
    3386:	03e0c033          	div	zero,ra,t5
    338a:	808d                	srli	s1,s1,0x3
    338c:	090e                	slli	s2,s2,0x3
    338e:	033fd793          	srli	a5,t6,0x33
    3392:	42686493          	ori	s1,a6,1062
    3396:	039f7a3b          	remuw	s4,t5,s9
    339a:	090e                	slli	s2,s2,0x3
    339c:	0001                	nop
    339e:	00f48133          	add	sp,s1,a5
    33a2:	029d29b3          	mulhsu	s3,s10,s1
    33a6:	9ead                	addw	a3,a3,a1
    33a8:	54f6a993          	slti	s3,a3,1359
    33ac:	54f6a993          	slti	s3,a3,1359
    33b0:	00f164b3          	or	s1,sp,a5
    33b4:	9c8d                	subw	s1,s1,a1
    33b6:	5d328737          	lui	a4,0x5d328
    33ba:	40675113          	srai	sp,a4,0x6
    33be:	039f7a3b          	remuw	s4,t5,s9
    33c2:	8ef1                	and	a3,a3,a2
    33c4:	02dadfb3          	divu	t6,s5,a3
    33c8:	41c7043b          	subw	s0,a4,t3
    33cc:	9c8d                	subw	s1,s1,a1
    33ce:	54f6a993          	slti	s3,a3,1359
    33d2:	01a3ba33          	sltu	s4,t2,s10
    33d6:	9abbcc93          	xori	s9,s7,-1621
    33da:	8d3d                	xor	a0,a0,a5
    33dc:	029d29b3          	mulhsu	s3,s10,s1
    33e0:	40dad233          	sra	tp,s5,a3
    33e4:	00f164b3          	or	s1,sp,a5
    33e8:	008643b3          	xor	t2,a2,s0
    33ec:	0001                	nop
    33ee:	00f48133          	add	sp,s1,a5
    33f2:	13ad0213          	addi	tp,s10,314
    33f6:	01f099b3          	sll	s3,ra,t6
    33fa:	0001                	nop
    33fc:	03e0c033          	div	zero,ra,t5
    3400:	01320b3b          	addw	s6,tp,s3
    3404:	00f31f9b          	slliw	t6,t1,0xf
    3408:	016a92bb          	sllw	t0,s5,s6
    340c:	e9c89317          	auipc	t1,0xe9c89
    3410:	9ead                	addw	a3,a3,a1
    3412:	01a37233          	and	tp,t1,s10
    3416:	008643b3          	xor	t2,a2,s0
    341a:	1f7d                	addi	t5,t5,-1
    341c:	03509613          	slli	a2,ra,0x35
    3420:	008643b3          	xor	t2,a2,s0
    3424:	40dad233          	sra	tp,s5,a3
    3428:	38057713          	andi	a4,a0,896
    342c:	40dad233          	sra	tp,s5,a3
    3430:	0398d53b          	divuw	a0,a7,s9
    3434:	03e0c033          	div	zero,ra,t5
    3438:	9abbcc93          	xori	s9,s7,-1621
    343c:	01f099b3          	sll	s3,ra,t6
    3440:	1f7d                	addi	t5,t5,-1
    3442:	88d2                	mv	a7,s4
    3444:	961a                	add	a2,a2,t1
    3446:	961a                	add	a2,a2,t1
    3448:	02e189bb          	mulw	s3,gp,a4
    344c:	41d98233          	sub	tp,s3,t4
    3450:	38057713          	andi	a4,a0,896
    3454:	00e1d23b          	srlw	tp,gp,a4
    3458:	41d98233          	sub	tp,s3,t4
    345c:	40dad233          	sra	tp,s5,a3
    3460:	02dadfb3          	divu	t6,s5,a3
    3464:	039f7a3b          	remuw	s4,t5,s9
    3468:	01320b3b          	addw	s6,tp,s3
    346c:	02e189bb          	mulw	s3,gp,a4
    3470:	02dadfb3          	divu	t6,s5,a3
    3474:	0001                	nop
    3476:	016a92bb          	sllw	t0,s5,s6
    347a:	02f24d3b          	divw	s10,tp,a5
    347e:	02c78bb3          	mul	s7,a5,a2
    3482:	00fed41b          	srliw	s0,t4,0xf
    3486:	987d                	andi	s0,s0,-1
    3488:	987d                	andi	s0,s0,-1
    348a:	004e5ab3          	srl	s5,t3,tp
    348e:	40dad233          	sra	tp,s5,a3
    3492:	88d2                	mv	a7,s4
    3494:	016a92bb          	sllw	t0,s5,s6
    3498:	6eed                	lui	t4,0x1b
    349a:	41c7043b          	subw	s0,a4,t3
    349e:	8ec9                	or	a3,a3,a0
    34a0:	0a04                	addi	s1,sp,272
    34a2:	00f31f9b          	slliw	t6,t1,0xf
    34a6:	51fd                	li	gp,-1
    34a8:	317d                	addiw	sp,sp,-1
    34aa:	02dadfb3          	divu	t6,s5,a3
    34ae:	00f48133          	add	sp,s1,a5
    34b2:	01320b3b          	addw	s6,tp,s3
    34b6:	029d29b3          	mulhsu	s3,s10,s1
    34ba:	317d                	addiw	sp,sp,-1
    34bc:	8d01                	sub	a0,a0,s0
    34be:	41c7043b          	subw	s0,a4,t3
    34c2:	02817933          	remu	s2,sp,s0
    34c6:	8d01                	sub	a0,a0,s0
    34c8:	40dad233          	sra	tp,s5,a3
    34cc:	e9c89317          	auipc	t1,0xe9c89
    34d0:	00f48133          	add	sp,s1,a5
    34d4:	02e964b3          	rem	s1,s2,a4
    34d8:	961a                	add	a2,a2,t1
    34da:	8439                	srai	s0,s0,0xe
    34dc:	13ad0213          	addi	tp,s10,314
    34e0:	029d29b3          	mulhsu	s3,s10,s1
    34e4:	717d                	addi	sp,sp,-16
    34e6:	0313633b          	remw	t1,t1,a7
    34ea:	40dad233          	sra	tp,s5,a3
    34ee:	01182a33          	slt	s4,a6,a7
    34f2:	54f6a993          	slti	s3,a3,1359
    34f6:	037f9333          	mulh	t1,t6,s7
    34fa:	033fd793          	srli	a5,t6,0x33
    34fe:	033fd793          	srli	a5,t6,0x33
    3502:	02c78bb3          	mul	s7,a5,a2
    3506:	1f7d                	addi	t5,t5,-1
    3508:	03e0c033          	div	zero,ra,t5
    350c:	717d                	addi	sp,sp,-16
    350e:	01a3ba33          	sltu	s4,t2,s10
    3512:	029d29b3          	mulhsu	s3,s10,s1
    3516:	9ead                	addw	a3,a3,a1
    3518:	5d328737          	lui	a4,0x5d328
    351c:	02e964b3          	rem	s1,s2,a4
    3520:	0398d53b          	divuw	a0,a7,s9
    3524:	5d328737          	lui	a4,0x5d328
    3528:	0001                	nop
    352a:	5d328737          	lui	a4,0x5d328
    352e:	808d                	srli	s1,s1,0x3
    3530:	987d                	andi	s0,s0,-1
    3532:	717d                	addi	sp,sp,-16
    3534:	dfa53c93          	sltiu	s9,a0,-518
    3538:	51fd                	li	gp,-1
    353a:	8ec9                	or	a3,a3,a0
    353c:	38057713          	andi	a4,a0,896
    3540:	00f164b3          	or	s1,sp,a5
    3544:	037f9333          	mulh	t1,t6,s7
    3548:	00fed41b          	srliw	s0,t4,0xf
    354c:	8ef1                	and	a3,a3,a2
    354e:	0001                	nop
    3550:	40675113          	srai	sp,a4,0x6
    3554:	01f099b3          	sll	s3,ra,t6
    3558:	e9c89317          	auipc	t1,0xe9c89
    355c:	01a37233          	and	tp,t1,s10
    3560:	8d3d                	xor	a0,a0,a5
    3562:	02f24d3b          	divw	s10,tp,a5
    3566:	01a37233          	and	tp,t1,s10
    356a:	039f7a3b          	remuw	s4,t5,s9
    356e:	0001                	nop
    3570:	41c7043b          	subw	s0,a4,t3
    3574:	717d                	addi	sp,sp,-16
    3576:	00f31f9b          	slliw	t6,t1,0xf
    357a:	02817933          	remu	s2,sp,s0
    357e:	41d98233          	sub	tp,s3,t4
    3582:	41d98233          	sub	tp,s3,t4
    3586:	317d                	addiw	sp,sp,-1
    3588:	6eed                	lui	t4,0x1b
    358a:	0001                	nop
    358c:	41c7043b          	subw	s0,a4,t3
    3590:	00e1d23b          	srlw	tp,gp,a4
    3594:	808d                	srli	s1,s1,0x3
    3596:	e9c89317          	auipc	t1,0xe9c89
    359a:	00fed41b          	srliw	s0,t4,0xf
    359e:	717d                	addi	sp,sp,-16
    35a0:	317d                	addiw	sp,sp,-1
    35a2:	01f099b3          	sll	s3,ra,t6
    35a6:	317d                	addiw	sp,sp,-1
    35a8:	e0a1059b          	addiw	a1,sp,-502
    35ac:	987d                	andi	s0,s0,-1
    35ae:	00f48133          	add	sp,s1,a5
    35b2:	13ad0213          	addi	tp,s10,314
    35b6:	029d29b3          	mulhsu	s3,s10,s1
    35ba:	008643b3          	xor	t2,a2,s0
    35be:	02817933          	remu	s2,sp,s0
    35c2:	00f164b3          	or	s1,sp,a5
    35c6:	02e189bb          	mulw	s3,gp,a4
    35ca:	00f164b3          	or	s1,sp,a5
    35ce:	8d01                	sub	a0,a0,s0
    35d0:	9abbcc93          	xori	s9,s7,-1621
    35d4:	008643b3          	xor	t2,a2,s0
    35d8:	00f164b3          	or	s1,sp,a5
    35dc:	004e5ab3          	srl	s5,t3,tp
    35e0:	9c8d                	subw	s1,s1,a1
    35e2:	03509613          	slli	a2,ra,0x35
    35e6:	dfa53c93          	sltiu	s9,a0,-518
    35ea:	01a3ba33          	sltu	s4,t2,s10
    35ee:	317d                	addiw	sp,sp,-1
    35f0:	9abbcc93          	xori	s9,s7,-1621
    35f4:	40865a1b          	sraiw	s4,a2,0x8
    35f8:	02dadfb3          	divu	t6,s5,a3
    35fc:	5d328737          	lui	a4,0x5d328
    3600:	40dad233          	sra	tp,s5,a3
    3604:	6eed                	lui	t4,0x1b
    3606:	4048dcbb          	sraw	s9,a7,tp
    360a:	e9c89317          	auipc	t1,0xe9c89
    360e:	9c8d                	subw	s1,s1,a1
    3610:	961a                	add	a2,a2,t1
    3612:	41d98233          	sub	tp,s3,t4
    3616:	41d98233          	sub	tp,s3,t4
    361a:	037f9333          	mulh	t1,t6,s7
    361e:	8ef1                	and	a3,a3,a2
    3620:	02dadfb3          	divu	t6,s5,a3
    3624:	01320b3b          	addw	s6,tp,s3
    3628:	01f099b3          	sll	s3,ra,t6
    362c:	01f099b3          	sll	s3,ra,t6
    3630:	01a37233          	and	tp,t1,s10
    3634:	987d                	andi	s0,s0,-1
    3636:	037f9333          	mulh	t1,t6,s7
    363a:	037f9333          	mulh	t1,t6,s7
    363e:	090e                	slli	s2,s2,0x3
    3640:	8ec9                	or	a3,a3,a0
    3642:	8d3d                	xor	a0,a0,a5
    3644:	41d98233          	sub	tp,s3,t4
    3648:	0398d53b          	divuw	a0,a7,s9
    364c:	01f099b3          	sll	s3,ra,t6
    3650:	02e8b633          	mulhu	a2,a7,a4
    3654:	01f099b3          	sll	s3,ra,t6
    3658:	02e189bb          	mulw	s3,gp,a4
    365c:	6eed                	lui	t4,0x1b
    365e:	e9c89317          	auipc	t1,0xe9c89
    3662:	00f31f9b          	slliw	t6,t1,0xf
    3666:	01182a33          	slt	s4,a6,a7
    366a:	8ef1                	and	a3,a3,a2
    366c:	1f7d                	addi	t5,t5,-1
    366e:	317d                	addiw	sp,sp,-1
    3670:	13ad0213          	addi	tp,s10,314
    3674:	016a92bb          	sllw	t0,s5,s6
    3678:	8ec9                	or	a3,a3,a0
    367a:	8d01                	sub	a0,a0,s0
    367c:	0001                	nop
    367e:	6eed                	lui	t4,0x1b
    3680:	8ef1                	and	a3,a3,a2
    3682:	1f7d                	addi	t5,t5,-1
    3684:	00fed41b          	srliw	s0,t4,0xf
    3688:	987d                	andi	s0,s0,-1
    368a:	02e189bb          	mulw	s3,gp,a4
    368e:	9abbcc93          	xori	s9,s7,-1621
    3692:	54f6a993          	slti	s3,a3,1359
    3696:	0398d53b          	divuw	a0,a7,s9
    369a:	016a92bb          	sllw	t0,s5,s6
    369e:	039f7a3b          	remuw	s4,t5,s9
    36a2:	0001                	nop
    36a4:	029d29b3          	mulhsu	s3,s10,s1
    36a8:	02c78bb3          	mul	s7,a5,a2
    36ac:	42686493          	ori	s1,a6,1062
    36b0:	0313633b          	remw	t1,t1,a7
    36b4:	317d                	addiw	sp,sp,-1
    36b6:	008643b3          	xor	t2,a2,s0
    36ba:	00f164b3          	or	s1,sp,a5
    36be:	0001                	nop
    36c0:	00e1d23b          	srlw	tp,gp,a4
    36c4:	9ead                	addw	a3,a3,a1
    36c6:	717d                	addi	sp,sp,-16
    36c8:	01a3ba33          	sltu	s4,t2,s10
    36cc:	317d                	addiw	sp,sp,-1
    36ce:	037f9333          	mulh	t1,t6,s7
    36d2:	039f7a3b          	remuw	s4,t5,s9
    36d6:	00e1d23b          	srlw	tp,gp,a4
    36da:	54f6a993          	slti	s3,a3,1359
    36de:	9ead                	addw	a3,a3,a1
    36e0:	9c8d                	subw	s1,s1,a1
    36e2:	317d                	addiw	sp,sp,-1
    36e4:	8ec9                	or	a3,a3,a0
    36e6:	8d3d                	xor	a0,a0,a5
    36e8:	40675113          	srai	sp,a4,0x6
    36ec:	40675113          	srai	sp,a4,0x6
    36f0:	4f81                	li	t6,0
    36f2:	5afd                	li	s5,-1
    36f4:	4b81                	li	s7,0
    36f6:	4281                	li	t0,0
    36f8:	002527b7          	lui	a5,0x252
    36fc:	b977879b          	addiw	a5,a5,-1129
    3700:	07b6                	slli	a5,a5,0xd
    3702:	15978793          	addi	a5,a5,345 # 252159 <_end+0x232459>
    3706:	07b6                	slli	a5,a5,0xd
    3708:	45d78793          	addi	a5,a5,1117
    370c:	07ba                	slli	a5,a5,0xe
    370e:	27d78793          	addi	a5,a5,637
    3712:	ffccaeb7          	lui	t4,0xffcca
    3716:	b63e8e9b          	addiw	t4,t4,-1181
    371a:	0ec2                	slli	t4,t4,0x10
    371c:	73be8e93          	addi	t4,t4,1851 # ffffffffffcca73b <_end+0xffffffffffcaaa3b>
    3720:	0eb2                	slli	t4,t4,0xc
    3722:	09be8e93          	addi	t4,t4,155
    3726:	0eb6                	slli	t4,t4,0xd
    3728:	d01e8e93          	addi	t4,t4,-767
    372c:	4101                	li	sp,0
    372e:	4381                	li	t2,0
    3730:	4081                	li	ra,0
    3732:	58fd                	li	a7,-1
    3734:	13a10293          	addi	t0,sp,314
    3738:	02f7813b          	mulw	sp,a5,a5
    373c:	03d0a3b3          	mulhsu	t2,ra,t4
    3740:	02715fbb          	divuw	t6,sp,t2
    3744:	0001                	nop
    3746:	0213e133          	rem	sp,t2,ra
    374a:	022af0bb          	remuw	ra,s5,sp
    374e:	03f288b3          	mul	a7,t0,t6
    3752:	0001                	nop
    3754:	0213e133          	rem	sp,t2,ra
    3758:	0312fab3          	remu	s5,t0,a7
    375c:	022af0bb          	remuw	ra,s5,sp
    3760:	405887bb          	subw	a5,a7,t0
    3764:	03deb8b3          	mulhu	a7,t4,t4
    3768:	5d328137          	lui	sp,0x5d328
    376c:	03d0a3b3          	mulhsu	t2,ra,t4
    3770:	41528ab3          	sub	s5,t0,s5
    3774:	021bcfbb          	divw	t6,s7,ra
    3778:	41528ab3          	sub	s5,t0,s5
    377c:	01778ebb          	addw	t4,a5,s7
    3780:	0217efbb          	remw	t6,a5,ra
    3784:	03deb8b3          	mulhu	a7,t4,t4
    3788:	13a10293          	addi	t0,sp,314 # 5d32813a <_end+0x5d30843a>
    378c:	0217efbb          	remw	t6,a5,ra
    3790:	00738ab3          	add	s5,t2,t2
    3794:	03f288b3          	mul	a7,t0,t6
    3798:	41528ab3          	sub	s5,t0,s5
    379c:	03f288b3          	mul	a7,t0,t6
    37a0:	e9c89297          	auipc	t0,0xe9c89
    37a4:	01778ebb          	addw	t4,a5,s7
    37a8:	02e8b633          	mulhu	a2,a7,a4
    37ac:	8439                	srai	s0,s0,0xe
    37ae:	00e1d23b          	srlw	tp,gp,a4
    37b2:	0001                	nop
    37b4:	0001                	nop
    37b6:	0313633b          	remw	t1,t1,a7
    37ba:	02f24d3b          	divw	s10,tp,a5
    37be:	8ef1                	and	a3,a3,a2
    37c0:	fff00d1b          	addiw	s10,zero,-1
    37c4:	1d7e                	slli	s10,s10,0x3f
    37c6:	fff0041b          	addiw	s0,zero,-1
    37ca:	147e                	slli	s0,s0,0x3f
    37cc:	ffebdeb7          	lui	t4,0xffebd
    37d0:	cfde8e9b          	addiw	t4,t4,-771
    37d4:	0eb2                	slli	t4,t4,0xc
    37d6:	ea1e8e93          	addi	t4,t4,-351 # ffffffffffebcea1 <_end+0xffffffffffe9d1a1>
    37da:	0eba                	slli	t4,t4,0xe
    37dc:	8c3e8e93          	addi	t4,t4,-1853
    37e0:	0ebe                	slli	t4,t4,0xf
    37e2:	102e8e93          	addi	t4,t4,258
    37e6:	57fd                	li	a5,-1
    37e8:	fff0089b          	addiw	a7,zero,-1
    37ec:	18fe                	slli	a7,a7,0x3f
    37ee:	4a81                	li	s5,0
    37f0:	527d                	li	tp,-1
    37f2:	72cd                	lui	t0,0xffff3
    37f4:	2df2829b          	addiw	t0,t0,735
    37f8:	02c2                	slli	t0,t0,0x10
    37fa:	3c128293          	addi	t0,t0,961 # ffffffffffff33c1 <_end+0xfffffffffffd36c1>
    37fe:	02ba                	slli	t0,t0,0xe
    3800:	fcb28293          	addi	t0,t0,-53
    3804:	02c6                	slli	t0,t0,0x11
    3806:	85b28293          	addi	t0,t0,-1957
    380a:	00b09db7          	lui	s11,0xb09
    380e:	ee3d8d9b          	addiw	s11,s11,-285
    3812:	0db6                	slli	s11,s11,0xd
    3814:	c91d8d93          	addi	s11,s11,-879 # b08c91 <_end+0xae8f91>
    3818:	0db2                	slli	s11,s11,0xc
    381a:	e03d8d93          	addi	s11,s11,-509
    381e:	0dba                	slli	s11,s11,0xe
    3820:	9dcd8d93          	addi	s11,s11,-1572
    3824:	557d                	li	a0,-1
    3826:	0354743b          	remuw	s0,s0,s5
    382a:	0001                	nop
    382c:	02fed7b3          	divu	a5,t4,a5
    3830:	0001                	nop
    3832:	025212b3          	mulh	t0,tp,t0
    3836:	00fd053b          	addw	a0,s10,a5
    383a:	02aea233          	mulhsu	tp,t4,a0
    383e:	01b50233          	add	tp,a0,s11
    3842:	5d328d37          	lui	s10,0x5d328
    3846:	03527ab3          	remu	s5,tp,s5
    384a:	028eb8b3          	mulhu	a7,t4,s0
    384e:	40440abb          	subw	s5,s0,tp
    3852:	028d6dbb          	remw	s11,s10,s0
    3856:	03a28433          	mul	s0,t0,s10
    385a:	03144d33          	div	s10,s0,a7
    385e:	03144d33          	div	s10,s0,a7
    3862:	5d328d37          	lui	s10,0x5d328
    3866:	13ad0213          	addi	tp,s10,314 # 5d32813a <_end+0x5d30843a>
    386a:	0001                	nop
    386c:	0398d53b          	divuw	a0,a7,s9
    3870:	961a                	add	a2,a2,t1
    3872:	01a37233          	and	tp,t1,s10
    3876:	01182a33          	slt	s4,a6,a7
    387a:	02e189bb          	mulw	s3,gp,a4
    387e:	808d                	srli	s1,s1,0x3
    3880:	02e964b3          	rem	s1,s2,a4
    3884:	8ec9                	or	a3,a3,a0
    3886:	987d                	andi	s0,s0,-1
    3888:	00fed41b          	srliw	s0,t4,0xf
    388c:	0001                	nop
    388e:	54f6a993          	slti	s3,a3,1359
    3892:	00e1d23b          	srlw	tp,gp,a4
    3896:	0398d53b          	divuw	a0,a7,s9
    389a:	9c8d                	subw	s1,s1,a1
    389c:	8ef1                	and	a3,a3,a2
    389e:	004e5ab3          	srl	s5,t3,tp
    38a2:	00fed41b          	srliw	s0,t4,0xf
    38a6:	8439                	srai	s0,s0,0xe
    38a8:	987d                	andi	s0,s0,-1
    38aa:	037f9333          	mulh	t1,t6,s7
    38ae:	9abbcc93          	xori	s9,s7,-1621
    38b2:	4048dcbb          	sraw	s9,a7,tp
    38b6:	8ef1                	and	a3,a3,a2
    38b8:	0001                	nop
    38ba:	1f7d                	addi	t5,t5,-1
    38bc:	987d                	andi	s0,s0,-1
    38be:	033fd793          	srli	a5,t6,0x33
    38c2:	037f9333          	mulh	t1,t6,s7
    38c6:	02c78bb3          	mul	s7,a5,a2
    38ca:	9ead                	addw	a3,a3,a1
    38cc:	38057713          	andi	a4,a0,896
    38d0:	0398d53b          	divuw	a0,a7,s9
    38d4:	0001                	nop
    38d6:	0a04                	addi	s1,sp,272
    38d8:	02817933          	remu	s2,sp,s0
    38dc:	03509613          	slli	a2,ra,0x35
    38e0:	317d                	addiw	sp,sp,-1
    38e2:	e0a1059b          	addiw	a1,sp,-502
    38e6:	02c78bb3          	mul	s7,a5,a2
    38ea:	01182a33          	slt	s4,a6,a7
    38ee:	dfa53c93          	sltiu	s9,a0,-518
    38f2:	8439                	srai	s0,s0,0xe
    38f4:	40675113          	srai	sp,a4,0x6
    38f8:	9abbcc93          	xori	s9,s7,-1621
    38fc:	ffcf2737          	lui	a4,0xffcf2
    3900:	c8f7071b          	addiw	a4,a4,-881
    3904:	0732                	slli	a4,a4,0xc
    3906:	a1b70713          	addi	a4,a4,-1509 # ffffffffffcf1a1b <_end+0xffffffffffcd1d1b>
    390a:	0746                	slli	a4,a4,0x11
    390c:	b9370713          	addi	a4,a4,-1133
    3910:	0732                	slli	a4,a4,0xc
    3912:	1a070713          	addi	a4,a4,416
    3916:	012cd237          	lui	tp,0x12cd
    391a:	0752021b          	addiw	tp,tp,117
    391e:	0232                	slli	tp,tp,0xc
    3920:	cf120213          	addi	tp,tp,-783 # 12cccf1 <_end+0x12acff1>
    3924:	0236                	slli	tp,tp,0xd
    3926:	5e120213          	addi	tp,tp,1505 # 5e1 <mmode_intr_vector_8+0x23>
    392a:	0236                	slli	tp,tp,0xd
    392c:	cfb20213          	addi	tp,tp,-773 # fffffffffffffcfb <_end+0xfffffffffffdfffb>
    3930:	4901                	li	s2,0
    3932:	4381                	li	t2,0
    3934:	4881                	li	a7,0
    3936:	4581                	li	a1,0
    3938:	fff00d1b          	addiw	s10,zero,-1
    393c:	1d7e                	slli	s10,s10,0x3f
    393e:	fff0079b          	addiw	a5,zero,-1
    3942:	17fe                	slli	a5,a5,0x3f
    3944:	4f01                	li	t5,0
    3946:	03f854b7          	lui	s1,0x3f85
    394a:	0d74849b          	addiw	s1,s1,215
    394e:	04b2                	slli	s1,s1,0xc
    3950:	52d48493          	addi	s1,s1,1325 # 3f8552d <_end+0x3f6582d>
    3954:	04b2                	slli	s1,s1,0xc
    3956:	da948493          	addi	s1,s1,-599
    395a:	04b2                	slli	s1,s1,0xc
    395c:	cb448493          	addi	s1,s1,-844
    3960:	78ae9f17          	auipc	t5,0x78ae9
    3964:	00bf093b          	addw	s2,t5,a1
    3968:	e0a8839b          	addiw	t2,a7,-502
    396c:	0248c4b3          	div	s1,a7,tp
    3970:	029487b3          	mul	a5,s1,s1
    3974:	0001                	nop
    3976:	0001                	nop
    3978:	02f5e4b3          	rem	s1,a1,a5
    397c:	02e3c5bb          	divw	a1,t2,a4
    3980:	e9c89497          	auipc	s1,0xe9c89
    3984:	40fd07bb          	subw	a5,s10,a5
    3988:	0001                	nop
    398a:	0293a233          	mulhsu	tp,t2,s1
    398e:	03e775b3          	remu	a1,a4,t5
    3992:	03294d33          	div	s10,s2,s2
    3996:	404d03bb          	subw	t2,s10,tp
    399a:	0325ef33          	rem	t5,a1,s2
    399e:	5d328d37          	lui	s10,0x5d328
    39a2:	029f13b3          	mulh	t2,t5,s1
    39a6:	13a20913          	addi	s2,tp,314 # 13a <init+0xb4>
    39aa:	03e48d33          	mul	s10,s1,t5
    39ae:	987d                	andi	s0,s0,-1
    39b0:	961a                	add	a2,a2,t1
    39b2:	033fd793          	srli	a5,t6,0x33
    39b6:	9ead                	addw	a3,a3,a1
    39b8:	016a92bb          	sllw	t0,s5,s6
    39bc:	6eed                	lui	t4,0x1b
    39be:	0398d53b          	divuw	a0,a7,s9
    39c2:	88d2                	mv	a7,s4
    39c4:	01a3ba33          	sltu	s4,t2,s10
    39c8:	03e0c033          	div	zero,ra,t5
    39cc:	090e                	slli	s2,s2,0x3
    39ce:	02e8b633          	mulhu	a2,a7,a4
    39d2:	02dadfb3          	divu	t6,s5,a3
    39d6:	8ec9                	or	a3,a3,a0
    39d8:	02c78bb3          	mul	s7,a5,a2
    39dc:	e9c89317          	auipc	t1,0xe9c89
    39e0:	0a04                	addi	s1,sp,272
    39e2:	54f6a993          	slti	s3,a3,1359
    39e6:	00fed41b          	srliw	s0,t4,0xf
    39ea:	8ec9                	or	a3,a3,a0
    39ec:	00e1d23b          	srlw	tp,gp,a4
    39f0:	40675113          	srai	sp,a4,0x6
    39f4:	01a37233          	and	tp,t1,s10
    39f8:	6eed                	lui	t4,0x1b
    39fa:	039f7a3b          	remuw	s4,t5,s9
    39fe:	6eed                	lui	t4,0x1b
    3a00:	8d01                	sub	a0,a0,s0
    3a02:	40675113          	srai	sp,a4,0x6
    3a06:	016a92bb          	sllw	t0,s5,s6
    3a0a:	40865a1b          	sraiw	s4,a2,0x8
    3a0e:	090e                	slli	s2,s2,0x3
    3a10:	039f7a3b          	remuw	s4,t5,s9
    3a14:	8ef1                	and	a3,a3,a2
    3a16:	8d3d                	xor	a0,a0,a5
    3a18:	88d2                	mv	a7,s4
    3a1a:	54f6a993          	slti	s3,a3,1359
    3a1e:	02817933          	remu	s2,sp,s0
    3a22:	02e8b633          	mulhu	a2,a7,a4
    3a26:	02e8b633          	mulhu	a2,a7,a4
    3a2a:	016a92bb          	sllw	t0,s5,s6
    3a2e:	13ad0213          	addi	tp,s10,314 # 5d32813a <_end+0x5d30843a>
    3a32:	00e1d23b          	srlw	tp,gp,a4
    3a36:	9c8d                	subw	s1,s1,a1
    3a38:	02e189bb          	mulw	s3,gp,a4
    3a3c:	02e8b633          	mulhu	a2,a7,a4
    3a40:	033fd793          	srli	a5,t6,0x33
    3a44:	004e5ab3          	srl	s5,t3,tp
    3a48:	02c78bb3          	mul	s7,a5,a2
    3a4c:	037f9333          	mulh	t1,t6,s7
    3a50:	dfa53c93          	sltiu	s9,a0,-518
    3a54:	00f48133          	add	sp,s1,a5
    3a58:	8d3d                	xor	a0,a0,a5
    3a5a:	88d2                	mv	a7,s4
    3a5c:	02c78bb3          	mul	s7,a5,a2
    3a60:	01a37233          	and	tp,t1,s10
    3a64:	02e189bb          	mulw	s3,gp,a4
    3a68:	8439                	srai	s0,s0,0xe
    3a6a:	01a37233          	and	tp,t1,s10
    3a6e:	e0a1059b          	addiw	a1,sp,-502
    3a72:	00e1d23b          	srlw	tp,gp,a4
    3a76:	0001                	nop
    3a78:	961a                	add	a2,a2,t1
    3a7a:	00e1d23b          	srlw	tp,gp,a4
    3a7e:	02f24d3b          	divw	s10,tp,a5
    3a82:	00f48133          	add	sp,s1,a5
    3a86:	0313633b          	remw	t1,t1,a7
    3a8a:	039f7a3b          	remuw	s4,t5,s9
    3a8e:	9ead                	addw	a3,a3,a1
    3a90:	1f7d                	addi	t5,t5,-1
    3a92:	039f7a3b          	remuw	s4,t5,s9
    3a96:	016a92bb          	sllw	t0,s5,s6
    3a9a:	01a37233          	and	tp,t1,s10
    3a9e:	13ad0213          	addi	tp,s10,314
    3aa2:	51fd                	li	gp,-1
    3aa4:	00f31f9b          	slliw	t6,t1,0xf
    3aa8:	88d2                	mv	a7,s4
    3aaa:	016a92bb          	sllw	t0,s5,s6
    3aae:	41d98233          	sub	tp,s3,t4
    3ab2:	008643b3          	xor	t2,a2,s0
    3ab6:	961a                	add	a2,a2,t1
    3ab8:	8439                	srai	s0,s0,0xe
    3aba:	8ef1                	and	a3,a3,a2
    3abc:	dfa53c93          	sltiu	s9,a0,-518
    3ac0:	01320b3b          	addw	s6,tp,s3
    3ac4:	8d3d                	xor	a0,a0,a5
    3ac6:	1f7d                	addi	t5,t5,-1
    3ac8:	01f099b3          	sll	s3,ra,t6
    3acc:	51fd                	li	gp,-1
    3ace:	02e964b3          	rem	s1,s2,a4
    3ad2:	41d98233          	sub	tp,s3,t4
    3ad6:	01320b3b          	addw	s6,tp,s3
    3ada:	039f7a3b          	remuw	s4,t5,s9
    3ade:	40dad233          	sra	tp,s5,a3
    3ae2:	03509613          	slli	a2,ra,0x35
    3ae6:	02817933          	remu	s2,sp,s0
    3aea:	9abbcc93          	xori	s9,s7,-1621
    3aee:	41c7043b          	subw	s0,a4,t3
    3af2:	717d                	addi	sp,sp,-16
    3af4:	4048dcbb          	sraw	s9,a7,tp
    3af8:	41d98233          	sub	tp,s3,t4
    3afc:	13ad0213          	addi	tp,s10,314
    3b00:	808d                	srli	s1,s1,0x3
    3b02:	02e964b3          	rem	s1,s2,a4
    3b06:	01182a33          	slt	s4,a6,a7
    3b0a:	51fd                	li	gp,-1
    3b0c:	00f164b3          	or	s1,sp,a5
    3b10:	8ef1                	and	a3,a3,a2
    3b12:	808d                	srli	s1,s1,0x3
    3b14:	0001                	nop
    3b16:	8ec9                	or	a3,a3,a0
    3b18:	00f48133          	add	sp,s1,a5
    3b1c:	02f24d3b          	divw	s10,tp,a5
    3b20:	38057713          	andi	a4,a0,896
    3b24:	01a3ba33          	sltu	s4,t2,s10
    3b28:	9c8d                	subw	s1,s1,a1
    3b2a:	033fd793          	srli	a5,t6,0x33
    3b2e:	02e964b3          	rem	s1,s2,a4
    3b32:	dfa53c93          	sltiu	s9,a0,-518
    3b36:	40dad233          	sra	tp,s5,a3
    3b3a:	8439                	srai	s0,s0,0xe
    3b3c:	9abbcc93          	xori	s9,s7,-1621
    3b40:	00fed41b          	srliw	s0,t4,0xf
    3b44:	02c78bb3          	mul	s7,a5,a2
    3b48:	8439                	srai	s0,s0,0xe
    3b4a:	004e5ab3          	srl	s5,t3,tp
    3b4e:	808d                	srli	s1,s1,0x3
    3b50:	961a                	add	a2,a2,t1
    3b52:	41c7043b          	subw	s0,a4,t3
    3b56:	02dadfb3          	divu	t6,s5,a3
    3b5a:	03e0c033          	div	zero,ra,t5
    3b5e:	e9c89317          	auipc	t1,0xe9c89
    3b62:	317d                	addiw	sp,sp,-1
    3b64:	004e5ab3          	srl	s5,t3,tp
    3b68:	039f7a3b          	remuw	s4,t5,s9
    3b6c:	00f164b3          	or	s1,sp,a5
    3b70:	0a04                	addi	s1,sp,272
    3b72:	8d3d                	xor	a0,a0,a5
    3b74:	03509613          	slli	a2,ra,0x35
    3b78:	00f164b3          	or	s1,sp,a5
    3b7c:	40dad233          	sra	tp,s5,a3
    3b80:	e0a1059b          	addiw	a1,sp,-502
    3b84:	dfa53c93          	sltiu	s9,a0,-518
    3b88:	033fd793          	srli	a5,t6,0x33
    3b8c:	42686493          	ori	s1,a6,1062
    3b90:	9abbcc93          	xori	s9,s7,-1621
    3b94:	5d328737          	lui	a4,0x5d328
    3b98:	00f48133          	add	sp,s1,a5
    3b9c:	02dadfb3          	divu	t6,s5,a3
    3ba0:	8d3d                	xor	a0,a0,a5
    3ba2:	e0a1059b          	addiw	a1,sp,-502
    3ba6:	01320b3b          	addw	s6,tp,s3
    3baa:	029d29b3          	mulhsu	s3,s10,s1
    3bae:	8ec9                	or	a3,a3,a0
    3bb0:	02dadfb3          	divu	t6,s5,a3
    3bb4:	e0a1059b          	addiw	a1,sp,-502
    3bb8:	037f9333          	mulh	t1,t6,s7
    3bbc:	8ec9                	or	a3,a3,a0
    3bbe:	029d29b3          	mulhsu	s3,s10,s1
    3bc2:	41c7043b          	subw	s0,a4,t3
    3bc6:	dfa53c93          	sltiu	s9,a0,-518
    3bca:	02dadfb3          	divu	t6,s5,a3
    3bce:	8ef1                	and	a3,a3,a2
    3bd0:	03e0c033          	div	zero,ra,t5
    3bd4:	40865a1b          	sraiw	s4,a2,0x8
    3bd8:	717d                	addi	sp,sp,-16
    3bda:	717d                	addi	sp,sp,-16
    3bdc:	033fd793          	srli	a5,t6,0x33
    3be0:	38057713          	andi	a4,a0,896
    3be4:	0001                	nop
    3be6:	090e                	slli	s2,s2,0x3
    3be8:	0398d53b          	divuw	a0,a7,s9
    3bec:	039f7a3b          	remuw	s4,t5,s9
    3bf0:	02dadfb3          	divu	t6,s5,a3
    3bf4:	41c7043b          	subw	s0,a4,t3
    3bf8:	88d2                	mv	a7,s4
    3bfa:	9abbcc93          	xori	s9,s7,-1621
    3bfe:	9c8d                	subw	s1,s1,a1
    3c00:	38057713          	andi	a4,a0,896
    3c04:	808d                	srli	s1,s1,0x3
    3c06:	01a37233          	and	tp,t1,s10
    3c0a:	54f6a993          	slti	s3,a3,1359
    3c0e:	02e189bb          	mulw	s3,gp,a4
    3c12:	00f31f9b          	slliw	t6,t1,0xf
    3c16:	090e                	slli	s2,s2,0x3
    3c18:	02e964b3          	rem	s1,s2,a4
    3c1c:	0001                	nop
    3c1e:	9ead                	addw	a3,a3,a1
    3c20:	00f31f9b          	slliw	t6,t1,0xf
    3c24:	090e                	slli	s2,s2,0x3
    3c26:	88d2                	mv	a7,s4
    3c28:	88d2                	mv	a7,s4
    3c2a:	004e5ab3          	srl	s5,t3,tp
    3c2e:	090e                	slli	s2,s2,0x3
    3c30:	02c78bb3          	mul	s7,a5,a2
    3c34:	5d328737          	lui	a4,0x5d328
    3c38:	8d01                	sub	a0,a0,s0
    3c3a:	41c7043b          	subw	s0,a4,t3
    3c3e:	6eed                	lui	t4,0x1b
    3c40:	1f7d                	addi	t5,t5,-1
    3c42:	008643b3          	xor	t2,a2,s0
    3c46:	00f164b3          	or	s1,sp,a5
    3c4a:	1f7d                	addi	t5,t5,-1
    3c4c:	02e189bb          	mulw	s3,gp,a4
    3c50:	1f7d                	addi	t5,t5,-1
    3c52:	41c7043b          	subw	s0,a4,t3
    3c56:	01a37233          	and	tp,t1,s10
    3c5a:	987d                	andi	s0,s0,-1
    3c5c:	41c7043b          	subw	s0,a4,t3
    3c60:	0001                	nop
    3c62:	01a37233          	and	tp,t1,s10
    3c66:	00f31f9b          	slliw	t6,t1,0xf
    3c6a:	0313633b          	remw	t1,t1,a7
    3c6e:	4048dcbb          	sraw	s9,a7,tp
    3c72:	00f164b3          	or	s1,sp,a5
    3c76:	037f9333          	mulh	t1,t6,s7
    3c7a:	8ec9                	or	a3,a3,a0
    3c7c:	01182a33          	slt	s4,a6,a7
    3c80:	dfa53c93          	sltiu	s9,a0,-518
    3c84:	6eed                	lui	t4,0x1b
    3c86:	e0a1059b          	addiw	a1,sp,-502
    3c8a:	717d                	addi	sp,sp,-16
    3c8c:	5d328737          	lui	a4,0x5d328
    3c90:	717d                	addi	sp,sp,-16
    3c92:	40675113          	srai	sp,a4,0x6
    3c96:	02f24d3b          	divw	s10,tp,a5
    3c9a:	0001                	nop
    3c9c:	029d29b3          	mulhsu	s3,s10,s1
    3ca0:	02e964b3          	rem	s1,s2,a4
    3ca4:	0313633b          	remw	t1,t1,a7
    3ca8:	0001                	nop
    3caa:	4048dcbb          	sraw	s9,a7,tp
    3cae:	317d                	addiw	sp,sp,-1
    3cb0:	0001                	nop
    3cb2:	00f48133          	add	sp,s1,a5
    3cb6:	03e0c033          	div	zero,ra,t5
    3cba:	02817933          	remu	s2,sp,s0
    3cbe:	717d                	addi	sp,sp,-16
    3cc0:	01182a33          	slt	s4,a6,a7
    3cc4:	e9c89317          	auipc	t1,0xe9c89
    3cc8:	e9c89317          	auipc	t1,0xe9c89
    3ccc:	40865a1b          	sraiw	s4,a2,0x8
    3cd0:	02f24d3b          	divw	s10,tp,a5
    3cd4:	717d                	addi	sp,sp,-16
    3cd6:	02817933          	remu	s2,sp,s0
    3cda:	090e                	slli	s2,s2,0x3
    3cdc:	00f164b3          	or	s1,sp,a5
    3ce0:	8ec9                	or	a3,a3,a0
    3ce2:	e0a1059b          	addiw	a1,sp,-502
    3ce6:	00e1d23b          	srlw	tp,gp,a4
    3cea:	02e189bb          	mulw	s3,gp,a4
    3cee:	42686493          	ori	s1,a6,1062
    3cf2:	008643b3          	xor	t2,a2,s0
    3cf6:	0001                	nop
    3cf8:	4048dcbb          	sraw	s9,a7,tp
    3cfc:	004e5ab3          	srl	s5,t3,tp
    3d00:	01a3ba33          	sltu	s4,t2,s10
    3d04:	9ead                	addw	a3,a3,a1
    3d06:	029d29b3          	mulhsu	s3,s10,s1
    3d0a:	02817933          	remu	s2,sp,s0
    3d0e:	56fd                	li	a3,-1
    3d10:	fff00b1b          	addiw	s6,zero,-1
    3d14:	1b7e                	slli	s6,s6,0x3f
    3d16:	51fd                	li	gp,-1
    3d18:	fc066437          	lui	s0,0xfc066
    3d1c:	e974041b          	addiw	s0,s0,-361
    3d20:	0432                	slli	s0,s0,0xc
    3d22:	04d40413          	addi	s0,s0,77 # fffffffffc06604d <_end+0xfffffffffc04634d>
    3d26:	0436                	slli	s0,s0,0xd
    3d28:	64540413          	addi	s0,s0,1605
    3d2c:	0432                	slli	s0,s0,0xc
    3d2e:	1de40413          	addi	s0,s0,478
    3d32:	fff0089b          	addiw	a7,zero,-1
    3d36:	18fe                	slli	a7,a7,0x3f
    3d38:	4981                	li	s3,0
    3d3a:	4381                	li	t2,0
    3d3c:	fe0545b7          	lui	a1,0xfe054
    3d40:	bed5859b          	addiw	a1,a1,-1043
    3d44:	05b2                	slli	a1,a1,0xc
    3d46:	18958593          	addi	a1,a1,393 # fffffffffe054189 <_end+0xfffffffffe034489>
    3d4a:	05b2                	slli	a1,a1,0xc
    3d4c:	9c158593          	addi	a1,a1,-1599
    3d50:	05ba                	slli	a1,a1,0xe
    3d52:	a2d58593          	addi	a1,a1,-1491
    3d56:	fff0079b          	addiw	a5,zero,-1
    3d5a:	17fe                	slli	a5,a5,0x3f
    3d5c:	fff0021b          	addiw	tp,zero,-1
    3d60:	127e                	slli	tp,tp,0x3f
    3d62:	03645b3b          	divuw	s6,s0,s6
    3d66:	0001                	nop
    3d68:	5d328b37          	lui	s6,0x5d328
    3d6c:	e9c89217          	auipc	tp,0xe9c89
    3d70:	0001                	nop
    3d72:	0289eb33          	rem	s6,s3,s0
    3d76:	023211b3          	mulh	gp,tp,gp
    3d7a:	13a20893          	addi	a7,tp,314 # ffffffffe9c8cea6 <_end+0xffffffffe9c6d1a6>
    3d7e:	0361e3bb          	remw	t2,gp,s6
    3d82:	0361e3bb          	remw	t2,gp,s6
    3d86:	02d3f5b3          	remu	a1,t2,a3
    3d8a:	0001                	nop
    3d8c:	03144b33          	div	s6,s0,a7
    3d90:	03645b3b          	divuw	s6,s0,s6
    3d94:	02b988bb          	mulw	a7,s3,a1
    3d98:	41c7043b          	subw	s0,a4,t3
    3d9c:	004e5ab3          	srl	s5,t3,tp
    3da0:	8ec9                	or	a3,a3,a0
    3da2:	03e0c033          	div	zero,ra,t5
    3da6:	51fd                	li	gp,-1
    3da8:	40865a1b          	sraiw	s4,a2,0x8
    3dac:	02e8b633          	mulhu	a2,a7,a4
    3db0:	8ef1                	and	a3,a3,a2
    3db2:	808d                	srli	s1,s1,0x3
    3db4:	5d328737          	lui	a4,0x5d328
    3db8:	033fd793          	srli	a5,t6,0x33
    3dbc:	02dadfb3          	divu	t6,s5,a3
    3dc0:	01a3ba33          	sltu	s4,t2,s10
    3dc4:	38057713          	andi	a4,a0,896
    3dc8:	42686493          	ori	s1,a6,1062
    3dcc:	03e0c033          	div	zero,ra,t5
    3dd0:	38057713          	andi	a4,a0,896
    3dd4:	317d                	addiw	sp,sp,-1
    3dd6:	01320b3b          	addw	s6,tp,s3
    3dda:	02817933          	remu	s2,sp,s0
    3dde:	090e                	slli	s2,s2,0x3
    3de0:	717d                	addi	sp,sp,-16
    3de2:	54f6a993          	slti	s3,a3,1359
    3de6:	01a37233          	and	tp,t1,s10
    3dea:	004e5ab3          	srl	s5,t3,tp
    3dee:	e9c89317          	auipc	t1,0xe9c89
    3df2:	51fd                	li	gp,-1
    3df4:	51fd                	li	gp,-1
    3df6:	40675113          	srai	sp,a4,0x6
    3dfa:	9c8d                	subw	s1,s1,a1
    3dfc:	8439                	srai	s0,s0,0xe
    3dfe:	40dad233          	sra	tp,s5,a3
    3e02:	808d                	srli	s1,s1,0x3
    3e04:	8d3d                	xor	a0,a0,a5
    3e06:	03e0c033          	div	zero,ra,t5
    3e0a:	987d                	andi	s0,s0,-1
    3e0c:	6eed                	lui	t4,0x1b
    3e0e:	0a04                	addi	s1,sp,272
    3e10:	40675113          	srai	sp,a4,0x6
    3e14:	88d2                	mv	a7,s4
    3e16:	01182a33          	slt	s4,a6,a7
    3e1a:	03509613          	slli	a2,ra,0x35
    3e1e:	40865a1b          	sraiw	s4,a2,0x8
    3e22:	01a3ba33          	sltu	s4,t2,s10
    3e26:	987d                	andi	s0,s0,-1
    3e28:	01182a33          	slt	s4,a6,a7
    3e2c:	dfa53c93          	sltiu	s9,a0,-518
    3e30:	01f099b3          	sll	s3,ra,t6
    3e34:	9c8d                	subw	s1,s1,a1
    3e36:	00f48133          	add	sp,s1,a5
    3e3a:	00f31f9b          	slliw	t6,t1,0xf
    3e3e:	e0a1059b          	addiw	a1,sp,-502
    3e42:	40865a1b          	sraiw	s4,a2,0x8
    3e46:	01a3ba33          	sltu	s4,t2,s10
    3e4a:	e0a1059b          	addiw	a1,sp,-502
    3e4e:	02817933          	remu	s2,sp,s0
    3e52:	02dadfb3          	divu	t6,s5,a3
    3e56:	0001                	nop
    3e58:	88d2                	mv	a7,s4
    3e5a:	8d3d                	xor	a0,a0,a5
    3e5c:	41d98233          	sub	tp,s3,t4
    3e60:	03509613          	slli	a2,ra,0x35
    3e64:	02817933          	remu	s2,sp,s0
    3e68:	8d3d                	xor	a0,a0,a5
    3e6a:	02e189bb          	mulw	s3,gp,a4
    3e6e:	1f7d                	addi	t5,t5,-1
    3e70:	41d98233          	sub	tp,s3,t4
    3e74:	5d328737          	lui	a4,0x5d328
    3e78:	54f6a993          	slti	s3,a3,1359
    3e7c:	9ead                	addw	a3,a3,a1
    3e7e:	029d29b3          	mulhsu	s3,s10,s1
    3e82:	e9c89317          	auipc	t1,0xe9c89
    3e86:	8d3d                	xor	a0,a0,a5
    3e88:	41c7043b          	subw	s0,a4,t3
    3e8c:	02e964b3          	rem	s1,s2,a4
    3e90:	51fd                	li	gp,-1
    3e92:	004e5ab3          	srl	s5,t3,tp
    3e96:	e9c89317          	auipc	t1,0xe9c89
    3e9a:	01f099b3          	sll	s3,ra,t6
    3e9e:	808d                	srli	s1,s1,0x3
    3ea0:	037f9333          	mulh	t1,t6,s7
    3ea4:	e0a1059b          	addiw	a1,sp,-502
    3ea8:	717d                	addi	sp,sp,-16
    3eaa:	008643b3          	xor	t2,a2,s0
    3eae:	037f9333          	mulh	t1,t6,s7
    3eb2:	01a37233          	and	tp,t1,s10
    3eb6:	02e8b633          	mulhu	a2,a7,a4
    3eba:	808d                	srli	s1,s1,0x3
    3ebc:	dfa53c93          	sltiu	s9,a0,-518
    3ec0:	0001                	nop
    3ec2:	0313633b          	remw	t1,t1,a7
    3ec6:	039f7a3b          	remuw	s4,t5,s9
    3eca:	54f6a993          	slti	s3,a3,1359
    3ece:	808d                	srli	s1,s1,0x3
    3ed0:	808d                	srli	s1,s1,0x3
    3ed2:	039f7a3b          	remuw	s4,t5,s9
    3ed6:	02817933          	remu	s2,sp,s0
    3eda:	42686493          	ori	s1,a6,1062
    3ede:	317d                	addiw	sp,sp,-1
    3ee0:	40865a1b          	sraiw	s4,a2,0x8
    3ee4:	51fd                	li	gp,-1
    3ee6:	e9c89317          	auipc	t1,0xe9c89
    3eea:	02f24d3b          	divw	s10,tp,a5
    3eee:	0001                	nop
    3ef0:	00f31f9b          	slliw	t6,t1,0xf
    3ef4:	039f7a3b          	remuw	s4,t5,s9
    3ef8:	40675113          	srai	sp,a4,0x6
    3efc:	8ec9                	or	a3,a3,a0
    3efe:	88d2                	mv	a7,s4
    3f00:	00f48133          	add	sp,s1,a5
    3f04:	5d328737          	lui	a4,0x5d328
    3f08:	02e189bb          	mulw	s3,gp,a4
    3f0c:	9ead                	addw	a3,a3,a1
    3f0e:	00fed41b          	srliw	s0,t4,0xf
    3f12:	5d328737          	lui	a4,0x5d328
    3f16:	dfa53c93          	sltiu	s9,a0,-518
    3f1a:	03509613          	slli	a2,ra,0x35
    3f1e:	987d                	andi	s0,s0,-1
    3f20:	41c7043b          	subw	s0,a4,t3
    3f24:	0001                	nop
    3f26:	008643b3          	xor	t2,a2,s0
    3f2a:	01f099b3          	sll	s3,ra,t6
    3f2e:	808d                	srli	s1,s1,0x3
    3f30:	40865a1b          	sraiw	s4,a2,0x8
    3f34:	40675113          	srai	sp,a4,0x6
    3f38:	54f6a993          	slti	s3,a3,1359
    3f3c:	1f7d                	addi	t5,t5,-1
    3f3e:	0a04                	addi	s1,sp,272
    3f40:	41d98233          	sub	tp,s3,t4
    3f44:	016a92bb          	sllw	t0,s5,s6
    3f48:	38057713          	andi	a4,a0,896
    3f4c:	016a92bb          	sllw	t0,s5,s6
    3f50:	9abbcc93          	xori	s9,s7,-1621
    3f54:	0001                	nop
    3f56:	039f7a3b          	remuw	s4,t5,s9
    3f5a:	02e189bb          	mulw	s3,gp,a4
    3f5e:	961a                	add	a2,a2,t1
    3f60:	039f7a3b          	remuw	s4,t5,s9
    3f64:	00f31f9b          	slliw	t6,t1,0xf
    3f68:	0313633b          	remw	t1,t1,a7
    3f6c:	38057713          	andi	a4,a0,896
    3f70:	8d01                	sub	a0,a0,s0
    3f72:	717d                	addi	sp,sp,-16
    3f74:	02f24d3b          	divw	s10,tp,a5
    3f78:	00f31f9b          	slliw	t6,t1,0xf
    3f7c:	51fd                	li	gp,-1
    3f7e:	40dad233          	sra	tp,s5,a3
    3f82:	e0a1059b          	addiw	a1,sp,-502
    3f86:	5d328737          	lui	a4,0x5d328
    3f8a:	88d2                	mv	a7,s4
    3f8c:	5d328737          	lui	a4,0x5d328
    3f90:	717d                	addi	sp,sp,-16
    3f92:	4048dcbb          	sraw	s9,a7,tp
    3f96:	4048dcbb          	sraw	s9,a7,tp
    3f9a:	987d                	andi	s0,s0,-1
    3f9c:	029d29b3          	mulhsu	s3,s10,s1
    3fa0:	9ead                	addw	a3,a3,a1
    3fa2:	987d                	andi	s0,s0,-1
    3fa4:	9ead                	addw	a3,a3,a1
    3fa6:	0001                	nop
    3fa8:	00e1d23b          	srlw	tp,gp,a4
    3fac:	5d328737          	lui	a4,0x5d328
    3fb0:	88d2                	mv	a7,s4
    3fb2:	8ef1                	and	a3,a3,a2
    3fb4:	51fd                	li	gp,-1
    3fb6:	9c8d                	subw	s1,s1,a1
    3fb8:	51fd                	li	gp,-1
    3fba:	0001                	nop
    3fbc:	38057713          	andi	a4,a0,896
    3fc0:	808d                	srli	s1,s1,0x3
    3fc2:	0001                	nop
    3fc4:	033fd793          	srli	a5,t6,0x33
    3fc8:	51fd                	li	gp,-1
    3fca:	40675113          	srai	sp,a4,0x6
    3fce:	037f9333          	mulh	t1,t6,s7
    3fd2:	01a37233          	and	tp,t1,s10
    3fd6:	0313633b          	remw	t1,t1,a7
    3fda:	0001                	nop
    3fdc:	e9c89317          	auipc	t1,0xe9c89
    3fe0:	4048dcbb          	sraw	s9,a7,tp
    3fe4:	00e1d23b          	srlw	tp,gp,a4
    3fe8:	01a37233          	and	tp,t1,s10
    3fec:	e0a1059b          	addiw	a1,sp,-502
    3ff0:	0a04                	addi	s1,sp,272
    3ff2:	00fed41b          	srliw	s0,t4,0xf
    3ff6:	0001                	nop
    3ff8:	0001                	nop
    3ffa:	42686493          	ori	s1,a6,1062
    3ffe:	808d                	srli	s1,s1,0x3
    4000:	1f7d                	addi	t5,t5,-1
    4002:	42686493          	ori	s1,a6,1062
    4006:	039f7a3b          	remuw	s4,t5,s9
    400a:	40865a1b          	sraiw	s4,a2,0x8
    400e:	0001                	nop
    4010:	02e189bb          	mulw	s3,gp,a4
    4014:	00f31f9b          	slliw	t6,t1,0xf
    4018:	4048dcbb          	sraw	s9,a7,tp
    401c:	01a3ba33          	sltu	s4,t2,s10
    4020:	987d                	andi	s0,s0,-1
    4022:	039f7a3b          	remuw	s4,t5,s9
    4026:	0a04                	addi	s1,sp,272
    4028:	40865a1b          	sraiw	s4,a2,0x8
    402c:	03509613          	slli	a2,ra,0x35
    4030:	004e5ab3          	srl	s5,t3,tp
    4034:	090e                	slli	s2,s2,0x3
    4036:	033fd793          	srli	a5,t6,0x33
    403a:	039f7a3b          	remuw	s4,t5,s9
    403e:	5d328737          	lui	a4,0x5d328
    4042:	40dad233          	sra	tp,s5,a3
    4046:	01182a33          	slt	s4,a6,a7
    404a:	8ec9                	or	a3,a3,a0
    404c:	039f7a3b          	remuw	s4,t5,s9
    4050:	8ec9                	or	a3,a3,a0
    4052:	004e5ab3          	srl	s5,t3,tp
    4056:	01320b3b          	addw	s6,tp,s3
    405a:	808d                	srli	s1,s1,0x3
    405c:	9ead                	addw	a3,a3,a1
    405e:	02f24d3b          	divw	s10,tp,a5
    4062:	0001                	nop
    4064:	00fed41b          	srliw	s0,t4,0xf
    4068:	02f24d3b          	divw	s10,tp,a5
    406c:	9ead                	addw	a3,a3,a1
    406e:	987d                	andi	s0,s0,-1
    4070:	717d                	addi	sp,sp,-16
    4072:	037f9333          	mulh	t1,t6,s7
    4076:	808d                	srli	s1,s1,0x3
    4078:	13ad0213          	addi	tp,s10,314
    407c:	00f48133          	add	sp,s1,a5
    4080:	6eed                	lui	t4,0x1b
    4082:	004e5ab3          	srl	s5,t3,tp
    4086:	02817933          	remu	s2,sp,s0
    408a:	88d2                	mv	a7,s4
    408c:	40865a1b          	sraiw	s4,a2,0x8
    4090:	01a3ba33          	sltu	s4,t2,s10
    4094:	40865a1b          	sraiw	s4,a2,0x8
    4098:	00f48133          	add	sp,s1,a5
    409c:	317d                	addiw	sp,sp,-1
    409e:	e9c89317          	auipc	t1,0xe9c89
    40a2:	13ad0213          	addi	tp,s10,314
    40a6:	e9c89317          	auipc	t1,0xe9c89
    40aa:	dfa53c93          	sltiu	s9,a0,-518
    40ae:	004e5ab3          	srl	s5,t3,tp
    40b2:	00e1d23b          	srlw	tp,gp,a4
    40b6:	8439                	srai	s0,s0,0xe
    40b8:	51fd                	li	gp,-1
    40ba:	8ef1                	and	a3,a3,a2
    40bc:	02817933          	remu	s2,sp,s0
    40c0:	004e5ab3          	srl	s5,t3,tp
    40c4:	5d328737          	lui	a4,0x5d328
    40c8:	8d3d                	xor	a0,a0,a5
    40ca:	090e                	slli	s2,s2,0x3
    40cc:	8ec9                	or	a3,a3,a0
    40ce:	9c8d                	subw	s1,s1,a1
    40d0:	dfa53c93          	sltiu	s9,a0,-518
    40d4:	40dad233          	sra	tp,s5,a3
    40d8:	88d2                	mv	a7,s4
    40da:	54f6a993          	slti	s3,a3,1359
    40de:	41d98233          	sub	tp,s3,t4
    40e2:	090e                	slli	s2,s2,0x3
    40e4:	00f31f9b          	slliw	t6,t1,0xf
    40e8:	00fed41b          	srliw	s0,t4,0xf
    40ec:	1f7d                	addi	t5,t5,-1
    40ee:	02e964b3          	rem	s1,s2,a4
    40f2:	02817933          	remu	s2,sp,s0
    40f6:	0a04                	addi	s1,sp,272
    40f8:	03e0c033          	div	zero,ra,t5
    40fc:	4048dcbb          	sraw	s9,a7,tp
    4100:	41d98233          	sub	tp,s3,t4
    4104:	00f48133          	add	sp,s1,a5
    4108:	037f9333          	mulh	t1,t6,s7
    410c:	317d                	addiw	sp,sp,-1
    410e:	0313633b          	remw	t1,t1,a7
    4112:	00f48133          	add	sp,s1,a5
    4116:	1f7d                	addi	t5,t5,-1
    4118:	40865a1b          	sraiw	s4,a2,0x8
    411c:	008643b3          	xor	t2,a2,s0
    4120:	02e8b633          	mulhu	a2,a7,a4
    4124:	01f099b3          	sll	s3,ra,t6
    4128:	41d98233          	sub	tp,s3,t4
    412c:	01a37233          	and	tp,t1,s10
    4130:	88d2                	mv	a7,s4
    4132:	88d2                	mv	a7,s4
    4134:	00e1d23b          	srlw	tp,gp,a4
    4138:	42686493          	ori	s1,a6,1062
    413c:	00fed41b          	srliw	s0,t4,0xf
    4140:	00f164b3          	or	s1,sp,a5
    4144:	41c7043b          	subw	s0,a4,t3
    4148:	00f48133          	add	sp,s1,a5
    414c:	033fd793          	srli	a5,t6,0x33
    4150:	8d01                	sub	a0,a0,s0
    4152:	02f24d3b          	divw	s10,tp,a5
    4156:	808d                	srli	s1,s1,0x3
    4158:	0001                	nop
    415a:	090e                	slli	s2,s2,0x3
    415c:	dfa53c93          	sltiu	s9,a0,-518
    4160:	02dadfb3          	divu	t6,s5,a3
    4164:	01f099b3          	sll	s3,ra,t6
    4168:	54f6a993          	slti	s3,a3,1359
    416c:	41d98233          	sub	tp,s3,t4
    4170:	9c8d                	subw	s1,s1,a1
    4172:	03509613          	slli	a2,ra,0x35
    4176:	8ef1                	and	a3,a3,a2
    4178:	03509613          	slli	a2,ra,0x35
    417c:	717d                	addi	sp,sp,-16
    417e:	016a92bb          	sllw	t0,s5,s6
    4182:	808d                	srli	s1,s1,0x3
    4184:	8ef1                	and	a3,a3,a2
    4186:	033fd793          	srli	a5,t6,0x33
    418a:	037f9333          	mulh	t1,t6,s7
    418e:	004e5ab3          	srl	s5,t3,tp
    4192:	00f48133          	add	sp,s1,a5
    4196:	4048dcbb          	sraw	s9,a7,tp
    419a:	8439                	srai	s0,s0,0xe
    419c:	02dadfb3          	divu	t6,s5,a3
    41a0:	9c8d                	subw	s1,s1,a1
    41a2:	02e964b3          	rem	s1,s2,a4
    41a6:	0001                	nop
    41a8:	40675113          	srai	sp,a4,0x6
    41ac:	02817933          	remu	s2,sp,s0
    41b0:	40dad233          	sra	tp,s5,a3
    41b4:	0001                	nop
    41b6:	8ec9                	or	a3,a3,a0
    41b8:	40865a1b          	sraiw	s4,a2,0x8
    41bc:	00e1d23b          	srlw	tp,gp,a4
    41c0:	41c7043b          	subw	s0,a4,t3
    41c4:	e0a1059b          	addiw	a1,sp,-502
    41c8:	4048dcbb          	sraw	s9,a7,tp
    41cc:	090e                	slli	s2,s2,0x3
    41ce:	88d2                	mv	a7,s4
    41d0:	00f48133          	add	sp,s1,a5
    41d4:	51fd                	li	gp,-1
    41d6:	090e                	slli	s2,s2,0x3
    41d8:	03509613          	slli	a2,ra,0x35
    41dc:	51fd                	li	gp,-1
    41de:	e9c89317          	auipc	t1,0xe9c89
    41e2:	e9c89317          	auipc	t1,0xe9c89
    41e6:	0001                	nop
    41e8:	0398d53b          	divuw	a0,a7,s9
    41ec:	0001                	nop
    41ee:	02e964b3          	rem	s1,s2,a4
    41f2:	717d                	addi	sp,sp,-16
    41f4:	1f7d                	addi	t5,t5,-1
    41f6:	0313633b          	remw	t1,t1,a7
    41fa:	6eed                	lui	t4,0x1b
    41fc:	dfa53c93          	sltiu	s9,a0,-518
    4200:	9ead                	addw	a3,a3,a1
    4202:	01f099b3          	sll	s3,ra,t6
    4206:	02dadfb3          	divu	t6,s5,a3
    420a:	8d01                	sub	a0,a0,s0
    420c:	016a92bb          	sllw	t0,s5,s6
    4210:	008643b3          	xor	t2,a2,s0
    4214:	961a                	add	a2,a2,t1
    4216:	016a92bb          	sllw	t0,s5,s6
    421a:	8d01                	sub	a0,a0,s0
    421c:	0001                	nop
    421e:	6eed                	lui	t4,0x1b
    4220:	38057713          	andi	a4,a0,896
    4224:	8439                	srai	s0,s0,0xe
    4226:	4048dcbb          	sraw	s9,a7,tp
    422a:	0313633b          	remw	t1,t1,a7
    422e:	41c7043b          	subw	s0,a4,t3
    4232:	40675113          	srai	sp,a4,0x6
    4236:	090e                	slli	s2,s2,0x3
    4238:	029d29b3          	mulhsu	s3,s10,s1
    423c:	02e964b3          	rem	s1,s2,a4
    4240:	01f099b3          	sll	s3,ra,t6
    4244:	41c7043b          	subw	s0,a4,t3
    4248:	01a3ba33          	sltu	s4,t2,s10
    424c:	004e5ab3          	srl	s5,t3,tp
    4250:	00f31f9b          	slliw	t6,t1,0xf
    4254:	0a04                	addi	s1,sp,272
    4256:	6eed                	lui	t4,0x1b
    4258:	029d29b3          	mulhsu	s3,s10,s1
    425c:	00f48133          	add	sp,s1,a5
    4260:	40dad233          	sra	tp,s5,a3
    4264:	8d3d                	xor	a0,a0,a5
    4266:	40675113          	srai	sp,a4,0x6
    426a:	02c78bb3          	mul	s7,a5,a2
    426e:	e9c89317          	auipc	t1,0xe9c89
    4272:	02e8b633          	mulhu	a2,a7,a4
    4276:	40dad233          	sra	tp,s5,a3
    427a:	42686493          	ori	s1,a6,1062
    427e:	00f164b3          	or	s1,sp,a5
    4282:	9c8d                	subw	s1,s1,a1
    4284:	02e189bb          	mulw	s3,gp,a4
    4288:	e0a1059b          	addiw	a1,sp,-502
    428c:	00e1d23b          	srlw	tp,gp,a4
    4290:	13ad0213          	addi	tp,s10,314
    4294:	41c7043b          	subw	s0,a4,t3
    4298:	38057713          	andi	a4,a0,896
    429c:	00f31f9b          	slliw	t6,t1,0xf
    42a0:	987d                	andi	s0,s0,-1
    42a2:	01a37233          	and	tp,t1,s10
    42a6:	008643b3          	xor	t2,a2,s0
    42aa:	00f48133          	add	sp,s1,a5
    42ae:	42686493          	ori	s1,a6,1062
    42b2:	03e0c033          	div	zero,ra,t5
    42b6:	00f164b3          	or	s1,sp,a5
    42ba:	40dad233          	sra	tp,s5,a3
    42be:	0398d53b          	divuw	a0,a7,s9
    42c2:	037f9333          	mulh	t1,t6,s7
    42c6:	6eed                	lui	t4,0x1b
    42c8:	88d2                	mv	a7,s4
    42ca:	0001                	nop
    42cc:	88d2                	mv	a7,s4
    42ce:	9c8d                	subw	s1,s1,a1
    42d0:	016a92bb          	sllw	t0,s5,s6
    42d4:	e0a1059b          	addiw	a1,sp,-502
    42d8:	41c7043b          	subw	s0,a4,t3
    42dc:	9c8d                	subw	s1,s1,a1
    42de:	02e189bb          	mulw	s3,gp,a4
    42e2:	dfa53c93          	sltiu	s9,a0,-518
    42e6:	00fed41b          	srliw	s0,t4,0xf
    42ea:	6eed                	lui	t4,0x1b
    42ec:	6eed                	lui	t4,0x1b
    42ee:	008643b3          	xor	t2,a2,s0
    42f2:	9ead                	addw	a3,a3,a1
    42f4:	00e1d23b          	srlw	tp,gp,a4
    42f8:	9abbcc93          	xori	s9,s7,-1621
    42fc:	6eed                	lui	t4,0x1b
    42fe:	dfa53c93          	sltiu	s9,a0,-518
    4302:	033fd793          	srli	a5,t6,0x33
    4306:	40dad233          	sra	tp,s5,a3
    430a:	dfa53c93          	sltiu	s9,a0,-518
    430e:	88d2                	mv	a7,s4
    4310:	00f48133          	add	sp,s1,a5
    4314:	8ec9                	or	a3,a3,a0
    4316:	00e1d23b          	srlw	tp,gp,a4
    431a:	033fd793          	srli	a5,t6,0x33
    431e:	6eed                	lui	t4,0x1b
    4320:	54f6a993          	slti	s3,a3,1359
    4324:	037f9333          	mulh	t1,t6,s7
    4328:	961a                	add	a2,a2,t1
    432a:	0001                	nop
    432c:	40865a1b          	sraiw	s4,a2,0x8
    4330:	004e5ab3          	srl	s5,t3,tp
    4334:	88d2                	mv	a7,s4
    4336:	1f7d                	addi	t5,t5,-1
    4338:	38057713          	andi	a4,a0,896
    433c:	090e                	slli	s2,s2,0x3
    433e:	0001                	nop
    4340:	717d                	addi	sp,sp,-16
    4342:	9abbcc93          	xori	s9,s7,-1621
    4346:	9ead                	addw	a3,a3,a1
    4348:	01a37233          	and	tp,t1,s10
    434c:	00f48133          	add	sp,s1,a5
    4350:	02c78bb3          	mul	s7,a5,a2
    4354:	51fd                	li	gp,-1
    4356:	4048dcbb          	sraw	s9,a7,tp
    435a:	4048dcbb          	sraw	s9,a7,tp
    435e:	0001                	nop
    4360:	02e964b3          	rem	s1,s2,a4
    4364:	00f31f9b          	slliw	t6,t1,0xf
    4368:	02e964b3          	rem	s1,s2,a4
    436c:	090e                	slli	s2,s2,0x3
    436e:	02e8b633          	mulhu	a2,a7,a4
    4372:	016a92bb          	sllw	t0,s5,s6
    4376:	033fd793          	srli	a5,t6,0x33
    437a:	090e                	slli	s2,s2,0x3
    437c:	004e5ab3          	srl	s5,t3,tp
    4380:	02e964b3          	rem	s1,s2,a4
    4384:	01f099b3          	sll	s3,ra,t6
    4388:	5d328737          	lui	a4,0x5d328
    438c:	8439                	srai	s0,s0,0xe
    438e:	090e                	slli	s2,s2,0x3
    4390:	40dad233          	sra	tp,s5,a3
    4394:	40675113          	srai	sp,a4,0x6
    4398:	039f7a3b          	remuw	s4,t5,s9
    439c:	0398d53b          	divuw	a0,a7,s9
    43a0:	02f24d3b          	divw	s10,tp,a5
    43a4:	090e                	slli	s2,s2,0x3
    43a6:	01320b3b          	addw	s6,tp,s3
    43aa:	e0a1059b          	addiw	a1,sp,-502
    43ae:	717d                	addi	sp,sp,-16
    43b0:	029d29b3          	mulhsu	s3,s10,s1
    43b4:	02e964b3          	rem	s1,s2,a4
    43b8:	02f24d3b          	divw	s10,tp,a5
    43bc:	029d29b3          	mulhsu	s3,s10,s1
    43c0:	40675113          	srai	sp,a4,0x6
    43c4:	0001                	nop
    43c6:	008643b3          	xor	t2,a2,s0
    43ca:	808d                	srli	s1,s1,0x3
    43cc:	8d3d                	xor	a0,a0,a5
    43ce:	8439                	srai	s0,s0,0xe
    43d0:	40865a1b          	sraiw	s4,a2,0x8
    43d4:	88d2                	mv	a7,s4
    43d6:	88d2                	mv	a7,s4
    43d8:	9abbcc93          	xori	s9,s7,-1621
    43dc:	03e0c033          	div	zero,ra,t5
    43e0:	8d01                	sub	a0,a0,s0
    43e2:	037f9333          	mulh	t1,t6,s7
    43e6:	016a92bb          	sllw	t0,s5,s6
    43ea:	0001                	nop
    43ec:	961a                	add	a2,a2,t1
    43ee:	40865a1b          	sraiw	s4,a2,0x8
    43f2:	961a                	add	a2,a2,t1
    43f4:	01f099b3          	sll	s3,ra,t6
    43f8:	8439                	srai	s0,s0,0xe
    43fa:	e0a1059b          	addiw	a1,sp,-502
    43fe:	41d98233          	sub	tp,s3,t4
    4402:	e9c89317          	auipc	t1,0xe9c89
    4406:	01a3ba33          	sltu	s4,t2,s10
    440a:	0398d53b          	divuw	a0,a7,s9
    440e:	00e1d23b          	srlw	tp,gp,a4
    4412:	8439                	srai	s0,s0,0xe
    4414:	02c78bb3          	mul	s7,a5,a2
    4418:	0001                	nop
    441a:	41c7043b          	subw	s0,a4,t3
    441e:	004e5ab3          	srl	s5,t3,tp
    4422:	02f24d3b          	divw	s10,tp,a5
    4426:	987d                	andi	s0,s0,-1
    4428:	9c8d                	subw	s1,s1,a1
    442a:	01a37233          	and	tp,t1,s10
    442e:	00f164b3          	or	s1,sp,a5
    4432:	51fd                	li	gp,-1
    4434:	717d                	addi	sp,sp,-16
    4436:	00e1d23b          	srlw	tp,gp,a4
    443a:	029d29b3          	mulhsu	s3,s10,s1
    443e:	e0a1059b          	addiw	a1,sp,-502
    4442:	0001                	nop
    4444:	e0a1059b          	addiw	a1,sp,-502
    4448:	00f164b3          	or	s1,sp,a5
    444c:	02dadfb3          	divu	t6,s5,a3
    4450:	03509613          	slli	a2,ra,0x35
    4454:	40865a1b          	sraiw	s4,a2,0x8
    4458:	808d                	srli	s1,s1,0x3
    445a:	0001                	nop
    445c:	02dadfb3          	divu	t6,s5,a3
    4460:	41d98233          	sub	tp,s3,t4
    4464:	9abbcc93          	xori	s9,s7,-1621
    4468:	9ead                	addw	a3,a3,a1
    446a:	033fd793          	srli	a5,t6,0x33
    446e:	00f31f9b          	slliw	t6,t1,0xf
    4472:	0001                	nop
    4474:	9c8d                	subw	s1,s1,a1
    4476:	88d2                	mv	a7,s4
    4478:	00f164b3          	or	s1,sp,a5
    447c:	03e0c033          	div	zero,ra,t5
    4480:	0001                	nop
    4482:	38057713          	andi	a4,a0,896
    4486:	9ead                	addw	a3,a3,a1
    4488:	13ad0213          	addi	tp,s10,314
    448c:	03509613          	slli	a2,ra,0x35
    4490:	0001                	nop
    4492:	03e0c033          	div	zero,ra,t5
    4496:	9c8d                	subw	s1,s1,a1
    4498:	51fd                	li	gp,-1
    449a:	0001                	nop
    449c:	02c78bb3          	mul	s7,a5,a2
    44a0:	00e1d23b          	srlw	tp,gp,a4
    44a4:	dfa53c93          	sltiu	s9,a0,-518
    44a8:	dfa53c93          	sltiu	s9,a0,-518
    44ac:	961a                	add	a2,a2,t1
    44ae:	808d                	srli	s1,s1,0x3
    44b0:	e0a1059b          	addiw	a1,sp,-502
    44b4:	41d98233          	sub	tp,s3,t4
    44b8:	88d2                	mv	a7,s4
    44ba:	808d                	srli	s1,s1,0x3
    44bc:	40865a1b          	sraiw	s4,a2,0x8
    44c0:	033fd793          	srli	a5,t6,0x33
    44c4:	40865a1b          	sraiw	s4,a2,0x8
    44c8:	02e964b3          	rem	s1,s2,a4
    44cc:	008643b3          	xor	t2,a2,s0
    44d0:	02c78bb3          	mul	s7,a5,a2
    44d4:	40865a1b          	sraiw	s4,a2,0x8
    44d8:	02e189bb          	mulw	s3,gp,a4
    44dc:	00f31f9b          	slliw	t6,t1,0xf
    44e0:	0001                	nop
    44e2:	0a04                	addi	s1,sp,272
    44e4:	02e964b3          	rem	s1,s2,a4
    44e8:	00f164b3          	or	s1,sp,a5
    44ec:	9abbcc93          	xori	s9,s7,-1621
    44f0:	8d01                	sub	a0,a0,s0
    44f2:	02e8b633          	mulhu	a2,a7,a4
    44f6:	0313633b          	remw	t1,t1,a7
    44fa:	00f31f9b          	slliw	t6,t1,0xf
    44fe:	e0a1059b          	addiw	a1,sp,-502
    4502:	039f7a3b          	remuw	s4,t5,s9
    4506:	40675113          	srai	sp,a4,0x6
    450a:	987d                	andi	s0,s0,-1
    450c:	0001                	nop
    450e:	6eed                	lui	t4,0x1b
    4510:	01f099b3          	sll	s3,ra,t6
    4514:	03509613          	slli	a2,ra,0x35
    4518:	033fd793          	srli	a5,t6,0x33
    451c:	0001                	nop
    451e:	00f164b3          	or	s1,sp,a5
    4522:	717d                	addi	sp,sp,-16
    4524:	0313633b          	remw	t1,t1,a7
    4528:	41d98233          	sub	tp,s3,t4
    452c:	0313633b          	remw	t1,t1,a7
    4530:	00fed41b          	srliw	s0,t4,0xf
    4534:	51fd                	li	gp,-1
    4536:	9ead                	addw	a3,a3,a1
    4538:	01a37233          	and	tp,t1,s10
    453c:	008643b3          	xor	t2,a2,s0
    4540:	0398d53b          	divuw	a0,a7,s9
    4544:	8d01                	sub	a0,a0,s0
    4546:	961a                	add	a2,a2,t1
    4548:	8ec9                	or	a3,a3,a0
    454a:	039f7a3b          	remuw	s4,t5,s9
    454e:	004e5ab3          	srl	s5,t3,tp
    4552:	88d2                	mv	a7,s4
    4554:	40865a1b          	sraiw	s4,a2,0x8
    4558:	54f6a993          	slti	s3,a3,1359
    455c:	03e0c033          	div	zero,ra,t5
    4560:	039f7a3b          	remuw	s4,t5,s9
    4564:	88d2                	mv	a7,s4
    4566:	02dadfb3          	divu	t6,s5,a3
    456a:	38057713          	andi	a4,a0,896
    456e:	01182a33          	slt	s4,a6,a7
    4572:	01182a33          	slt	s4,a6,a7
    4576:	0a04                	addi	s1,sp,272
    4578:	02f24d3b          	divw	s10,tp,a5
    457c:	8ef1                	and	a3,a3,a2
    457e:	0313633b          	remw	t1,t1,a7
    4582:	1f7d                	addi	t5,t5,-1
    4584:	01a37233          	and	tp,t1,s10
    4588:	02f24d3b          	divw	s10,tp,a5
    458c:	717d                	addi	sp,sp,-16
    458e:	9c8d                	subw	s1,s1,a1
    4590:	016a92bb          	sllw	t0,s5,s6
    4594:	dfa53c93          	sltiu	s9,a0,-518
    4598:	02c78bb3          	mul	s7,a5,a2
    459c:	8ef1                	and	a3,a3,a2
    459e:	02dadfb3          	divu	t6,s5,a3
    45a2:	03509613          	slli	a2,ra,0x35
    45a6:	00e1d23b          	srlw	tp,gp,a4
    45aa:	41d98233          	sub	tp,s3,t4
    45ae:	033fd793          	srli	a5,t6,0x33
    45b2:	6eed                	lui	t4,0x1b
    45b4:	987d                	andi	s0,s0,-1
    45b6:	9abbcc93          	xori	s9,s7,-1621
    45ba:	8ef1                	and	a3,a3,a2
    45bc:	03e0c033          	div	zero,ra,t5
    45c0:	02817933          	remu	s2,sp,s0
    45c4:	88d2                	mv	a7,s4
    45c6:	01182a33          	slt	s4,a6,a7
    45ca:	4048dcbb          	sraw	s9,a7,tp
    45ce:	961a                	add	a2,a2,t1
    45d0:	00e1d23b          	srlw	tp,gp,a4
    45d4:	090e                	slli	s2,s2,0x3
    45d6:	0a04                	addi	s1,sp,272
    45d8:	808d                	srli	s1,s1,0x3
    45da:	8ec9                	or	a3,a3,a0
    45dc:	e9c89317          	auipc	t1,0xe9c89
    45e0:	9c8d                	subw	s1,s1,a1
    45e2:	00f31f9b          	slliw	t6,t1,0xf
    45e6:	1f7d                	addi	t5,t5,-1
    45e8:	02817933          	remu	s2,sp,s0
    45ec:	01320b3b          	addw	s6,tp,s3
    45f0:	8ec9                	or	a3,a3,a0
    45f2:	039f7a3b          	remuw	s4,t5,s9
    45f6:	029d29b3          	mulhsu	s3,s10,s1
    45fa:	1f7d                	addi	t5,t5,-1
    45fc:	41d98233          	sub	tp,s3,t4
    4600:	00e1d23b          	srlw	tp,gp,a4
    4604:	01a3ba33          	sltu	s4,t2,s10
    4608:	037f9333          	mulh	t1,t6,s7
    460c:	8ef1                	and	a3,a3,a2
    460e:	88d2                	mv	a7,s4
    4610:	40865a1b          	sraiw	s4,a2,0x8
    4614:	00f31f9b          	slliw	t6,t1,0xf
    4618:	e9c89317          	auipc	t1,0xe9c89
    461c:	039f7a3b          	remuw	s4,t5,s9
    4620:	717d                	addi	sp,sp,-16
    4622:	00f31f9b          	slliw	t6,t1,0xf
    4626:	029d29b3          	mulhsu	s3,s10,s1
    462a:	40675113          	srai	sp,a4,0x6
    462e:	9c8d                	subw	s1,s1,a1
    4630:	51fd                	li	gp,-1
    4632:	0001                	nop
    4634:	8ec9                	or	a3,a3,a0
    4636:	03e0c033          	div	zero,ra,t5
    463a:	dfa53c93          	sltiu	s9,a0,-518
    463e:	4048dcbb          	sraw	s9,a7,tp
    4642:	01a37233          	and	tp,t1,s10
    4646:	51fd                	li	gp,-1
    4648:	1f7d                	addi	t5,t5,-1
    464a:	02e964b3          	rem	s1,s2,a4
    464e:	00f31f9b          	slliw	t6,t1,0xf
    4652:	88d2                	mv	a7,s4
    4654:	4048dcbb          	sraw	s9,a7,tp
    4658:	40865a1b          	sraiw	s4,a2,0x8
    465c:	01182a33          	slt	s4,a6,a7
    4660:	01320b3b          	addw	s6,tp,s3
    4664:	0a04                	addi	s1,sp,272
    4666:	6eed                	lui	t4,0x1b
    4668:	02817933          	remu	s2,sp,s0
    466c:	00e1d23b          	srlw	tp,gp,a4
    4670:	01f099b3          	sll	s3,ra,t6
    4674:	9abbcc93          	xori	s9,s7,-1621
    4678:	9c8d                	subw	s1,s1,a1
    467a:	6eed                	lui	t4,0x1b
    467c:	016a92bb          	sllw	t0,s5,s6
    4680:	8d01                	sub	a0,a0,s0
    4682:	00f164b3          	or	s1,sp,a5
    4686:	42686493          	ori	s1,a6,1062
    468a:	8ef1                	and	a3,a3,a2
    468c:	039f7a3b          	remuw	s4,t5,s9
    4690:	00fed41b          	srliw	s0,t4,0xf
    4694:	00f48133          	add	sp,s1,a5
    4698:	8ef1                	and	a3,a3,a2
    469a:	039f7a3b          	remuw	s4,t5,s9
    469e:	0001                	nop
    46a0:	dfa53c93          	sltiu	s9,a0,-518
    46a4:	e9c89317          	auipc	t1,0xe9c89
    46a8:	01320b3b          	addw	s6,tp,s3
    46ac:	0a04                	addi	s1,sp,272
    46ae:	808d                	srli	s1,s1,0x3
    46b0:	717d                	addi	sp,sp,-16
    46b2:	004e5ab3          	srl	s5,t3,tp
    46b6:	13ad0213          	addi	tp,s10,314
    46ba:	8439                	srai	s0,s0,0xe
    46bc:	0398d53b          	divuw	a0,a7,s9
    46c0:	987d                	andi	s0,s0,-1
    46c2:	8439                	srai	s0,s0,0xe
    46c4:	02e8b633          	mulhu	a2,a7,a4
    46c8:	033fd793          	srli	a5,t6,0x33
    46cc:	01182a33          	slt	s4,a6,a7
    46d0:	8ec9                	or	a3,a3,a0
    46d2:	0313633b          	remw	t1,t1,a7
    46d6:	8439                	srai	s0,s0,0xe
    46d8:	02c78bb3          	mul	s7,a5,a2
    46dc:	717d                	addi	sp,sp,-16
    46de:	808d                	srli	s1,s1,0x3
    46e0:	54f6a993          	slti	s3,a3,1359
    46e4:	317d                	addiw	sp,sp,-1
    46e6:	987d                	andi	s0,s0,-1
    46e8:	40dad233          	sra	tp,s5,a3
    46ec:	033fd793          	srli	a5,t6,0x33
    46f0:	e0a1059b          	addiw	a1,sp,-502
    46f4:	40675113          	srai	sp,a4,0x6
    46f8:	13ad0213          	addi	tp,s10,314
    46fc:	13ad0213          	addi	tp,s10,314
    4700:	1f7d                	addi	t5,t5,-1
    4702:	987d                	andi	s0,s0,-1
    4704:	0313633b          	remw	t1,t1,a7
    4708:	0a04                	addi	s1,sp,272
    470a:	54f6a993          	slti	s3,a3,1359
    470e:	4048dcbb          	sraw	s9,a7,tp
    4712:	1f7d                	addi	t5,t5,-1
    4714:	dfa53c93          	sltiu	s9,a0,-518
    4718:	961a                	add	a2,a2,t1
    471a:	8439                	srai	s0,s0,0xe
    471c:	6eed                	lui	t4,0x1b
    471e:	717d                	addi	sp,sp,-16
    4720:	42686493          	ori	s1,a6,1062
    4724:	029d29b3          	mulhsu	s3,s10,s1
    4728:	02e964b3          	rem	s1,s2,a4
    472c:	40675113          	srai	sp,a4,0x6
    4730:	54f6a993          	slti	s3,a3,1359
    4734:	961a                	add	a2,a2,t1
    4736:	88d2                	mv	a7,s4
    4738:	01182a33          	slt	s4,a6,a7
    473c:	8439                	srai	s0,s0,0xe
    473e:	02f24d3b          	divw	s10,tp,a5
    4742:	029d29b3          	mulhsu	s3,s10,s1
    4746:	0a04                	addi	s1,sp,272
    4748:	01f099b3          	sll	s3,ra,t6
    474c:	9ead                	addw	a3,a3,a1
    474e:	40dad233          	sra	tp,s5,a3
    4752:	02f24d3b          	divw	s10,tp,a5
    4756:	40675113          	srai	sp,a4,0x6
    475a:	54f6a993          	slti	s3,a3,1359
    475e:	41d98233          	sub	tp,s3,t4
    4762:	9c8d                	subw	s1,s1,a1
    4764:	1f7d                	addi	t5,t5,-1
    4766:	029d29b3          	mulhsu	s3,s10,s1
    476a:	961a                	add	a2,a2,t1
    476c:	01f099b3          	sll	s3,ra,t6
    4770:	01182a33          	slt	s4,a6,a7
    4774:	9abbcc93          	xori	s9,s7,-1621
    4778:	02e189bb          	mulw	s3,gp,a4
    477c:	0001                	nop
    477e:	8d3d                	xor	a0,a0,a5
    4780:	40675113          	srai	sp,a4,0x6
    4784:	51fd                	li	gp,-1
    4786:	0001                	nop
    4788:	039f7a3b          	remuw	s4,t5,s9
    478c:	01320b3b          	addw	s6,tp,s3
    4790:	037f9333          	mulh	t1,t6,s7
    4794:	9ead                	addw	a3,a3,a1
    4796:	016a92bb          	sllw	t0,s5,s6
    479a:	8d3d                	xor	a0,a0,a5
    479c:	00f48133          	add	sp,s1,a5
    47a0:	02e189bb          	mulw	s3,gp,a4
    47a4:	40675113          	srai	sp,a4,0x6
    47a8:	02e8b633          	mulhu	a2,a7,a4
    47ac:	38057713          	andi	a4,a0,896
    47b0:	090e                	slli	s2,s2,0x3
    47b2:	41d98233          	sub	tp,s3,t4
    47b6:	0a04                	addi	s1,sp,272
    47b8:	02817933          	remu	s2,sp,s0
    47bc:	02817933          	remu	s2,sp,s0
    47c0:	717d                	addi	sp,sp,-16
    47c2:	dfa53c93          	sltiu	s9,a0,-518
    47c6:	033fd793          	srli	a5,t6,0x33
    47ca:	0398d53b          	divuw	a0,a7,s9
    47ce:	00e1d23b          	srlw	tp,gp,a4
    47d2:	02c78bb3          	mul	s7,a5,a2
    47d6:	016a92bb          	sllw	t0,s5,s6
    47da:	38057713          	andi	a4,a0,896
    47de:	e9c89317          	auipc	t1,0xe9c89
    47e2:	039f7a3b          	remuw	s4,t5,s9
    47e6:	02dadfb3          	divu	t6,s5,a3
    47ea:	03509613          	slli	a2,ra,0x35
    47ee:	02c78bb3          	mul	s7,a5,a2
    47f2:	8ec9                	or	a3,a3,a0
    47f4:	9ead                	addw	a3,a3,a1
    47f6:	008643b3          	xor	t2,a2,s0
    47fa:	8d01                	sub	a0,a0,s0
    47fc:	8ec9                	or	a3,a3,a0
    47fe:	9ead                	addw	a3,a3,a1
    4800:	0001                	nop
    4802:	090e                	slli	s2,s2,0x3
    4804:	8d01                	sub	a0,a0,s0
    4806:	dfa53c93          	sltiu	s9,a0,-518
    480a:	9abbcc93          	xori	s9,s7,-1621
    480e:	02817933          	remu	s2,sp,s0
    4812:	0398d53b          	divuw	a0,a7,s9
    4816:	00e1d23b          	srlw	tp,gp,a4
    481a:	01182a33          	slt	s4,a6,a7
    481e:	004e5ab3          	srl	s5,t3,tp
    4822:	0313633b          	remw	t1,t1,a7
    4826:	0001                	nop
    4828:	033fd793          	srli	a5,t6,0x33
    482c:	dfa53c93          	sltiu	s9,a0,-518
    4830:	808d                	srli	s1,s1,0x3
    4832:	40675113          	srai	sp,a4,0x6
    4836:	717d                	addi	sp,sp,-16
    4838:	8ec9                	or	a3,a3,a0
    483a:	8ec9                	or	a3,a3,a0
    483c:	02e189bb          	mulw	s3,gp,a4
    4840:	01a3ba33          	sltu	s4,t2,s10
    4844:	02e964b3          	rem	s1,s2,a4
    4848:	039f7a3b          	remuw	s4,t5,s9
    484c:	004e5ab3          	srl	s5,t3,tp
    4850:	01a3ba33          	sltu	s4,t2,s10
    4854:	1f7d                	addi	t5,t5,-1
    4856:	8ec9                	or	a3,a3,a0
    4858:	88d2                	mv	a7,s4
    485a:	00e1d23b          	srlw	tp,gp,a4
    485e:	00f164b3          	or	s1,sp,a5
    4862:	01320b3b          	addw	s6,tp,s3
    4866:	00f48133          	add	sp,s1,a5
    486a:	38057713          	andi	a4,a0,896
    486e:	42686493          	ori	s1,a6,1062
    4872:	00f31f9b          	slliw	t6,t1,0xf
    4876:	02c78bb3          	mul	s7,a5,a2
    487a:	40dad233          	sra	tp,s5,a3
    487e:	40675113          	srai	sp,a4,0x6
    4882:	8ec9                	or	a3,a3,a0
    4884:	40675113          	srai	sp,a4,0x6
    4888:	54f6a993          	slti	s3,a3,1359
    488c:	01a3ba33          	sltu	s4,t2,s10
    4890:	6eed                	lui	t4,0x1b
    4892:	961a                	add	a2,a2,t1
    4894:	029d29b3          	mulhsu	s3,s10,s1
    4898:	6eed                	lui	t4,0x1b
    489a:	9abbcc93          	xori	s9,s7,-1621
    489e:	01182a33          	slt	s4,a6,a7
    48a2:	13ad0213          	addi	tp,s10,314
    48a6:	02e189bb          	mulw	s3,gp,a4
    48aa:	5d328737          	lui	a4,0x5d328
    48ae:	00f48133          	add	sp,s1,a5
    48b2:	961a                	add	a2,a2,t1
    48b4:	00fed41b          	srliw	s0,t4,0xf
    48b8:	8ec9                	or	a3,a3,a0
    48ba:	01f099b3          	sll	s3,ra,t6
    48be:	9ead                	addw	a3,a3,a1
    48c0:	02c78bb3          	mul	s7,a5,a2
    48c4:	808d                	srli	s1,s1,0x3
    48c6:	03509613          	slli	a2,ra,0x35
    48ca:	42686493          	ori	s1,a6,1062
    48ce:	961a                	add	a2,a2,t1
    48d0:	51fd                	li	gp,-1
    48d2:	01320b3b          	addw	s6,tp,s3
    48d6:	03e0c033          	div	zero,ra,t5
    48da:	0398d53b          	divuw	a0,a7,s9
    48de:	037f9333          	mulh	t1,t6,s7
    48e2:	033fd793          	srli	a5,t6,0x33
    48e6:	02f24d3b          	divw	s10,tp,a5
    48ea:	02f24d3b          	divw	s10,tp,a5
    48ee:	9abbcc93          	xori	s9,s7,-1621
    48f2:	01f099b3          	sll	s3,ra,t6
    48f6:	00f48133          	add	sp,s1,a5
    48fa:	961a                	add	a2,a2,t1
    48fc:	00fed41b          	srliw	s0,t4,0xf
    4900:	008643b3          	xor	t2,a2,s0
    4904:	0a04                	addi	s1,sp,272
    4906:	0001                	nop
    4908:	00f164b3          	or	s1,sp,a5
    490c:	02e189bb          	mulw	s3,gp,a4
    4910:	41c7043b          	subw	s0,a4,t3
    4914:	02e189bb          	mulw	s3,gp,a4
    4918:	02817933          	remu	s2,sp,s0
    491c:	5d328737          	lui	a4,0x5d328
    4920:	01f099b3          	sll	s3,ra,t6
    4924:	54f6a993          	slti	s3,a3,1359
    4928:	42686493          	ori	s1,a6,1062
    492c:	01a3ba33          	sltu	s4,t2,s10
    4930:	02817933          	remu	s2,sp,s0
    4934:	016a92bb          	sllw	t0,s5,s6
    4938:	987d                	andi	s0,s0,-1
    493a:	029d29b3          	mulhsu	s3,s10,s1
    493e:	01a37233          	and	tp,t1,s10
    4942:	00f164b3          	or	s1,sp,a5
    4946:	090e                	slli	s2,s2,0x3
    4948:	4048dcbb          	sraw	s9,a7,tp
    494c:	808d                	srli	s1,s1,0x3
    494e:	54f6a993          	slti	s3,a3,1359
    4952:	e0a1059b          	addiw	a1,sp,-502
    4956:	6eed                	lui	t4,0x1b
    4958:	40dad233          	sra	tp,s5,a3
    495c:	037f9333          	mulh	t1,t6,s7
    4960:	090e                	slli	s2,s2,0x3
    4962:	008643b3          	xor	t2,a2,s0
    4966:	00fed41b          	srliw	s0,t4,0xf
    496a:	9abbcc93          	xori	s9,s7,-1621
    496e:	40675113          	srai	sp,a4,0x6
    4972:	008643b3          	xor	t2,a2,s0
    4976:	42686493          	ori	s1,a6,1062
    497a:	1f7d                	addi	t5,t5,-1
    497c:	039f7a3b          	remuw	s4,t5,s9
    4980:	40865a1b          	sraiw	s4,a2,0x8
    4984:	717d                	addi	sp,sp,-16
    4986:	0313633b          	remw	t1,t1,a7
    498a:	717d                	addi	sp,sp,-16
    498c:	dfa53c93          	sltiu	s9,a0,-518
    4990:	808d                	srli	s1,s1,0x3
    4992:	039f7a3b          	remuw	s4,t5,s9
    4996:	02c78bb3          	mul	s7,a5,a2
    499a:	039f7a3b          	remuw	s4,t5,s9
    499e:	808d                	srli	s1,s1,0x3
    49a0:	961a                	add	a2,a2,t1
    49a2:	00f31f9b          	slliw	t6,t1,0xf
    49a6:	03e0c033          	div	zero,ra,t5
    49aa:	0313633b          	remw	t1,t1,a7
    49ae:	8ec9                	or	a3,a3,a0
    49b0:	0398d53b          	divuw	a0,a7,s9
    49b4:	9abbcc93          	xori	s9,s7,-1621
    49b8:	41d98233          	sub	tp,s3,t4
    49bc:	9ead                	addw	a3,a3,a1
    49be:	0001                	nop
    49c0:	00f164b3          	or	s1,sp,a5
    49c4:	40675113          	srai	sp,a4,0x6
    49c8:	41d98233          	sub	tp,s3,t4
    49cc:	02e8b633          	mulhu	a2,a7,a4
    49d0:	033fd793          	srli	a5,t6,0x33
    49d4:	01320b3b          	addw	s6,tp,s3
    49d8:	8ef1                	and	a3,a3,a2
    49da:	01320b3b          	addw	s6,tp,s3
    49de:	41d98233          	sub	tp,s3,t4
    49e2:	016a92bb          	sllw	t0,s5,s6
    49e6:	00f31f9b          	slliw	t6,t1,0xf
    49ea:	8ec9                	or	a3,a3,a0
    49ec:	1f7d                	addi	t5,t5,-1
    49ee:	0a04                	addi	s1,sp,272
    49f0:	5d328737          	lui	a4,0x5d328
    49f4:	54f6a993          	slti	s3,a3,1359
    49f8:	40675113          	srai	sp,a4,0x6
    49fc:	5d328737          	lui	a4,0x5d328
    4a00:	0313633b          	remw	t1,t1,a7
    4a04:	51fd                	li	gp,-1
    4a06:	e9c89317          	auipc	t1,0xe9c89
    4a0a:	00f31f9b          	slliw	t6,t1,0xf
    4a0e:	41c7043b          	subw	s0,a4,t3
    4a12:	dfa53c93          	sltiu	s9,a0,-518
    4a16:	0001                	nop
    4a18:	008643b3          	xor	t2,a2,s0
    4a1c:	0313633b          	remw	t1,t1,a7
    4a20:	01320b3b          	addw	s6,tp,s3
    4a24:	033fd793          	srli	a5,t6,0x33
    4a28:	01a37233          	and	tp,t1,s10
    4a2c:	41c7043b          	subw	s0,a4,t3
    4a30:	4048dcbb          	sraw	s9,a7,tp
    4a34:	5d328737          	lui	a4,0x5d328
    4a38:	02e189bb          	mulw	s3,gp,a4
    4a3c:	dfa53c93          	sltiu	s9,a0,-518
    4a40:	02c78bb3          	mul	s7,a5,a2
    4a44:	8439                	srai	s0,s0,0xe
    4a46:	317d                	addiw	sp,sp,-1
    4a48:	0001                	nop
    4a4a:	9abbcc93          	xori	s9,s7,-1621
    4a4e:	01a37233          	and	tp,t1,s10
    4a52:	9c8d                	subw	s1,s1,a1
    4a54:	02e189bb          	mulw	s3,gp,a4
    4a58:	00e1d23b          	srlw	tp,gp,a4
    4a5c:	0398d53b          	divuw	a0,a7,s9
    4a60:	01320b3b          	addw	s6,tp,s3
    4a64:	00f48133          	add	sp,s1,a5
    4a68:	0398d53b          	divuw	a0,a7,s9
    4a6c:	016a92bb          	sllw	t0,s5,s6
    4a70:	02c78bb3          	mul	s7,a5,a2
    4a74:	0398d53b          	divuw	a0,a7,s9
    4a78:	9abbcc93          	xori	s9,s7,-1621
    4a7c:	008643b3          	xor	t2,a2,s0
    4a80:	0001                	nop
    4a82:	02dadfb3          	divu	t6,s5,a3
    4a86:	0a04                	addi	s1,sp,272
    4a88:	54f6a993          	slti	s3,a3,1359
    4a8c:	01182a33          	slt	s4,a6,a7
    4a90:	00f48133          	add	sp,s1,a5
    4a94:	039f7a3b          	remuw	s4,t5,s9
    4a98:	0398d53b          	divuw	a0,a7,s9
    4a9c:	033fd793          	srli	a5,t6,0x33
    4aa0:	03509613          	slli	a2,ra,0x35
    4aa4:	8d3d                	xor	a0,a0,a5
    4aa6:	02817933          	remu	s2,sp,s0
    4aaa:	02f24d3b          	divw	s10,tp,a5
    4aae:	8ef1                	and	a3,a3,a2
    4ab0:	5d328737          	lui	a4,0x5d328
    4ab4:	004e5ab3          	srl	s5,t3,tp
    4ab8:	9ead                	addw	a3,a3,a1
    4aba:	0001                	nop
    4abc:	00f164b3          	or	s1,sp,a5
    4ac0:	016a92bb          	sllw	t0,s5,s6
    4ac4:	0001                	nop
    4ac6:	0001                	nop
    4ac8:	03e0c033          	div	zero,ra,t5
    4acc:	02817933          	remu	s2,sp,s0
    4ad0:	8d01                	sub	a0,a0,s0
    4ad2:	13ad0213          	addi	tp,s10,314
    4ad6:	02dadfb3          	divu	t6,s5,a3
    4ada:	01a37233          	and	tp,t1,s10
    4ade:	41c7043b          	subw	s0,a4,t3
    4ae2:	00fed41b          	srliw	s0,t4,0xf
    4ae6:	01182a33          	slt	s4,a6,a7
    4aea:	01a37233          	and	tp,t1,s10
    4aee:	54f6a993          	slti	s3,a3,1359
    4af2:	00f164b3          	or	s1,sp,a5
    4af6:	00fed41b          	srliw	s0,t4,0xf
    4afa:	0001                	nop
    4afc:	01f099b3          	sll	s3,ra,t6
    4b00:	01a37233          	and	tp,t1,s10
    4b04:	e0a1059b          	addiw	a1,sp,-502
    4b08:	38057713          	andi	a4,a0,896
    4b0c:	987d                	andi	s0,s0,-1
    4b0e:	88d2                	mv	a7,s4
    4b10:	01f099b3          	sll	s3,ra,t6
    4b14:	00f31f9b          	slliw	t6,t1,0xf
    4b18:	090e                	slli	s2,s2,0x3
    4b1a:	01a37233          	and	tp,t1,s10
    4b1e:	090e                	slli	s2,s2,0x3
    4b20:	4048dcbb          	sraw	s9,a7,tp
    4b24:	0001                	nop
    4b26:	9c8d                	subw	s1,s1,a1
    4b28:	987d                	andi	s0,s0,-1
    4b2a:	9abbcc93          	xori	s9,s7,-1621
    4b2e:	4048dcbb          	sraw	s9,a7,tp
    4b32:	e9c89317          	auipc	t1,0xe9c89
    4b36:	317d                	addiw	sp,sp,-1
    4b38:	004e5ab3          	srl	s5,t3,tp
    4b3c:	40675113          	srai	sp,a4,0x6
    4b40:	38057713          	andi	a4,a0,896
    4b44:	008643b3          	xor	t2,a2,s0
    4b48:	00f164b3          	or	s1,sp,a5
    4b4c:	40dad233          	sra	tp,s5,a3
    4b50:	03509613          	slli	a2,ra,0x35
    4b54:	13ad0213          	addi	tp,s10,314
    4b58:	01182a33          	slt	s4,a6,a7
    4b5c:	40865a1b          	sraiw	s4,a2,0x8
    4b60:	0313633b          	remw	t1,t1,a7
    4b64:	88d2                	mv	a7,s4
    4b66:	717d                	addi	sp,sp,-16
    4b68:	808d                	srli	s1,s1,0x3
    4b6a:	00f164b3          	or	s1,sp,a5
    4b6e:	0001                	nop
    4b70:	6eed                	lui	t4,0x1b
    4b72:	01320b3b          	addw	s6,tp,s3
    4b76:	5d328737          	lui	a4,0x5d328
    4b7a:	9ead                	addw	a3,a3,a1
    4b7c:	38057713          	andi	a4,a0,896
    4b80:	42686493          	ori	s1,a6,1062
    4b84:	029d29b3          	mulhsu	s3,s10,s1
    4b88:	03e0c033          	div	zero,ra,t5
    4b8c:	808d                	srli	s1,s1,0x3
    4b8e:	8d3d                	xor	a0,a0,a5
    4b90:	5d328737          	lui	a4,0x5d328
    4b94:	03509613          	slli	a2,ra,0x35
    4b98:	02dadfb3          	divu	t6,s5,a3
    4b9c:	13ad0213          	addi	tp,s10,314
    4ba0:	54f6a993          	slti	s3,a3,1359
    4ba4:	13ad0213          	addi	tp,s10,314
    4ba8:	03509613          	slli	a2,ra,0x35
    4bac:	38057713          	andi	a4,a0,896
    4bb0:	e0a1059b          	addiw	a1,sp,-502
    4bb4:	01a37233          	and	tp,t1,s10
    4bb8:	0001                	nop
    4bba:	033fd793          	srli	a5,t6,0x33
    4bbe:	9abbcc93          	xori	s9,s7,-1621
    4bc2:	00f164b3          	or	s1,sp,a5
    4bc6:	9abbcc93          	xori	s9,s7,-1621
    4bca:	01a3ba33          	sltu	s4,t2,s10
    4bce:	03509613          	slli	a2,ra,0x35
    4bd2:	02e8b633          	mulhu	a2,a7,a4
    4bd6:	02c78bb3          	mul	s7,a5,a2
    4bda:	039f7a3b          	remuw	s4,t5,s9
    4bde:	987d                	andi	s0,s0,-1
    4be0:	4048dcbb          	sraw	s9,a7,tp
    4be4:	0a04                	addi	s1,sp,272
    4be6:	808d                	srli	s1,s1,0x3
    4be8:	00f48133          	add	sp,s1,a5
    4bec:	016a92bb          	sllw	t0,s5,s6
    4bf0:	090e                	slli	s2,s2,0x3
    4bf2:	029d29b3          	mulhsu	s3,s10,s1
    4bf6:	004e5ab3          	srl	s5,t3,tp
    4bfa:	8d3d                	xor	a0,a0,a5
    4bfc:	317d                	addiw	sp,sp,-1
    4bfe:	13ad0213          	addi	tp,s10,314
    4c02:	987d                	andi	s0,s0,-1
    4c04:	02c78bb3          	mul	s7,a5,a2
    4c08:	51fd                	li	gp,-1
    4c0a:	00fed41b          	srliw	s0,t4,0xf
    4c0e:	01a3ba33          	sltu	s4,t2,s10
    4c12:	808d                	srli	s1,s1,0x3
    4c14:	00f164b3          	or	s1,sp,a5
    4c18:	00f31f9b          	slliw	t6,t1,0xf
    4c1c:	004e5ab3          	srl	s5,t3,tp
    4c20:	717d                	addi	sp,sp,-16
    4c22:	004e5ab3          	srl	s5,t3,tp
    4c26:	02f24d3b          	divw	s10,tp,a5
    4c2a:	004e5ab3          	srl	s5,t3,tp
    4c2e:	42686493          	ori	s1,a6,1062
    4c32:	54f6a993          	slti	s3,a3,1359
    4c36:	6eed                	lui	t4,0x1b
    4c38:	dfa53c93          	sltiu	s9,a0,-518
    4c3c:	029d29b3          	mulhsu	s3,s10,s1
    4c40:	02e189bb          	mulw	s3,gp,a4
    4c44:	4048dcbb          	sraw	s9,a7,tp
    4c48:	0a04                	addi	s1,sp,272
    4c4a:	004e5ab3          	srl	s5,t3,tp
    4c4e:	e9c89317          	auipc	t1,0xe9c89
    4c52:	8ec9                	or	a3,a3,a0
    4c54:	02e189bb          	mulw	s3,gp,a4
    4c58:	037f9333          	mulh	t1,t6,s7
    4c5c:	dfa53c93          	sltiu	s9,a0,-518
    4c60:	03509613          	slli	a2,ra,0x35
    4c64:	1f7d                	addi	t5,t5,-1
    4c66:	008643b3          	xor	t2,a2,s0
    4c6a:	03e0c033          	div	zero,ra,t5
    4c6e:	01a3ba33          	sltu	s4,t2,s10
    4c72:	41d98233          	sub	tp,s3,t4
    4c76:	01a3ba33          	sltu	s4,t2,s10
    4c7a:	01f099b3          	sll	s3,ra,t6
    4c7e:	008643b3          	xor	t2,a2,s0
    4c82:	03509613          	slli	a2,ra,0x35
    4c86:	41c7043b          	subw	s0,a4,t3
    4c8a:	e9c89317          	auipc	t1,0xe9c89
    4c8e:	033fd793          	srli	a5,t6,0x33
    4c92:	40675113          	srai	sp,a4,0x6
    4c96:	00f48133          	add	sp,s1,a5
    4c9a:	41c7043b          	subw	s0,a4,t3
    4c9e:	1f7d                	addi	t5,t5,-1
    4ca0:	0398d53b          	divuw	a0,a7,s9
    4ca4:	13ad0213          	addi	tp,s10,314
    4ca8:	01f099b3          	sll	s3,ra,t6
    4cac:	8439                	srai	s0,s0,0xe
    4cae:	03509613          	slli	a2,ra,0x35
    4cb2:	9c8d                	subw	s1,s1,a1
    4cb4:	51fd                	li	gp,-1
    4cb6:	e9c89317          	auipc	t1,0xe9c89
    4cba:	0a04                	addi	s1,sp,272
    4cbc:	0398d53b          	divuw	a0,a7,s9
    4cc0:	41d98233          	sub	tp,s3,t4
    4cc4:	008643b3          	xor	t2,a2,s0
    4cc8:	02e8b633          	mulhu	a2,a7,a4
    4ccc:	02e189bb          	mulw	s3,gp,a4
    4cd0:	51fd                	li	gp,-1
