
/home/jonathanjonsson/MasterThesis/riscv-dv/out_2022-02-24/asm_test/riscv_arithmetic_basic_test_0.o:     file format elf64-littleriscv


Disassembly of section .text:

0000000000000000 <_start>:
       0:	f14022f3          	csrr	t0,mhartid
       4:	4301                	li	t1,0
       6:	00628263          	beq	t0,t1,a <_start+0xa>
       a:	00000817          	auipc	a6,0x0
       e:	00c80813          	addi	a6,a6,12 # 16 <h0_start>
      12:	00080067          	jr	a6

0000000000000016 <h0_start>:
      16:	fff00b9b          	addiw	s7,zero,-1
      1a:	1b9e                	slli	s7,s7,0x27
      1c:	0b85                	addi	s7,s7,1
      1e:	0bb2                	slli	s7,s7,0xc
      20:	841b8b93          	addi	s7,s7,-1983
      24:	0bb2                	slli	s7,s7,0xc
      26:	12db8b93          	addi	s7,s7,301
      2a:	301b9073          	csrw	misa,s7

000000000000002e <kernel_sp>:
      2e:	00020e17          	auipc	t3,0x20
      32:	ccae0e13          	addi	t3,t3,-822 # 1fcf8 <kernel_stack_end>

0000000000000036 <trap_vec_init>:
      36:	00001b97          	auipc	s7,0x1
      3a:	fcab8b93          	addi	s7,s7,-54 # 1000 <mtvec_handler>
      3e:	001beb93          	ori	s7,s7,1
      42:	305b9073          	csrw	mtvec,s7

0000000000000046 <pmp_setup>:
      46:	00001817          	auipc	a6,0x1
      4a:	79680813          	addi	a6,a6,1942 # 17dc <main>
      4e:	00285813          	srli	a6,a6,0x2
      52:	3b081073          	csrw	pmpaddr0,a6
      56:	483d                	li	a6,15
      58:	3a081073          	csrw	pmpcfg0,a6

000000000000005c <mepc_setup>:
      5c:	00000b97          	auipc	s7,0x0
      60:	02ab8b93          	addi	s7,s7,42 # 86 <init>
      64:	341b9073          	csrw	mepc,s7

0000000000000068 <custom_csr_setup>:
      68:	0001                	nop

000000000000006a <init_machine_mode>:
      6a:	00500bb7          	lui	s7,0x500
      6e:	041b8b9b          	addiw	s7,s7,65
      72:	0bb6                	slli	s7,s7,0xd
      74:	800b8b93          	addi	s7,s7,-2048 # 4ff800 <_end+0x4dfb00>
      78:	300b9073          	csrw	mstatus,s7
      7c:	4b81                	li	s7,0
      7e:	304b9073          	csrw	mie,s7
      82:	30200073          	mret

0000000000000086 <init>:
      86:	000ff037          	lui	zero,0xff
      8a:	7a30001b          	addiw	zero,zero,1955
      8e:	00c01013          	slli	zero,zero,0xc
      92:	3d800013          	li	zero,984
      96:	0010009b          	addiw	ra,zero,1
      9a:	00fe                	slli	ra,ra,0x1f
      9c:	4105                	li	sp,1
      9e:	41ad                	li	gp,11
      a0:	4205                	li	tp,1
      a2:	0010029b          	addiw	t0,zero,1
      a6:	02fe                	slli	t0,t0,0x1f
      a8:	4321                	li	t1,8
      aa:	6391                	lui	t2,0x4
      ac:	f1d3839b          	addiw	t2,t2,-227
      b0:	03ca                	slli	t2,t2,0x12
      b2:	c9838393          	addi	t2,t2,-872 # 3c98 <main+0x24bc>
      b6:	000f8437          	lui	s0,0xf8
      ba:	ec74041b          	addiw	s0,s0,-313
      be:	0432                	slli	s0,s0,0xc
      c0:	74140413          	addi	s0,s0,1857 # f8741 <_end+0xd8a41>
      c4:	0010049b          	addiw	s1,zero,1
      c8:	04fe                	slli	s1,s1,0x1f
      ca:	4509                	li	a0,2
      cc:	45bd                	li	a1,15
      ce:	4601                	li	a2,0
      d0:	46a1                	li	a3,8
      d2:	000a8737          	lui	a4,0xa8
      d6:	3f17071b          	addiw	a4,a4,1009
      da:	0732                	slli	a4,a4,0xc
      dc:	2db70713          	addi	a4,a4,731 # a82db <_end+0x885db>
      e0:	586b07b7          	lui	a5,0x586b0
      e4:	3791                	addiw	a5,a5,-28
      e6:	4801                	li	a6,0
      e8:	0010089b          	addiw	a7,zero,1
      ec:	08fe                	slli	a7,a7,0x1f
      ee:	4901                	li	s2,0
      f0:	000fd9b7          	lui	s3,0xfd
      f4:	8fd9899b          	addiw	s3,s3,-1795
      f8:	09b2                	slli	s3,s3,0xc
      fa:	e9a98993          	addi	s3,s3,-358 # fce9a <_end+0xdd19a>
      fe:	000f3a37          	lui	s4,0xf3
     102:	a43a0a1b          	addiw	s4,s4,-1469
     106:	0a32                	slli	s4,s4,0xc
     108:	2d8a0a13          	addi	s4,s4,728 # f32d8 <_end+0xd35d8>
     10c:	4a81                	li	s5,0
     10e:	4b29                	li	s6,10
     110:	798b5bb7          	lui	s7,0x798b5
     114:	b5eb8b9b          	addiw	s7,s7,-1186
     118:	491c3cb7          	lui	s9,0x491c3
     11c:	05bc8c9b          	addiw	s9,s9,91
     120:	4d01                	li	s10,0
     122:	4d81                	li	s11,0
     124:	4e81                	li	t4,0
     126:	4f01                	li	t5,0
     128:	000c4fb7          	lui	t6,0xc4
     12c:	2eff8f9b          	addiw	t6,t6,751
     130:	0fb2                	slli	t6,t6,0xc
     132:	736f8f93          	addi	t6,t6,1846 # c4736 <_end+0xa4a36>
     136:	00018c17          	auipc	s8,0x18
     13a:	b02c0c13          	addi	s8,s8,-1278 # 17c38 <user_stack_end>
     13e:	69e0106f          	j	17dc <main>

0000000000000142 <mmode_intr_vector_1>:
     142:	340c1c73          	csrrw	s8,mscratch,s8
     146:	000e0c33          	add	s8,t3,zero
     14a:	f08c0c13          	addi	s8,s8,-248
     14e:	001c3423          	sd	ra,8(s8)
     152:	002c3823          	sd	sp,16(s8)
     156:	003c3c23          	sd	gp,24(s8)
     15a:	024c3023          	sd	tp,32(s8)
     15e:	025c3423          	sd	t0,40(s8)
     162:	026c3823          	sd	t1,48(s8)
     166:	027c3c23          	sd	t2,56(s8)
     16a:	048c3023          	sd	s0,64(s8)
     16e:	049c3423          	sd	s1,72(s8)
     172:	04ac3823          	sd	a0,80(s8)
     176:	04bc3c23          	sd	a1,88(s8)
     17a:	06cc3023          	sd	a2,96(s8)
     17e:	06dc3423          	sd	a3,104(s8)
     182:	06ec3823          	sd	a4,112(s8)
     186:	06fc3c23          	sd	a5,120(s8)
     18a:	090c3023          	sd	a6,128(s8)
     18e:	091c3423          	sd	a7,136(s8)
     192:	092c3823          	sd	s2,144(s8)
     196:	093c3c23          	sd	s3,152(s8)
     19a:	0b4c3023          	sd	s4,160(s8)
     19e:	0b5c3423          	sd	s5,168(s8)
     1a2:	0b6c3823          	sd	s6,176(s8)
     1a6:	0b7c3c23          	sd	s7,184(s8)
     1aa:	0d8c3023          	sd	s8,192(s8)
     1ae:	0d9c3423          	sd	s9,200(s8)
     1b2:	0dac3823          	sd	s10,208(s8)
     1b6:	0dbc3c23          	sd	s11,216(s8)
     1ba:	0fcc3023          	sd	t3,224(s8)
     1be:	0fdc3423          	sd	t4,232(s8)
     1c2:	0fec3823          	sd	t5,240(s8)
     1c6:	0ffc3c23          	sd	t6,248(s8)
     1ca:	34202bf3          	csrr	s7,mcause
     1ce:	03fbdb93          	srli	s7,s7,0x3f
     1d2:	000b8463          	beqz	s7,1da <mmode_intr_vector_1+0x98>
     1d6:	62b0b06f          	j	c000 <mmode_intr_handler>
     1da:	00001817          	auipc	a6,0x1
     1de:	5fc80813          	addi	a6,a6,1532 # 17d6 <test_done>
     1e2:	00080067          	jr	a6

00000000000001e6 <mmode_intr_vector_2>:
     1e6:	340c1c73          	csrrw	s8,mscratch,s8
     1ea:	000e0c33          	add	s8,t3,zero
     1ee:	f08c0c13          	addi	s8,s8,-248
     1f2:	001c3423          	sd	ra,8(s8)
     1f6:	002c3823          	sd	sp,16(s8)
     1fa:	003c3c23          	sd	gp,24(s8)
     1fe:	024c3023          	sd	tp,32(s8)
     202:	025c3423          	sd	t0,40(s8)
     206:	026c3823          	sd	t1,48(s8)
     20a:	027c3c23          	sd	t2,56(s8)
     20e:	048c3023          	sd	s0,64(s8)
     212:	049c3423          	sd	s1,72(s8)
     216:	04ac3823          	sd	a0,80(s8)
     21a:	04bc3c23          	sd	a1,88(s8)
     21e:	06cc3023          	sd	a2,96(s8)
     222:	06dc3423          	sd	a3,104(s8)
     226:	06ec3823          	sd	a4,112(s8)
     22a:	06fc3c23          	sd	a5,120(s8)
     22e:	090c3023          	sd	a6,128(s8)
     232:	091c3423          	sd	a7,136(s8)
     236:	092c3823          	sd	s2,144(s8)
     23a:	093c3c23          	sd	s3,152(s8)
     23e:	0b4c3023          	sd	s4,160(s8)
     242:	0b5c3423          	sd	s5,168(s8)
     246:	0b6c3823          	sd	s6,176(s8)
     24a:	0b7c3c23          	sd	s7,184(s8)
     24e:	0d8c3023          	sd	s8,192(s8)
     252:	0d9c3423          	sd	s9,200(s8)
     256:	0dac3823          	sd	s10,208(s8)
     25a:	0dbc3c23          	sd	s11,216(s8)
     25e:	0fcc3023          	sd	t3,224(s8)
     262:	0fdc3423          	sd	t4,232(s8)
     266:	0fec3823          	sd	t5,240(s8)
     26a:	0ffc3c23          	sd	t6,248(s8)
     26e:	34202bf3          	csrr	s7,mcause
     272:	03fbdb93          	srli	s7,s7,0x3f
     276:	000b8463          	beqz	s7,27e <mmode_intr_vector_2+0x98>
     27a:	5870b06f          	j	c000 <mmode_intr_handler>
     27e:	00001817          	auipc	a6,0x1
     282:	55880813          	addi	a6,a6,1368 # 17d6 <test_done>
     286:	00080067          	jr	a6

000000000000028a <mmode_intr_vector_3>:
     28a:	340c1c73          	csrrw	s8,mscratch,s8
     28e:	000e0c33          	add	s8,t3,zero
     292:	f08c0c13          	addi	s8,s8,-248
     296:	001c3423          	sd	ra,8(s8)
     29a:	002c3823          	sd	sp,16(s8)
     29e:	003c3c23          	sd	gp,24(s8)
     2a2:	024c3023          	sd	tp,32(s8)
     2a6:	025c3423          	sd	t0,40(s8)
     2aa:	026c3823          	sd	t1,48(s8)
     2ae:	027c3c23          	sd	t2,56(s8)
     2b2:	048c3023          	sd	s0,64(s8)
     2b6:	049c3423          	sd	s1,72(s8)
     2ba:	04ac3823          	sd	a0,80(s8)
     2be:	04bc3c23          	sd	a1,88(s8)
     2c2:	06cc3023          	sd	a2,96(s8)
     2c6:	06dc3423          	sd	a3,104(s8)
     2ca:	06ec3823          	sd	a4,112(s8)
     2ce:	06fc3c23          	sd	a5,120(s8)
     2d2:	090c3023          	sd	a6,128(s8)
     2d6:	091c3423          	sd	a7,136(s8)
     2da:	092c3823          	sd	s2,144(s8)
     2de:	093c3c23          	sd	s3,152(s8)
     2e2:	0b4c3023          	sd	s4,160(s8)
     2e6:	0b5c3423          	sd	s5,168(s8)
     2ea:	0b6c3823          	sd	s6,176(s8)
     2ee:	0b7c3c23          	sd	s7,184(s8)
     2f2:	0d8c3023          	sd	s8,192(s8)
     2f6:	0d9c3423          	sd	s9,200(s8)
     2fa:	0dac3823          	sd	s10,208(s8)
     2fe:	0dbc3c23          	sd	s11,216(s8)
     302:	0fcc3023          	sd	t3,224(s8)
     306:	0fdc3423          	sd	t4,232(s8)
     30a:	0fec3823          	sd	t5,240(s8)
     30e:	0ffc3c23          	sd	t6,248(s8)
     312:	34202bf3          	csrr	s7,mcause
     316:	03fbdb93          	srli	s7,s7,0x3f
     31a:	000b8463          	beqz	s7,322 <mmode_intr_vector_3+0x98>
     31e:	4e30b06f          	j	c000 <mmode_intr_handler>
     322:	00001817          	auipc	a6,0x1
     326:	4b480813          	addi	a6,a6,1204 # 17d6 <test_done>
     32a:	00080067          	jr	a6

000000000000032e <mmode_intr_vector_4>:
     32e:	340c1c73          	csrrw	s8,mscratch,s8
     332:	000e0c33          	add	s8,t3,zero
     336:	f08c0c13          	addi	s8,s8,-248
     33a:	001c3423          	sd	ra,8(s8)
     33e:	002c3823          	sd	sp,16(s8)
     342:	003c3c23          	sd	gp,24(s8)
     346:	024c3023          	sd	tp,32(s8)
     34a:	025c3423          	sd	t0,40(s8)
     34e:	026c3823          	sd	t1,48(s8)
     352:	027c3c23          	sd	t2,56(s8)
     356:	048c3023          	sd	s0,64(s8)
     35a:	049c3423          	sd	s1,72(s8)
     35e:	04ac3823          	sd	a0,80(s8)
     362:	04bc3c23          	sd	a1,88(s8)
     366:	06cc3023          	sd	a2,96(s8)
     36a:	06dc3423          	sd	a3,104(s8)
     36e:	06ec3823          	sd	a4,112(s8)
     372:	06fc3c23          	sd	a5,120(s8)
     376:	090c3023          	sd	a6,128(s8)
     37a:	091c3423          	sd	a7,136(s8)
     37e:	092c3823          	sd	s2,144(s8)
     382:	093c3c23          	sd	s3,152(s8)
     386:	0b4c3023          	sd	s4,160(s8)
     38a:	0b5c3423          	sd	s5,168(s8)
     38e:	0b6c3823          	sd	s6,176(s8)
     392:	0b7c3c23          	sd	s7,184(s8)
     396:	0d8c3023          	sd	s8,192(s8)
     39a:	0d9c3423          	sd	s9,200(s8)
     39e:	0dac3823          	sd	s10,208(s8)
     3a2:	0dbc3c23          	sd	s11,216(s8)
     3a6:	0fcc3023          	sd	t3,224(s8)
     3aa:	0fdc3423          	sd	t4,232(s8)
     3ae:	0fec3823          	sd	t5,240(s8)
     3b2:	0ffc3c23          	sd	t6,248(s8)
     3b6:	34202bf3          	csrr	s7,mcause
     3ba:	03fbdb93          	srli	s7,s7,0x3f
     3be:	000b8463          	beqz	s7,3c6 <mmode_intr_vector_4+0x98>
     3c2:	43f0b06f          	j	c000 <mmode_intr_handler>
     3c6:	00001817          	auipc	a6,0x1
     3ca:	41080813          	addi	a6,a6,1040 # 17d6 <test_done>
     3ce:	00080067          	jr	a6

00000000000003d2 <mmode_intr_vector_5>:
     3d2:	340c1c73          	csrrw	s8,mscratch,s8
     3d6:	000e0c33          	add	s8,t3,zero
     3da:	f08c0c13          	addi	s8,s8,-248
     3de:	001c3423          	sd	ra,8(s8)
     3e2:	002c3823          	sd	sp,16(s8)
     3e6:	003c3c23          	sd	gp,24(s8)
     3ea:	024c3023          	sd	tp,32(s8)
     3ee:	025c3423          	sd	t0,40(s8)
     3f2:	026c3823          	sd	t1,48(s8)
     3f6:	027c3c23          	sd	t2,56(s8)
     3fa:	048c3023          	sd	s0,64(s8)
     3fe:	049c3423          	sd	s1,72(s8)
     402:	04ac3823          	sd	a0,80(s8)
     406:	04bc3c23          	sd	a1,88(s8)
     40a:	06cc3023          	sd	a2,96(s8)
     40e:	06dc3423          	sd	a3,104(s8)
     412:	06ec3823          	sd	a4,112(s8)
     416:	06fc3c23          	sd	a5,120(s8)
     41a:	090c3023          	sd	a6,128(s8)
     41e:	091c3423          	sd	a7,136(s8)
     422:	092c3823          	sd	s2,144(s8)
     426:	093c3c23          	sd	s3,152(s8)
     42a:	0b4c3023          	sd	s4,160(s8)
     42e:	0b5c3423          	sd	s5,168(s8)
     432:	0b6c3823          	sd	s6,176(s8)
     436:	0b7c3c23          	sd	s7,184(s8)
     43a:	0d8c3023          	sd	s8,192(s8)
     43e:	0d9c3423          	sd	s9,200(s8)
     442:	0dac3823          	sd	s10,208(s8)
     446:	0dbc3c23          	sd	s11,216(s8)
     44a:	0fcc3023          	sd	t3,224(s8)
     44e:	0fdc3423          	sd	t4,232(s8)
     452:	0fec3823          	sd	t5,240(s8)
     456:	0ffc3c23          	sd	t6,248(s8)
     45a:	34202bf3          	csrr	s7,mcause
     45e:	03fbdb93          	srli	s7,s7,0x3f
     462:	000b8463          	beqz	s7,46a <mmode_intr_vector_5+0x98>
     466:	39b0b06f          	j	c000 <mmode_intr_handler>
     46a:	00001817          	auipc	a6,0x1
     46e:	36c80813          	addi	a6,a6,876 # 17d6 <test_done>
     472:	00080067          	jr	a6

0000000000000476 <mmode_intr_vector_6>:
     476:	340c1c73          	csrrw	s8,mscratch,s8
     47a:	000e0c33          	add	s8,t3,zero
     47e:	f08c0c13          	addi	s8,s8,-248
     482:	001c3423          	sd	ra,8(s8)
     486:	002c3823          	sd	sp,16(s8)
     48a:	003c3c23          	sd	gp,24(s8)
     48e:	024c3023          	sd	tp,32(s8)
     492:	025c3423          	sd	t0,40(s8)
     496:	026c3823          	sd	t1,48(s8)
     49a:	027c3c23          	sd	t2,56(s8)
     49e:	048c3023          	sd	s0,64(s8)
     4a2:	049c3423          	sd	s1,72(s8)
     4a6:	04ac3823          	sd	a0,80(s8)
     4aa:	04bc3c23          	sd	a1,88(s8)
     4ae:	06cc3023          	sd	a2,96(s8)
     4b2:	06dc3423          	sd	a3,104(s8)
     4b6:	06ec3823          	sd	a4,112(s8)
     4ba:	06fc3c23          	sd	a5,120(s8)
     4be:	090c3023          	sd	a6,128(s8)
     4c2:	091c3423          	sd	a7,136(s8)
     4c6:	092c3823          	sd	s2,144(s8)
     4ca:	093c3c23          	sd	s3,152(s8)
     4ce:	0b4c3023          	sd	s4,160(s8)
     4d2:	0b5c3423          	sd	s5,168(s8)
     4d6:	0b6c3823          	sd	s6,176(s8)
     4da:	0b7c3c23          	sd	s7,184(s8)
     4de:	0d8c3023          	sd	s8,192(s8)
     4e2:	0d9c3423          	sd	s9,200(s8)
     4e6:	0dac3823          	sd	s10,208(s8)
     4ea:	0dbc3c23          	sd	s11,216(s8)
     4ee:	0fcc3023          	sd	t3,224(s8)
     4f2:	0fdc3423          	sd	t4,232(s8)
     4f6:	0fec3823          	sd	t5,240(s8)
     4fa:	0ffc3c23          	sd	t6,248(s8)
     4fe:	34202bf3          	csrr	s7,mcause
     502:	03fbdb93          	srli	s7,s7,0x3f
     506:	000b8463          	beqz	s7,50e <mmode_intr_vector_6+0x98>
     50a:	2f70b06f          	j	c000 <mmode_intr_handler>
     50e:	00001817          	auipc	a6,0x1
     512:	2c880813          	addi	a6,a6,712 # 17d6 <test_done>
     516:	00080067          	jr	a6

000000000000051a <mmode_intr_vector_7>:
     51a:	340c1c73          	csrrw	s8,mscratch,s8
     51e:	000e0c33          	add	s8,t3,zero
     522:	f08c0c13          	addi	s8,s8,-248
     526:	001c3423          	sd	ra,8(s8)
     52a:	002c3823          	sd	sp,16(s8)
     52e:	003c3c23          	sd	gp,24(s8)
     532:	024c3023          	sd	tp,32(s8)
     536:	025c3423          	sd	t0,40(s8)
     53a:	026c3823          	sd	t1,48(s8)
     53e:	027c3c23          	sd	t2,56(s8)
     542:	048c3023          	sd	s0,64(s8)
     546:	049c3423          	sd	s1,72(s8)
     54a:	04ac3823          	sd	a0,80(s8)
     54e:	04bc3c23          	sd	a1,88(s8)
     552:	06cc3023          	sd	a2,96(s8)
     556:	06dc3423          	sd	a3,104(s8)
     55a:	06ec3823          	sd	a4,112(s8)
     55e:	06fc3c23          	sd	a5,120(s8)
     562:	090c3023          	sd	a6,128(s8)
     566:	091c3423          	sd	a7,136(s8)
     56a:	092c3823          	sd	s2,144(s8)
     56e:	093c3c23          	sd	s3,152(s8)
     572:	0b4c3023          	sd	s4,160(s8)
     576:	0b5c3423          	sd	s5,168(s8)
     57a:	0b6c3823          	sd	s6,176(s8)
     57e:	0b7c3c23          	sd	s7,184(s8)
     582:	0d8c3023          	sd	s8,192(s8)
     586:	0d9c3423          	sd	s9,200(s8)
     58a:	0dac3823          	sd	s10,208(s8)
     58e:	0dbc3c23          	sd	s11,216(s8)
     592:	0fcc3023          	sd	t3,224(s8)
     596:	0fdc3423          	sd	t4,232(s8)
     59a:	0fec3823          	sd	t5,240(s8)
     59e:	0ffc3c23          	sd	t6,248(s8)
     5a2:	34202bf3          	csrr	s7,mcause
     5a6:	03fbdb93          	srli	s7,s7,0x3f
     5aa:	000b8463          	beqz	s7,5b2 <mmode_intr_vector_7+0x98>
     5ae:	2530b06f          	j	c000 <mmode_intr_handler>
     5b2:	00001817          	auipc	a6,0x1
     5b6:	22480813          	addi	a6,a6,548 # 17d6 <test_done>
     5ba:	00080067          	jr	a6

00000000000005be <mmode_intr_vector_8>:
     5be:	340c1c73          	csrrw	s8,mscratch,s8
     5c2:	000e0c33          	add	s8,t3,zero
     5c6:	f08c0c13          	addi	s8,s8,-248
     5ca:	001c3423          	sd	ra,8(s8)
     5ce:	002c3823          	sd	sp,16(s8)
     5d2:	003c3c23          	sd	gp,24(s8)
     5d6:	024c3023          	sd	tp,32(s8)
     5da:	025c3423          	sd	t0,40(s8)
     5de:	026c3823          	sd	t1,48(s8)
     5e2:	027c3c23          	sd	t2,56(s8)
     5e6:	048c3023          	sd	s0,64(s8)
     5ea:	049c3423          	sd	s1,72(s8)
     5ee:	04ac3823          	sd	a0,80(s8)
     5f2:	04bc3c23          	sd	a1,88(s8)
     5f6:	06cc3023          	sd	a2,96(s8)
     5fa:	06dc3423          	sd	a3,104(s8)
     5fe:	06ec3823          	sd	a4,112(s8)
     602:	06fc3c23          	sd	a5,120(s8)
     606:	090c3023          	sd	a6,128(s8)
     60a:	091c3423          	sd	a7,136(s8)
     60e:	092c3823          	sd	s2,144(s8)
     612:	093c3c23          	sd	s3,152(s8)
     616:	0b4c3023          	sd	s4,160(s8)
     61a:	0b5c3423          	sd	s5,168(s8)
     61e:	0b6c3823          	sd	s6,176(s8)
     622:	0b7c3c23          	sd	s7,184(s8)
     626:	0d8c3023          	sd	s8,192(s8)
     62a:	0d9c3423          	sd	s9,200(s8)
     62e:	0dac3823          	sd	s10,208(s8)
     632:	0dbc3c23          	sd	s11,216(s8)
     636:	0fcc3023          	sd	t3,224(s8)
     63a:	0fdc3423          	sd	t4,232(s8)
     63e:	0fec3823          	sd	t5,240(s8)
     642:	0ffc3c23          	sd	t6,248(s8)
     646:	34202bf3          	csrr	s7,mcause
     64a:	03fbdb93          	srli	s7,s7,0x3f
     64e:	000b8463          	beqz	s7,656 <mmode_intr_vector_8+0x98>
     652:	1af0b06f          	j	c000 <mmode_intr_handler>
     656:	00001817          	auipc	a6,0x1
     65a:	18080813          	addi	a6,a6,384 # 17d6 <test_done>
     65e:	00080067          	jr	a6

0000000000000662 <mmode_intr_vector_9>:
     662:	340c1c73          	csrrw	s8,mscratch,s8
     666:	000e0c33          	add	s8,t3,zero
     66a:	f08c0c13          	addi	s8,s8,-248
     66e:	001c3423          	sd	ra,8(s8)
     672:	002c3823          	sd	sp,16(s8)
     676:	003c3c23          	sd	gp,24(s8)
     67a:	024c3023          	sd	tp,32(s8)
     67e:	025c3423          	sd	t0,40(s8)
     682:	026c3823          	sd	t1,48(s8)
     686:	027c3c23          	sd	t2,56(s8)
     68a:	048c3023          	sd	s0,64(s8)
     68e:	049c3423          	sd	s1,72(s8)
     692:	04ac3823          	sd	a0,80(s8)
     696:	04bc3c23          	sd	a1,88(s8)
     69a:	06cc3023          	sd	a2,96(s8)
     69e:	06dc3423          	sd	a3,104(s8)
     6a2:	06ec3823          	sd	a4,112(s8)
     6a6:	06fc3c23          	sd	a5,120(s8)
     6aa:	090c3023          	sd	a6,128(s8)
     6ae:	091c3423          	sd	a7,136(s8)
     6b2:	092c3823          	sd	s2,144(s8)
     6b6:	093c3c23          	sd	s3,152(s8)
     6ba:	0b4c3023          	sd	s4,160(s8)
     6be:	0b5c3423          	sd	s5,168(s8)
     6c2:	0b6c3823          	sd	s6,176(s8)
     6c6:	0b7c3c23          	sd	s7,184(s8)
     6ca:	0d8c3023          	sd	s8,192(s8)
     6ce:	0d9c3423          	sd	s9,200(s8)
     6d2:	0dac3823          	sd	s10,208(s8)
     6d6:	0dbc3c23          	sd	s11,216(s8)
     6da:	0fcc3023          	sd	t3,224(s8)
     6de:	0fdc3423          	sd	t4,232(s8)
     6e2:	0fec3823          	sd	t5,240(s8)
     6e6:	0ffc3c23          	sd	t6,248(s8)
     6ea:	34202bf3          	csrr	s7,mcause
     6ee:	03fbdb93          	srli	s7,s7,0x3f
     6f2:	000b8463          	beqz	s7,6fa <mmode_intr_vector_9+0x98>
     6f6:	10b0b06f          	j	c000 <mmode_intr_handler>
     6fa:	00001817          	auipc	a6,0x1
     6fe:	0dc80813          	addi	a6,a6,220 # 17d6 <test_done>
     702:	00080067          	jr	a6

0000000000000706 <mmode_intr_vector_10>:
     706:	340c1c73          	csrrw	s8,mscratch,s8
     70a:	000e0c33          	add	s8,t3,zero
     70e:	f08c0c13          	addi	s8,s8,-248
     712:	001c3423          	sd	ra,8(s8)
     716:	002c3823          	sd	sp,16(s8)
     71a:	003c3c23          	sd	gp,24(s8)
     71e:	024c3023          	sd	tp,32(s8)
     722:	025c3423          	sd	t0,40(s8)
     726:	026c3823          	sd	t1,48(s8)
     72a:	027c3c23          	sd	t2,56(s8)
     72e:	048c3023          	sd	s0,64(s8)
     732:	049c3423          	sd	s1,72(s8)
     736:	04ac3823          	sd	a0,80(s8)
     73a:	04bc3c23          	sd	a1,88(s8)
     73e:	06cc3023          	sd	a2,96(s8)
     742:	06dc3423          	sd	a3,104(s8)
     746:	06ec3823          	sd	a4,112(s8)
     74a:	06fc3c23          	sd	a5,120(s8)
     74e:	090c3023          	sd	a6,128(s8)
     752:	091c3423          	sd	a7,136(s8)
     756:	092c3823          	sd	s2,144(s8)
     75a:	093c3c23          	sd	s3,152(s8)
     75e:	0b4c3023          	sd	s4,160(s8)
     762:	0b5c3423          	sd	s5,168(s8)
     766:	0b6c3823          	sd	s6,176(s8)
     76a:	0b7c3c23          	sd	s7,184(s8)
     76e:	0d8c3023          	sd	s8,192(s8)
     772:	0d9c3423          	sd	s9,200(s8)
     776:	0dac3823          	sd	s10,208(s8)
     77a:	0dbc3c23          	sd	s11,216(s8)
     77e:	0fcc3023          	sd	t3,224(s8)
     782:	0fdc3423          	sd	t4,232(s8)
     786:	0fec3823          	sd	t5,240(s8)
     78a:	0ffc3c23          	sd	t6,248(s8)
     78e:	34202bf3          	csrr	s7,mcause
     792:	03fbdb93          	srli	s7,s7,0x3f
     796:	000b8463          	beqz	s7,79e <mmode_intr_vector_10+0x98>
     79a:	0670b06f          	j	c000 <mmode_intr_handler>
     79e:	00001817          	auipc	a6,0x1
     7a2:	03880813          	addi	a6,a6,56 # 17d6 <test_done>
     7a6:	00080067          	jr	a6

00000000000007aa <mmode_intr_vector_11>:
     7aa:	340c1c73          	csrrw	s8,mscratch,s8
     7ae:	000e0c33          	add	s8,t3,zero
     7b2:	f08c0c13          	addi	s8,s8,-248
     7b6:	001c3423          	sd	ra,8(s8)
     7ba:	002c3823          	sd	sp,16(s8)
     7be:	003c3c23          	sd	gp,24(s8)
     7c2:	024c3023          	sd	tp,32(s8)
     7c6:	025c3423          	sd	t0,40(s8)
     7ca:	026c3823          	sd	t1,48(s8)
     7ce:	027c3c23          	sd	t2,56(s8)
     7d2:	048c3023          	sd	s0,64(s8)
     7d6:	049c3423          	sd	s1,72(s8)
     7da:	04ac3823          	sd	a0,80(s8)
     7de:	04bc3c23          	sd	a1,88(s8)
     7e2:	06cc3023          	sd	a2,96(s8)
     7e6:	06dc3423          	sd	a3,104(s8)
     7ea:	06ec3823          	sd	a4,112(s8)
     7ee:	06fc3c23          	sd	a5,120(s8)
     7f2:	090c3023          	sd	a6,128(s8)
     7f6:	091c3423          	sd	a7,136(s8)
     7fa:	092c3823          	sd	s2,144(s8)
     7fe:	093c3c23          	sd	s3,152(s8)
     802:	0b4c3023          	sd	s4,160(s8)
     806:	0b5c3423          	sd	s5,168(s8)
     80a:	0b6c3823          	sd	s6,176(s8)
     80e:	0b7c3c23          	sd	s7,184(s8)
     812:	0d8c3023          	sd	s8,192(s8)
     816:	0d9c3423          	sd	s9,200(s8)
     81a:	0dac3823          	sd	s10,208(s8)
     81e:	0dbc3c23          	sd	s11,216(s8)
     822:	0fcc3023          	sd	t3,224(s8)
     826:	0fdc3423          	sd	t4,232(s8)
     82a:	0fec3823          	sd	t5,240(s8)
     82e:	0ffc3c23          	sd	t6,248(s8)
     832:	34202bf3          	csrr	s7,mcause
     836:	03fbdb93          	srli	s7,s7,0x3f
     83a:	000b8463          	beqz	s7,842 <mmode_intr_vector_11+0x98>
     83e:	7c20b06f          	j	c000 <mmode_intr_handler>
     842:	00001817          	auipc	a6,0x1
     846:	f9480813          	addi	a6,a6,-108 # 17d6 <test_done>
     84a:	00080067          	jr	a6

000000000000084e <mmode_intr_vector_12>:
     84e:	340c1c73          	csrrw	s8,mscratch,s8
     852:	000e0c33          	add	s8,t3,zero
     856:	f08c0c13          	addi	s8,s8,-248
     85a:	001c3423          	sd	ra,8(s8)
     85e:	002c3823          	sd	sp,16(s8)
     862:	003c3c23          	sd	gp,24(s8)
     866:	024c3023          	sd	tp,32(s8)
     86a:	025c3423          	sd	t0,40(s8)
     86e:	026c3823          	sd	t1,48(s8)
     872:	027c3c23          	sd	t2,56(s8)
     876:	048c3023          	sd	s0,64(s8)
     87a:	049c3423          	sd	s1,72(s8)
     87e:	04ac3823          	sd	a0,80(s8)
     882:	04bc3c23          	sd	a1,88(s8)
     886:	06cc3023          	sd	a2,96(s8)
     88a:	06dc3423          	sd	a3,104(s8)
     88e:	06ec3823          	sd	a4,112(s8)
     892:	06fc3c23          	sd	a5,120(s8)
     896:	090c3023          	sd	a6,128(s8)
     89a:	091c3423          	sd	a7,136(s8)
     89e:	092c3823          	sd	s2,144(s8)
     8a2:	093c3c23          	sd	s3,152(s8)
     8a6:	0b4c3023          	sd	s4,160(s8)
     8aa:	0b5c3423          	sd	s5,168(s8)
     8ae:	0b6c3823          	sd	s6,176(s8)
     8b2:	0b7c3c23          	sd	s7,184(s8)
     8b6:	0d8c3023          	sd	s8,192(s8)
     8ba:	0d9c3423          	sd	s9,200(s8)
     8be:	0dac3823          	sd	s10,208(s8)
     8c2:	0dbc3c23          	sd	s11,216(s8)
     8c6:	0fcc3023          	sd	t3,224(s8)
     8ca:	0fdc3423          	sd	t4,232(s8)
     8ce:	0fec3823          	sd	t5,240(s8)
     8d2:	0ffc3c23          	sd	t6,248(s8)
     8d6:	34202bf3          	csrr	s7,mcause
     8da:	03fbdb93          	srli	s7,s7,0x3f
     8de:	000b8463          	beqz	s7,8e6 <mmode_intr_vector_12+0x98>
     8e2:	71e0b06f          	j	c000 <mmode_intr_handler>
     8e6:	00001817          	auipc	a6,0x1
     8ea:	ef080813          	addi	a6,a6,-272 # 17d6 <test_done>
     8ee:	00080067          	jr	a6

00000000000008f2 <mmode_intr_vector_13>:
     8f2:	340c1c73          	csrrw	s8,mscratch,s8
     8f6:	000e0c33          	add	s8,t3,zero
     8fa:	f08c0c13          	addi	s8,s8,-248
     8fe:	001c3423          	sd	ra,8(s8)
     902:	002c3823          	sd	sp,16(s8)
     906:	003c3c23          	sd	gp,24(s8)
     90a:	024c3023          	sd	tp,32(s8)
     90e:	025c3423          	sd	t0,40(s8)
     912:	026c3823          	sd	t1,48(s8)
     916:	027c3c23          	sd	t2,56(s8)
     91a:	048c3023          	sd	s0,64(s8)
     91e:	049c3423          	sd	s1,72(s8)
     922:	04ac3823          	sd	a0,80(s8)
     926:	04bc3c23          	sd	a1,88(s8)
     92a:	06cc3023          	sd	a2,96(s8)
     92e:	06dc3423          	sd	a3,104(s8)
     932:	06ec3823          	sd	a4,112(s8)
     936:	06fc3c23          	sd	a5,120(s8)
     93a:	090c3023          	sd	a6,128(s8)
     93e:	091c3423          	sd	a7,136(s8)
     942:	092c3823          	sd	s2,144(s8)
     946:	093c3c23          	sd	s3,152(s8)
     94a:	0b4c3023          	sd	s4,160(s8)
     94e:	0b5c3423          	sd	s5,168(s8)
     952:	0b6c3823          	sd	s6,176(s8)
     956:	0b7c3c23          	sd	s7,184(s8)
     95a:	0d8c3023          	sd	s8,192(s8)
     95e:	0d9c3423          	sd	s9,200(s8)
     962:	0dac3823          	sd	s10,208(s8)
     966:	0dbc3c23          	sd	s11,216(s8)
     96a:	0fcc3023          	sd	t3,224(s8)
     96e:	0fdc3423          	sd	t4,232(s8)
     972:	0fec3823          	sd	t5,240(s8)
     976:	0ffc3c23          	sd	t6,248(s8)
     97a:	34202bf3          	csrr	s7,mcause
     97e:	03fbdb93          	srli	s7,s7,0x3f
     982:	000b8463          	beqz	s7,98a <mmode_intr_vector_13+0x98>
     986:	67a0b06f          	j	c000 <mmode_intr_handler>
     98a:	00001817          	auipc	a6,0x1
     98e:	e4c80813          	addi	a6,a6,-436 # 17d6 <test_done>
     992:	00080067          	jr	a6

0000000000000996 <mmode_intr_vector_14>:
     996:	340c1c73          	csrrw	s8,mscratch,s8
     99a:	000e0c33          	add	s8,t3,zero
     99e:	f08c0c13          	addi	s8,s8,-248
     9a2:	001c3423          	sd	ra,8(s8)
     9a6:	002c3823          	sd	sp,16(s8)
     9aa:	003c3c23          	sd	gp,24(s8)
     9ae:	024c3023          	sd	tp,32(s8)
     9b2:	025c3423          	sd	t0,40(s8)
     9b6:	026c3823          	sd	t1,48(s8)
     9ba:	027c3c23          	sd	t2,56(s8)
     9be:	048c3023          	sd	s0,64(s8)
     9c2:	049c3423          	sd	s1,72(s8)
     9c6:	04ac3823          	sd	a0,80(s8)
     9ca:	04bc3c23          	sd	a1,88(s8)
     9ce:	06cc3023          	sd	a2,96(s8)
     9d2:	06dc3423          	sd	a3,104(s8)
     9d6:	06ec3823          	sd	a4,112(s8)
     9da:	06fc3c23          	sd	a5,120(s8)
     9de:	090c3023          	sd	a6,128(s8)
     9e2:	091c3423          	sd	a7,136(s8)
     9e6:	092c3823          	sd	s2,144(s8)
     9ea:	093c3c23          	sd	s3,152(s8)
     9ee:	0b4c3023          	sd	s4,160(s8)
     9f2:	0b5c3423          	sd	s5,168(s8)
     9f6:	0b6c3823          	sd	s6,176(s8)
     9fa:	0b7c3c23          	sd	s7,184(s8)
     9fe:	0d8c3023          	sd	s8,192(s8)
     a02:	0d9c3423          	sd	s9,200(s8)
     a06:	0dac3823          	sd	s10,208(s8)
     a0a:	0dbc3c23          	sd	s11,216(s8)
     a0e:	0fcc3023          	sd	t3,224(s8)
     a12:	0fdc3423          	sd	t4,232(s8)
     a16:	0fec3823          	sd	t5,240(s8)
     a1a:	0ffc3c23          	sd	t6,248(s8)
     a1e:	34202bf3          	csrr	s7,mcause
     a22:	03fbdb93          	srli	s7,s7,0x3f
     a26:	000b8463          	beqz	s7,a2e <mmode_intr_vector_14+0x98>
     a2a:	5d60b06f          	j	c000 <mmode_intr_handler>
     a2e:	00001817          	auipc	a6,0x1
     a32:	da880813          	addi	a6,a6,-600 # 17d6 <test_done>
     a36:	00080067          	jr	a6

0000000000000a3a <mmode_intr_vector_15>:
     a3a:	340c1c73          	csrrw	s8,mscratch,s8
     a3e:	000e0c33          	add	s8,t3,zero
     a42:	f08c0c13          	addi	s8,s8,-248
     a46:	001c3423          	sd	ra,8(s8)
     a4a:	002c3823          	sd	sp,16(s8)
     a4e:	003c3c23          	sd	gp,24(s8)
     a52:	024c3023          	sd	tp,32(s8)
     a56:	025c3423          	sd	t0,40(s8)
     a5a:	026c3823          	sd	t1,48(s8)
     a5e:	027c3c23          	sd	t2,56(s8)
     a62:	048c3023          	sd	s0,64(s8)
     a66:	049c3423          	sd	s1,72(s8)
     a6a:	04ac3823          	sd	a0,80(s8)
     a6e:	04bc3c23          	sd	a1,88(s8)
     a72:	06cc3023          	sd	a2,96(s8)
     a76:	06dc3423          	sd	a3,104(s8)
     a7a:	06ec3823          	sd	a4,112(s8)
     a7e:	06fc3c23          	sd	a5,120(s8)
     a82:	090c3023          	sd	a6,128(s8)
     a86:	091c3423          	sd	a7,136(s8)
     a8a:	092c3823          	sd	s2,144(s8)
     a8e:	093c3c23          	sd	s3,152(s8)
     a92:	0b4c3023          	sd	s4,160(s8)
     a96:	0b5c3423          	sd	s5,168(s8)
     a9a:	0b6c3823          	sd	s6,176(s8)
     a9e:	0b7c3c23          	sd	s7,184(s8)
     aa2:	0d8c3023          	sd	s8,192(s8)
     aa6:	0d9c3423          	sd	s9,200(s8)
     aaa:	0dac3823          	sd	s10,208(s8)
     aae:	0dbc3c23          	sd	s11,216(s8)
     ab2:	0fcc3023          	sd	t3,224(s8)
     ab6:	0fdc3423          	sd	t4,232(s8)
     aba:	0fec3823          	sd	t5,240(s8)
     abe:	0ffc3c23          	sd	t6,248(s8)
     ac2:	34202bf3          	csrr	s7,mcause
     ac6:	03fbdb93          	srli	s7,s7,0x3f
     aca:	000b8463          	beqz	s7,ad2 <mmode_intr_vector_15+0x98>
     ace:	5320b06f          	j	c000 <mmode_intr_handler>
     ad2:	00001817          	auipc	a6,0x1
     ad6:	d0480813          	addi	a6,a6,-764 # 17d6 <test_done>
     ada:	00080067          	jr	a6
     ade:	00000013          	nop
     ae2:	00000013          	nop
     ae6:	00000013          	nop
     aea:	00000013          	nop
     aee:	00000013          	nop
     af2:	00000013          	nop
     af6:	00000013          	nop
     afa:	00000013          	nop
     afe:	00000013          	nop
     b02:	00000013          	nop
     b06:	00000013          	nop
     b0a:	00000013          	nop
     b0e:	00000013          	nop
     b12:	00000013          	nop
     b16:	00000013          	nop
     b1a:	00000013          	nop
     b1e:	00000013          	nop
     b22:	00000013          	nop
     b26:	00000013          	nop
     b2a:	00000013          	nop
     b2e:	00000013          	nop
     b32:	00000013          	nop
     b36:	00000013          	nop
     b3a:	00000013          	nop
     b3e:	00000013          	nop
     b42:	00000013          	nop
     b46:	00000013          	nop
     b4a:	00000013          	nop
     b4e:	00000013          	nop
     b52:	00000013          	nop
     b56:	00000013          	nop
     b5a:	00000013          	nop
     b5e:	00000013          	nop
     b62:	00000013          	nop
     b66:	00000013          	nop
     b6a:	00000013          	nop
     b6e:	00000013          	nop
     b72:	00000013          	nop
     b76:	00000013          	nop
     b7a:	00000013          	nop
     b7e:	00000013          	nop
     b82:	00000013          	nop
     b86:	00000013          	nop
     b8a:	00000013          	nop
     b8e:	00000013          	nop
     b92:	00000013          	nop
     b96:	00000013          	nop
     b9a:	00000013          	nop
     b9e:	00000013          	nop
     ba2:	00000013          	nop
     ba6:	00000013          	nop
     baa:	00000013          	nop
     bae:	00000013          	nop
     bb2:	00000013          	nop
     bb6:	00000013          	nop
     bba:	00000013          	nop
     bbe:	00000013          	nop
     bc2:	00000013          	nop
     bc6:	00000013          	nop
     bca:	00000013          	nop
     bce:	00000013          	nop
     bd2:	00000013          	nop
     bd6:	00000013          	nop
     bda:	00000013          	nop
     bde:	00000013          	nop
     be2:	00000013          	nop
     be6:	00000013          	nop
     bea:	00000013          	nop
     bee:	00000013          	nop
     bf2:	00000013          	nop
     bf6:	00000013          	nop
     bfa:	00000013          	nop
     bfe:	00000013          	nop
     c02:	00000013          	nop
     c06:	00000013          	nop
     c0a:	00000013          	nop
     c0e:	00000013          	nop
     c12:	00000013          	nop
     c16:	00000013          	nop
     c1a:	00000013          	nop
     c1e:	00000013          	nop
     c22:	00000013          	nop
     c26:	00000013          	nop
     c2a:	00000013          	nop
     c2e:	00000013          	nop
     c32:	00000013          	nop
     c36:	00000013          	nop
     c3a:	00000013          	nop
     c3e:	00000013          	nop
     c42:	00000013          	nop
     c46:	00000013          	nop
     c4a:	00000013          	nop
     c4e:	00000013          	nop
     c52:	00000013          	nop
     c56:	00000013          	nop
     c5a:	00000013          	nop
     c5e:	00000013          	nop
     c62:	00000013          	nop
     c66:	00000013          	nop
     c6a:	00000013          	nop
     c6e:	00000013          	nop
     c72:	00000013          	nop
     c76:	00000013          	nop
     c7a:	00000013          	nop
     c7e:	00000013          	nop
     c82:	00000013          	nop
     c86:	00000013          	nop
     c8a:	00000013          	nop
     c8e:	00000013          	nop
     c92:	00000013          	nop
     c96:	00000013          	nop
     c9a:	00000013          	nop
     c9e:	00000013          	nop
     ca2:	00000013          	nop
     ca6:	00000013          	nop
     caa:	00000013          	nop
     cae:	00000013          	nop
     cb2:	00000013          	nop
     cb6:	00000013          	nop
     cba:	00000013          	nop
     cbe:	00000013          	nop
     cc2:	00000013          	nop
     cc6:	00000013          	nop
     cca:	00000013          	nop
     cce:	00000013          	nop
     cd2:	00000013          	nop
     cd6:	00000013          	nop
     cda:	00000013          	nop
     cde:	00000013          	nop
     ce2:	00000013          	nop
     ce6:	00000013          	nop
     cea:	00000013          	nop
     cee:	00000013          	nop
     cf2:	00000013          	nop
     cf6:	00000013          	nop
     cfa:	00000013          	nop
     cfe:	00000013          	nop
     d02:	00000013          	nop
     d06:	00000013          	nop
     d0a:	00000013          	nop
     d0e:	00000013          	nop
     d12:	00000013          	nop
     d16:	00000013          	nop
     d1a:	00000013          	nop
     d1e:	00000013          	nop
     d22:	00000013          	nop
     d26:	00000013          	nop
     d2a:	00000013          	nop
     d2e:	00000013          	nop
     d32:	00000013          	nop
     d36:	00000013          	nop
     d3a:	00000013          	nop
     d3e:	00000013          	nop
     d42:	00000013          	nop
     d46:	00000013          	nop
     d4a:	00000013          	nop
     d4e:	00000013          	nop
     d52:	00000013          	nop
     d56:	00000013          	nop
     d5a:	00000013          	nop
     d5e:	00000013          	nop
     d62:	00000013          	nop
     d66:	00000013          	nop
     d6a:	00000013          	nop
     d6e:	00000013          	nop
     d72:	00000013          	nop
     d76:	00000013          	nop
     d7a:	00000013          	nop
     d7e:	00000013          	nop
     d82:	00000013          	nop
     d86:	00000013          	nop
     d8a:	00000013          	nop
     d8e:	00000013          	nop
     d92:	00000013          	nop
     d96:	00000013          	nop
     d9a:	00000013          	nop
     d9e:	00000013          	nop
     da2:	00000013          	nop
     da6:	00000013          	nop
     daa:	00000013          	nop
     dae:	00000013          	nop
     db2:	00000013          	nop
     db6:	00000013          	nop
     dba:	00000013          	nop
     dbe:	00000013          	nop
     dc2:	00000013          	nop
     dc6:	00000013          	nop
     dca:	00000013          	nop
     dce:	00000013          	nop
     dd2:	00000013          	nop
     dd6:	00000013          	nop
     dda:	00000013          	nop
     dde:	00000013          	nop
     de2:	00000013          	nop
     de6:	00000013          	nop
     dea:	00000013          	nop
     dee:	00000013          	nop
     df2:	00000013          	nop
     df6:	00000013          	nop
     dfa:	00000013          	nop
     dfe:	00000013          	nop
     e02:	00000013          	nop
     e06:	00000013          	nop
     e0a:	00000013          	nop
     e0e:	00000013          	nop
     e12:	00000013          	nop
     e16:	00000013          	nop
     e1a:	00000013          	nop
     e1e:	00000013          	nop
     e22:	00000013          	nop
     e26:	00000013          	nop
     e2a:	00000013          	nop
     e2e:	00000013          	nop
     e32:	00000013          	nop
     e36:	00000013          	nop
     e3a:	00000013          	nop
     e3e:	00000013          	nop
     e42:	00000013          	nop
     e46:	00000013          	nop
     e4a:	00000013          	nop
     e4e:	00000013          	nop
     e52:	00000013          	nop
     e56:	00000013          	nop
     e5a:	00000013          	nop
     e5e:	00000013          	nop
     e62:	00000013          	nop
     e66:	00000013          	nop
     e6a:	00000013          	nop
     e6e:	00000013          	nop
     e72:	00000013          	nop
     e76:	00000013          	nop
     e7a:	00000013          	nop
     e7e:	00000013          	nop
     e82:	00000013          	nop
     e86:	00000013          	nop
     e8a:	00000013          	nop
     e8e:	00000013          	nop
     e92:	00000013          	nop
     e96:	00000013          	nop
     e9a:	00000013          	nop
     e9e:	00000013          	nop
     ea2:	00000013          	nop
     ea6:	00000013          	nop
     eaa:	00000013          	nop
     eae:	00000013          	nop
     eb2:	00000013          	nop
     eb6:	00000013          	nop
     eba:	00000013          	nop
     ebe:	00000013          	nop
     ec2:	00000013          	nop
     ec6:	00000013          	nop
     eca:	00000013          	nop
     ece:	00000013          	nop
     ed2:	00000013          	nop
     ed6:	00000013          	nop
     eda:	00000013          	nop
     ede:	00000013          	nop
     ee2:	00000013          	nop
     ee6:	00000013          	nop
     eea:	00000013          	nop
     eee:	00000013          	nop
     ef2:	00000013          	nop
     ef6:	00000013          	nop
     efa:	00000013          	nop
     efe:	00000013          	nop
     f02:	00000013          	nop
     f06:	00000013          	nop
     f0a:	00000013          	nop
     f0e:	00000013          	nop
     f12:	00000013          	nop
     f16:	00000013          	nop
     f1a:	00000013          	nop
     f1e:	00000013          	nop
     f22:	00000013          	nop
     f26:	00000013          	nop
     f2a:	00000013          	nop
     f2e:	00000013          	nop
     f32:	00000013          	nop
     f36:	00000013          	nop
     f3a:	00000013          	nop
     f3e:	00000013          	nop
     f42:	00000013          	nop
     f46:	00000013          	nop
     f4a:	00000013          	nop
     f4e:	00000013          	nop
     f52:	00000013          	nop
     f56:	00000013          	nop
     f5a:	00000013          	nop
     f5e:	00000013          	nop
     f62:	00000013          	nop
     f66:	00000013          	nop
     f6a:	00000013          	nop
     f6e:	00000013          	nop
     f72:	00000013          	nop
     f76:	00000013          	nop
     f7a:	00000013          	nop
     f7e:	00000013          	nop
     f82:	00000013          	nop
     f86:	00000013          	nop
     f8a:	00000013          	nop
     f8e:	00000013          	nop
     f92:	00000013          	nop
     f96:	00000013          	nop
     f9a:	00000013          	nop
     f9e:	00000013          	nop
     fa2:	00000013          	nop
     fa6:	00000013          	nop
     faa:	00000013          	nop
     fae:	00000013          	nop
     fb2:	00000013          	nop
     fb6:	00000013          	nop
     fba:	00000013          	nop
     fbe:	00000013          	nop
     fc2:	00000013          	nop
     fc6:	00000013          	nop
     fca:	00000013          	nop
     fce:	00000013          	nop
     fd2:	00000013          	nop
     fd6:	00000013          	nop
     fda:	00000013          	nop
     fde:	00000013          	nop
     fe2:	00000013          	nop
     fe6:	00000013          	nop
     fea:	00000013          	nop
     fee:	00000013          	nop
     ff2:	00000013          	nop
     ff6:	00000013          	nop
     ffa:	00000013          	nop
     ffe:	0001                	nop

0000000000001000 <mtvec_handler>:
    1000:	0400006f          	j	1040 <mmode_exception_handler>
    1004:	93eff06f          	j	142 <mmode_intr_vector_1>
    1008:	9deff06f          	j	1e6 <mmode_intr_vector_2>
    100c:	a7eff06f          	j	28a <mmode_intr_vector_3>
    1010:	b1eff06f          	j	32e <mmode_intr_vector_4>
    1014:	bbeff06f          	j	3d2 <mmode_intr_vector_5>
    1018:	c5eff06f          	j	476 <mmode_intr_vector_6>
    101c:	cfeff06f          	j	51a <mmode_intr_vector_7>
    1020:	d9eff06f          	j	5be <mmode_intr_vector_8>
    1024:	e3eff06f          	j	662 <mmode_intr_vector_9>
    1028:	edeff06f          	j	706 <mmode_intr_vector_10>
    102c:	f7eff06f          	j	7aa <mmode_intr_vector_11>
    1030:	81fff06f          	j	84e <mmode_intr_vector_12>
    1034:	8bfff06f          	j	8f2 <mmode_intr_vector_13>
    1038:	95fff06f          	j	996 <mmode_intr_vector_14>
    103c:	9ffff06f          	j	a3a <mmode_intr_vector_15>

0000000000001040 <mmode_exception_handler>:
    1040:	340c1c73          	csrrw	s8,mscratch,s8
    1044:	000e0c33          	add	s8,t3,zero
    1048:	f08c0c13          	addi	s8,s8,-248
    104c:	001c3423          	sd	ra,8(s8)
    1050:	002c3823          	sd	sp,16(s8)
    1054:	003c3c23          	sd	gp,24(s8)
    1058:	024c3023          	sd	tp,32(s8)
    105c:	025c3423          	sd	t0,40(s8)
    1060:	026c3823          	sd	t1,48(s8)
    1064:	027c3c23          	sd	t2,56(s8)
    1068:	048c3023          	sd	s0,64(s8)
    106c:	049c3423          	sd	s1,72(s8)
    1070:	04ac3823          	sd	a0,80(s8)
    1074:	04bc3c23          	sd	a1,88(s8)
    1078:	06cc3023          	sd	a2,96(s8)
    107c:	06dc3423          	sd	a3,104(s8)
    1080:	06ec3823          	sd	a4,112(s8)
    1084:	06fc3c23          	sd	a5,120(s8)
    1088:	090c3023          	sd	a6,128(s8)
    108c:	091c3423          	sd	a7,136(s8)
    1090:	092c3823          	sd	s2,144(s8)
    1094:	093c3c23          	sd	s3,152(s8)
    1098:	0b4c3023          	sd	s4,160(s8)
    109c:	0b5c3423          	sd	s5,168(s8)
    10a0:	0b6c3823          	sd	s6,176(s8)
    10a4:	0b7c3c23          	sd	s7,184(s8)
    10a8:	0d8c3023          	sd	s8,192(s8)
    10ac:	0d9c3423          	sd	s9,200(s8)
    10b0:	0dac3823          	sd	s10,208(s8)
    10b4:	0dbc3c23          	sd	s11,216(s8)
    10b8:	0fcc3023          	sd	t3,224(s8)
    10bc:	0fdc3423          	sd	t4,232(s8)
    10c0:	0fec3823          	sd	t5,240(s8)
    10c4:	0ffc3c23          	sd	t6,248(s8)
    10c8:	34102bf3          	csrr	s7,mepc
    10cc:	34202bf3          	csrr	s7,mcause
    10d0:	4f8d                	li	t6,3
    10d2:	01fb9463          	bne	s7,t6,10da <mmode_exception_handler+0x9a>
    10d6:	3a40a06f          	j	b47a <ebreak_handler>
    10da:	4fa1                	li	t6,8
    10dc:	05fb8d63          	beq	s7,t6,1136 <ecall_handler>
    10e0:	4fa5                	li	t6,9
    10e2:	05fb8a63          	beq	s7,t6,1136 <ecall_handler>
    10e6:	4fad                	li	t6,11
    10e8:	05fb8763          	beq	s7,t6,1136 <ecall_handler>
    10ec:	4f85                	li	t6,1
    10ee:	0dfb8e63          	beq	s7,t6,11ca <instr_fault_handler>
    10f2:	4f95                	li	t6,5
    10f4:	2dfb8d63          	beq	s7,t6,13ce <load_fault_handler>
    10f8:	4f9d                	li	t6,7
    10fa:	4dfb8c63          	beq	s7,t6,15d2 <store_fault_handler>
    10fe:	4fb1                	li	t6,12
    1100:	01fb9463          	bne	s7,t6,1108 <mmode_exception_handler+0xc8>
    1104:	4a20a06f          	j	b5a6 <pt_fault_handler>
    1108:	4fb5                	li	t6,13
    110a:	01fb9463          	bne	s7,t6,1112 <mmode_exception_handler+0xd2>
    110e:	4980a06f          	j	b5a6 <pt_fault_handler>
    1112:	4fbd                	li	t6,15
    1114:	01fb9463          	bne	s7,t6,111c <mmode_exception_handler+0xdc>
    1118:	48e0a06f          	j	b5a6 <pt_fault_handler>
    111c:	4f89                	li	t6,2
    111e:	01fb9463          	bne	s7,t6,1126 <mmode_exception_handler+0xe6>
    1122:	3ee0a06f          	j	b510 <illegal_instr_handler>
    1126:	34302ff3          	csrr	t6,mtval
    112a:	00000817          	auipc	a6,0x0
    112e:	6ac80813          	addi	a6,a6,1708 # 17d6 <test_done>
    1132:	000800e7          	jalr	a6

0000000000001136 <ecall_handler>:
    1136:	fffffb97          	auipc	s7,0xfffff
    113a:	ecab8b93          	addi	s7,s7,-310 # 0 <_start>
    113e:	000bb023          	sd	zero,0(s7)
    1142:	001bb423          	sd	ra,8(s7)
    1146:	002bb823          	sd	sp,16(s7)
    114a:	003bbc23          	sd	gp,24(s7)
    114e:	024bb023          	sd	tp,32(s7)
    1152:	025bb423          	sd	t0,40(s7)
    1156:	026bb823          	sd	t1,48(s7)
    115a:	027bbc23          	sd	t2,56(s7)
    115e:	048bb023          	sd	s0,64(s7)
    1162:	049bb423          	sd	s1,72(s7)
    1166:	04abb823          	sd	a0,80(s7)
    116a:	04bbbc23          	sd	a1,88(s7)
    116e:	06cbb023          	sd	a2,96(s7)
    1172:	06dbb423          	sd	a3,104(s7)
    1176:	06ebb823          	sd	a4,112(s7)
    117a:	06fbbc23          	sd	a5,120(s7)
    117e:	090bb023          	sd	a6,128(s7)
    1182:	091bb423          	sd	a7,136(s7)
    1186:	092bb823          	sd	s2,144(s7)
    118a:	093bbc23          	sd	s3,152(s7)
    118e:	0b4bb023          	sd	s4,160(s7)
    1192:	0b5bb423          	sd	s5,168(s7)
    1196:	0b6bb823          	sd	s6,176(s7)
    119a:	0b7bbc23          	sd	s7,184(s7)
    119e:	0d8bb023          	sd	s8,192(s7)
    11a2:	0d9bb423          	sd	s9,200(s7)
    11a6:	0dabb823          	sd	s10,208(s7)
    11aa:	0dbbbc23          	sd	s11,216(s7)
    11ae:	0fcbb023          	sd	t3,224(s7)
    11b2:	0fdbb423          	sd	t4,232(s7)
    11b6:	0febb823          	sd	t5,240(s7)
    11ba:	0ffbbc23          	sd	t6,248(s7)
    11be:	0000a817          	auipc	a6,0xa
    11c2:	29c80813          	addi	a6,a6,668 # b45a <write_tohost>
    11c6:	00080067          	jr	a6

00000000000011ca <instr_fault_handler>:
    11ca:	4b81                	li	s7,0
    11cc:	340b9073          	csrw	mscratch,s7
    11d0:	4281                	li	t0,0
    11d2:	34002bf3          	csrr	s7,mscratch
    11d6:	885e                	mv	a6,s7
    11d8:	4801                	li	a6,0
    11da:	010b8263          	beq	s7,a6,11de <instr_fault_handler+0x14>
    11de:	3b002ff3          	csrr	t6,pmpaddr0
    11e2:	3a0028f3          	csrr	a7,pmpcfg0
    11e6:	a009                	j	11e8 <instr_fault_handler+0x1e>
    11e8:	45a1                	li	a1,8
    11ea:	34002bf3          	csrr	s7,mscratch
    11ee:	1bf6                	slli	s7,s7,0x3d
    11f0:	03dbdb93          	srli	s7,s7,0x3d
    11f4:	41758833          	sub	a6,a1,s7
    11f8:	187d                	addi	a6,a6,-1
    11fa:	080e                	slli	a6,a6,0x3
    11fc:	010895b3          	sll	a1,a7,a6
    1200:	0b8e                	slli	s7,s7,0x3
    1202:	985e                	add	a6,a6,s7
    1204:	0105d5b3          	srl	a1,a1,a6
    1208:	03b59813          	slli	a6,a1,0x3b
    120c:	03e85813          	srli	a6,a6,0x3e
    1210:	04080163          	beqz	a6,1252 <instr_fault_handler+0x88>
    1214:	4b85                	li	s7,1
    1216:	03780f63          	beq	a6,s7,1254 <instr_fault_handler+0x8a>
    121a:	4b89                	li	s7,2
    121c:	07780663          	beq	a6,s7,1288 <instr_fault_handler+0xbe>
    1220:	4b8d                	li	s7,3
    1222:	09780863          	beq	a6,s7,12b2 <instr_fault_handler+0xe8>
    1226:	00000b97          	auipc	s7,0x0
    122a:	5b0b8b93          	addi	s7,s7,1456 # 17d6 <test_done>
    122e:	000b8067          	jr	s7
    1232:	34002bf3          	csrr	s7,mscratch
    1236:	82fe                	mv	t0,t6
    1238:	0b85                	addi	s7,s7,1
    123a:	340b9073          	csrw	mscratch,s7
    123e:	4f85                	li	t6,1
    1240:	01fbd363          	bge	s7,t6,1246 <instr_fault_handler+0x7c>
    1244:	b779                	j	11d2 <instr_fault_handler+0x8>
    1246:	00000b97          	auipc	s7,0x0
    124a:	590b8b93          	addi	s7,s7,1424 # 17d6 <test_done>
    124e:	000b8067          	jr	s7
    1252:	b7c5                	j	1232 <instr_fault_handler+0x68>
    1254:	34002bf3          	csrr	s7,mscratch
    1258:	34302873          	csrr	a6,mtval
    125c:	00285813          	srli	a6,a6,0x2
    1260:	000b9563          	bnez	s7,126a <instr_fault_handler+0xa0>
    1264:	fc0847e3          	bltz	a6,1232 <instr_fault_handler+0x68>
    1268:	a019                	j	126e <instr_fault_handler+0xa4>
    126a:	fc5864e3          	bltu	a6,t0,1232 <instr_fault_handler+0x68>
    126e:	fdf872e3          	bgeu	a6,t6,1232 <instr_fault_handler+0x68>
    1272:	0805f813          	andi	a6,a1,128
    1276:	00080863          	beqz	a6,1286 <instr_fault_handler+0xbc>
    127a:	00000b97          	auipc	s7,0x0
    127e:	55cb8b93          	addi	s7,s7,1372 # 17d6 <test_done>
    1282:	000b8067          	jr	s7
    1286:	a09d                	j	12ec <instr_fault_handler+0x122>
    1288:	34302bf3          	csrr	s7,mtval
    128c:	002bdb93          	srli	s7,s7,0x2
    1290:	002f9813          	slli	a6,t6,0x2
    1294:	00285813          	srli	a6,a6,0x2
    1298:	f90b9de3          	bne	s7,a6,1232 <instr_fault_handler+0x68>
    129c:	0805f813          	andi	a6,a1,128
    12a0:	00080863          	beqz	a6,12b0 <instr_fault_handler+0xe6>
    12a4:	00000b97          	auipc	s7,0x0
    12a8:	532b8b93          	addi	s7,s7,1330 # 17d6 <test_done>
    12ac:	000b8067          	jr	s7
    12b0:	a835                	j	12ec <instr_fault_handler+0x122>
    12b2:	34302bf3          	csrr	s7,mtval
    12b6:	002bdb93          	srli	s7,s7,0x2
    12ba:	000bdb93          	srli	s7,s7,0x0
    12be:	000b9b93          	slli	s7,s7,0x0
    12c2:	002f9813          	slli	a6,t6,0x2
    12c6:	00285813          	srli	a6,a6,0x2
    12ca:	00085813          	srli	a6,a6,0x0
    12ce:	00081813          	slli	a6,a6,0x0
    12d2:	f70b90e3          	bne	s7,a6,1232 <instr_fault_handler+0x68>
    12d6:	0805f813          	andi	a6,a1,128
    12da:	00080963          	beqz	a6,12ec <instr_fault_handler+0x122>
    12de:	00000b97          	auipc	s7,0x0
    12e2:	4f8b8b93          	addi	s7,s7,1272 # 17d6 <test_done>
    12e6:	000b8067          	jr	s7
    12ea:	a009                	j	12ec <instr_fault_handler+0x122>
    12ec:	0045e593          	ori	a1,a1,4
    12f0:	34002bf3          	csrr	s7,mscratch
    12f4:	03d00813          	li	a6,61
    12f8:	010b9bb3          	sll	s7,s7,a6
    12fc:	010bdbb3          	srl	s7,s7,a6
    1300:	003b9813          	slli	a6,s7,0x3
    1304:	010595b3          	sll	a1,a1,a6
    1308:	00b8e8b3          	or	a7,a7,a1
    130c:	34002bf3          	csrr	s7,mscratch
    1310:	003bdb93          	srli	s7,s7,0x3
    1314:	000b8b63          	beqz	s7,132a <instr_fault_handler+0x160>
    1318:	4805                	li	a6,1
    131a:	010b8b63          	beq	s7,a6,1330 <instr_fault_handler+0x166>
    131e:	4809                	li	a6,2
    1320:	010b8b63          	beq	s7,a6,1336 <instr_fault_handler+0x16c>
    1324:	480d                	li	a6,3
    1326:	010b8b63          	beq	s7,a6,133c <instr_fault_handler+0x172>
    132a:	3a089073          	csrw	pmpcfg0,a7
    132e:	a809                	j	1340 <instr_fault_handler+0x176>
    1330:	3a189073          	csrw	pmpcfg1,a7
    1334:	a031                	j	1340 <instr_fault_handler+0x176>
    1336:	3a289073          	csrw	pmpcfg2,a7
    133a:	a019                	j	1340 <instr_fault_handler+0x176>
    133c:	3a389073          	csrw	pmpcfg3,a7
    1340:	0001                	nop
    1342:	008c3083          	ld	ra,8(s8)
    1346:	010c3103          	ld	sp,16(s8)
    134a:	018c3183          	ld	gp,24(s8)
    134e:	020c3203          	ld	tp,32(s8)
    1352:	028c3283          	ld	t0,40(s8)
    1356:	030c3303          	ld	t1,48(s8)
    135a:	038c3383          	ld	t2,56(s8)
    135e:	040c3403          	ld	s0,64(s8)
    1362:	048c3483          	ld	s1,72(s8)
    1366:	050c3503          	ld	a0,80(s8)
    136a:	058c3583          	ld	a1,88(s8)
    136e:	060c3603          	ld	a2,96(s8)
    1372:	068c3683          	ld	a3,104(s8)
    1376:	070c3703          	ld	a4,112(s8)
    137a:	078c3783          	ld	a5,120(s8)
    137e:	080c3803          	ld	a6,128(s8)
    1382:	088c3883          	ld	a7,136(s8)
    1386:	090c3903          	ld	s2,144(s8)
    138a:	098c3983          	ld	s3,152(s8)
    138e:	0a0c3a03          	ld	s4,160(s8)
    1392:	0a8c3a83          	ld	s5,168(s8)
    1396:	0b0c3b03          	ld	s6,176(s8)
    139a:	0b8c3b83          	ld	s7,184(s8)
    139e:	0c0c3c03          	ld	s8,192(s8)
    13a2:	0c8c3c83          	ld	s9,200(s8)
    13a6:	0d0c3d03          	ld	s10,208(s8)
    13aa:	0d8c3d83          	ld	s11,216(s8)
    13ae:	0e0c3e03          	ld	t3,224(s8)
    13b2:	0e8c3e83          	ld	t4,232(s8)
    13b6:	0f0c3f03          	ld	t5,240(s8)
    13ba:	0f8c3f83          	ld	t6,248(s8)
    13be:	0f8c0c13          	addi	s8,s8,248
    13c2:	000c0e33          	add	t3,s8,zero
    13c6:	340c1c73          	csrrw	s8,mscratch,s8
    13ca:	30200073          	mret

00000000000013ce <load_fault_handler>:
    13ce:	4b81                	li	s7,0
    13d0:	340b9073          	csrw	mscratch,s7
    13d4:	4281                	li	t0,0
    13d6:	34002bf3          	csrr	s7,mscratch
    13da:	885e                	mv	a6,s7
    13dc:	4801                	li	a6,0
    13de:	010b8263          	beq	s7,a6,13e2 <load_fault_handler+0x14>
    13e2:	3b002ff3          	csrr	t6,pmpaddr0
    13e6:	3a0028f3          	csrr	a7,pmpcfg0
    13ea:	a009                	j	13ec <load_fault_handler+0x1e>
    13ec:	45a1                	li	a1,8
    13ee:	34002bf3          	csrr	s7,mscratch
    13f2:	1bf6                	slli	s7,s7,0x3d
    13f4:	03dbdb93          	srli	s7,s7,0x3d
    13f8:	41758833          	sub	a6,a1,s7
    13fc:	187d                	addi	a6,a6,-1
    13fe:	080e                	slli	a6,a6,0x3
    1400:	010895b3          	sll	a1,a7,a6
    1404:	0b8e                	slli	s7,s7,0x3
    1406:	985e                	add	a6,a6,s7
    1408:	0105d5b3          	srl	a1,a1,a6
    140c:	03b59813          	slli	a6,a1,0x3b
    1410:	03e85813          	srli	a6,a6,0x3e
    1414:	04080163          	beqz	a6,1456 <load_fault_handler+0x88>
    1418:	4b85                	li	s7,1
    141a:	03780f63          	beq	a6,s7,1458 <load_fault_handler+0x8a>
    141e:	4b89                	li	s7,2
    1420:	07780663          	beq	a6,s7,148c <load_fault_handler+0xbe>
    1424:	4b8d                	li	s7,3
    1426:	09780863          	beq	a6,s7,14b6 <load_fault_handler+0xe8>
    142a:	00000b97          	auipc	s7,0x0
    142e:	3acb8b93          	addi	s7,s7,940 # 17d6 <test_done>
    1432:	000b8067          	jr	s7
    1436:	34002bf3          	csrr	s7,mscratch
    143a:	82fe                	mv	t0,t6
    143c:	0b85                	addi	s7,s7,1
    143e:	340b9073          	csrw	mscratch,s7
    1442:	4f85                	li	t6,1
    1444:	01fbd363          	bge	s7,t6,144a <load_fault_handler+0x7c>
    1448:	b779                	j	13d6 <load_fault_handler+0x8>
    144a:	00000b97          	auipc	s7,0x0
    144e:	38cb8b93          	addi	s7,s7,908 # 17d6 <test_done>
    1452:	000b8067          	jr	s7
    1456:	b7c5                	j	1436 <load_fault_handler+0x68>
    1458:	34002bf3          	csrr	s7,mscratch
    145c:	34302873          	csrr	a6,mtval
    1460:	00285813          	srli	a6,a6,0x2
    1464:	000b9563          	bnez	s7,146e <load_fault_handler+0xa0>
    1468:	fc0847e3          	bltz	a6,1436 <load_fault_handler+0x68>
    146c:	a019                	j	1472 <load_fault_handler+0xa4>
    146e:	fc5864e3          	bltu	a6,t0,1436 <load_fault_handler+0x68>
    1472:	fdf872e3          	bgeu	a6,t6,1436 <load_fault_handler+0x68>
    1476:	0805f813          	andi	a6,a1,128
    147a:	00080863          	beqz	a6,148a <load_fault_handler+0xbc>
    147e:	00000b97          	auipc	s7,0x0
    1482:	358b8b93          	addi	s7,s7,856 # 17d6 <test_done>
    1486:	000b8067          	jr	s7
    148a:	a09d                	j	14f0 <load_fault_handler+0x122>
    148c:	34302bf3          	csrr	s7,mtval
    1490:	002bdb93          	srli	s7,s7,0x2
    1494:	002f9813          	slli	a6,t6,0x2
    1498:	00285813          	srli	a6,a6,0x2
    149c:	f90b9de3          	bne	s7,a6,1436 <load_fault_handler+0x68>
    14a0:	0805f813          	andi	a6,a1,128
    14a4:	00080863          	beqz	a6,14b4 <load_fault_handler+0xe6>
    14a8:	00000b97          	auipc	s7,0x0
    14ac:	32eb8b93          	addi	s7,s7,814 # 17d6 <test_done>
    14b0:	000b8067          	jr	s7
    14b4:	a835                	j	14f0 <load_fault_handler+0x122>
    14b6:	34302bf3          	csrr	s7,mtval
    14ba:	002bdb93          	srli	s7,s7,0x2
    14be:	000bdb93          	srli	s7,s7,0x0
    14c2:	000b9b93          	slli	s7,s7,0x0
    14c6:	002f9813          	slli	a6,t6,0x2
    14ca:	00285813          	srli	a6,a6,0x2
    14ce:	00085813          	srli	a6,a6,0x0
    14d2:	00081813          	slli	a6,a6,0x0
    14d6:	f70b90e3          	bne	s7,a6,1436 <load_fault_handler+0x68>
    14da:	0805f813          	andi	a6,a1,128
    14de:	00080963          	beqz	a6,14f0 <load_fault_handler+0x122>
    14e2:	00000b97          	auipc	s7,0x0
    14e6:	2f4b8b93          	addi	s7,s7,756 # 17d6 <test_done>
    14ea:	000b8067          	jr	s7
    14ee:	a009                	j	14f0 <load_fault_handler+0x122>
    14f0:	0015e593          	ori	a1,a1,1
    14f4:	34002bf3          	csrr	s7,mscratch
    14f8:	03d00813          	li	a6,61
    14fc:	010b9bb3          	sll	s7,s7,a6
    1500:	010bdbb3          	srl	s7,s7,a6
    1504:	003b9813          	slli	a6,s7,0x3
    1508:	010595b3          	sll	a1,a1,a6
    150c:	00b8e8b3          	or	a7,a7,a1
    1510:	34002bf3          	csrr	s7,mscratch
    1514:	003bdb93          	srli	s7,s7,0x3
    1518:	000b8b63          	beqz	s7,152e <load_fault_handler+0x160>
    151c:	4805                	li	a6,1
    151e:	010b8b63          	beq	s7,a6,1534 <load_fault_handler+0x166>
    1522:	4809                	li	a6,2
    1524:	010b8b63          	beq	s7,a6,153a <load_fault_handler+0x16c>
    1528:	480d                	li	a6,3
    152a:	010b8b63          	beq	s7,a6,1540 <load_fault_handler+0x172>
    152e:	3a089073          	csrw	pmpcfg0,a7
    1532:	a809                	j	1544 <load_fault_handler+0x176>
    1534:	3a189073          	csrw	pmpcfg1,a7
    1538:	a031                	j	1544 <load_fault_handler+0x176>
    153a:	3a289073          	csrw	pmpcfg2,a7
    153e:	a019                	j	1544 <load_fault_handler+0x176>
    1540:	3a389073          	csrw	pmpcfg3,a7
    1544:	0001                	nop
    1546:	008c3083          	ld	ra,8(s8)
    154a:	010c3103          	ld	sp,16(s8)
    154e:	018c3183          	ld	gp,24(s8)
    1552:	020c3203          	ld	tp,32(s8)
    1556:	028c3283          	ld	t0,40(s8)
    155a:	030c3303          	ld	t1,48(s8)
    155e:	038c3383          	ld	t2,56(s8)
    1562:	040c3403          	ld	s0,64(s8)
    1566:	048c3483          	ld	s1,72(s8)
    156a:	050c3503          	ld	a0,80(s8)
    156e:	058c3583          	ld	a1,88(s8)
    1572:	060c3603          	ld	a2,96(s8)
    1576:	068c3683          	ld	a3,104(s8)
    157a:	070c3703          	ld	a4,112(s8)
    157e:	078c3783          	ld	a5,120(s8)
    1582:	080c3803          	ld	a6,128(s8)
    1586:	088c3883          	ld	a7,136(s8)
    158a:	090c3903          	ld	s2,144(s8)
    158e:	098c3983          	ld	s3,152(s8)
    1592:	0a0c3a03          	ld	s4,160(s8)
    1596:	0a8c3a83          	ld	s5,168(s8)
    159a:	0b0c3b03          	ld	s6,176(s8)
    159e:	0b8c3b83          	ld	s7,184(s8)
    15a2:	0c0c3c03          	ld	s8,192(s8)
    15a6:	0c8c3c83          	ld	s9,200(s8)
    15aa:	0d0c3d03          	ld	s10,208(s8)
    15ae:	0d8c3d83          	ld	s11,216(s8)
    15b2:	0e0c3e03          	ld	t3,224(s8)
    15b6:	0e8c3e83          	ld	t4,232(s8)
    15ba:	0f0c3f03          	ld	t5,240(s8)
    15be:	0f8c3f83          	ld	t6,248(s8)
    15c2:	0f8c0c13          	addi	s8,s8,248
    15c6:	000c0e33          	add	t3,s8,zero
    15ca:	340c1c73          	csrrw	s8,mscratch,s8
    15ce:	30200073          	mret

00000000000015d2 <store_fault_handler>:
    15d2:	4b81                	li	s7,0
    15d4:	340b9073          	csrw	mscratch,s7
    15d8:	4281                	li	t0,0
    15da:	34002bf3          	csrr	s7,mscratch
    15de:	885e                	mv	a6,s7
    15e0:	4801                	li	a6,0
    15e2:	010b8263          	beq	s7,a6,15e6 <store_fault_handler+0x14>
    15e6:	3b002ff3          	csrr	t6,pmpaddr0
    15ea:	3a0028f3          	csrr	a7,pmpcfg0
    15ee:	a009                	j	15f0 <store_fault_handler+0x1e>
    15f0:	45a1                	li	a1,8
    15f2:	34002bf3          	csrr	s7,mscratch
    15f6:	1bf6                	slli	s7,s7,0x3d
    15f8:	03dbdb93          	srli	s7,s7,0x3d
    15fc:	41758833          	sub	a6,a1,s7
    1600:	187d                	addi	a6,a6,-1
    1602:	080e                	slli	a6,a6,0x3
    1604:	010895b3          	sll	a1,a7,a6
    1608:	0b8e                	slli	s7,s7,0x3
    160a:	985e                	add	a6,a6,s7
    160c:	0105d5b3          	srl	a1,a1,a6
    1610:	03b59813          	slli	a6,a1,0x3b
    1614:	03e85813          	srli	a6,a6,0x3e
    1618:	04080163          	beqz	a6,165a <store_fault_handler+0x88>
    161c:	4b85                	li	s7,1
    161e:	03780f63          	beq	a6,s7,165c <store_fault_handler+0x8a>
    1622:	4b89                	li	s7,2
    1624:	07780663          	beq	a6,s7,1690 <store_fault_handler+0xbe>
    1628:	4b8d                	li	s7,3
    162a:	09780863          	beq	a6,s7,16ba <store_fault_handler+0xe8>
    162e:	00000b97          	auipc	s7,0x0
    1632:	1a8b8b93          	addi	s7,s7,424 # 17d6 <test_done>
    1636:	000b8067          	jr	s7
    163a:	34002bf3          	csrr	s7,mscratch
    163e:	82fe                	mv	t0,t6
    1640:	0b85                	addi	s7,s7,1
    1642:	340b9073          	csrw	mscratch,s7
    1646:	4f85                	li	t6,1
    1648:	01fbd363          	bge	s7,t6,164e <store_fault_handler+0x7c>
    164c:	b779                	j	15da <store_fault_handler+0x8>
    164e:	00000b97          	auipc	s7,0x0
    1652:	188b8b93          	addi	s7,s7,392 # 17d6 <test_done>
    1656:	000b8067          	jr	s7
    165a:	b7c5                	j	163a <store_fault_handler+0x68>
    165c:	34002bf3          	csrr	s7,mscratch
    1660:	34302873          	csrr	a6,mtval
    1664:	00285813          	srli	a6,a6,0x2
    1668:	000b9563          	bnez	s7,1672 <store_fault_handler+0xa0>
    166c:	fc0847e3          	bltz	a6,163a <store_fault_handler+0x68>
    1670:	a019                	j	1676 <store_fault_handler+0xa4>
    1672:	fc5864e3          	bltu	a6,t0,163a <store_fault_handler+0x68>
    1676:	fdf872e3          	bgeu	a6,t6,163a <store_fault_handler+0x68>
    167a:	0805f813          	andi	a6,a1,128
    167e:	00080863          	beqz	a6,168e <store_fault_handler+0xbc>
    1682:	00000b97          	auipc	s7,0x0
    1686:	154b8b93          	addi	s7,s7,340 # 17d6 <test_done>
    168a:	000b8067          	jr	s7
    168e:	a09d                	j	16f4 <store_fault_handler+0x122>
    1690:	34302bf3          	csrr	s7,mtval
    1694:	002bdb93          	srli	s7,s7,0x2
    1698:	002f9813          	slli	a6,t6,0x2
    169c:	00285813          	srli	a6,a6,0x2
    16a0:	f90b9de3          	bne	s7,a6,163a <store_fault_handler+0x68>
    16a4:	0805f813          	andi	a6,a1,128
    16a8:	00080863          	beqz	a6,16b8 <store_fault_handler+0xe6>
    16ac:	00000b97          	auipc	s7,0x0
    16b0:	12ab8b93          	addi	s7,s7,298 # 17d6 <test_done>
    16b4:	000b8067          	jr	s7
    16b8:	a835                	j	16f4 <store_fault_handler+0x122>
    16ba:	34302bf3          	csrr	s7,mtval
    16be:	002bdb93          	srli	s7,s7,0x2
    16c2:	000bdb93          	srli	s7,s7,0x0
    16c6:	000b9b93          	slli	s7,s7,0x0
    16ca:	002f9813          	slli	a6,t6,0x2
    16ce:	00285813          	srli	a6,a6,0x2
    16d2:	00085813          	srli	a6,a6,0x0
    16d6:	00081813          	slli	a6,a6,0x0
    16da:	f70b90e3          	bne	s7,a6,163a <store_fault_handler+0x68>
    16de:	0805f813          	andi	a6,a1,128
    16e2:	00080963          	beqz	a6,16f4 <store_fault_handler+0x122>
    16e6:	00000b97          	auipc	s7,0x0
    16ea:	0f0b8b93          	addi	s7,s7,240 # 17d6 <test_done>
    16ee:	000b8067          	jr	s7
    16f2:	a009                	j	16f4 <store_fault_handler+0x122>
    16f4:	0035e593          	ori	a1,a1,3
    16f8:	34002bf3          	csrr	s7,mscratch
    16fc:	03d00813          	li	a6,61
    1700:	010b9bb3          	sll	s7,s7,a6
    1704:	010bdbb3          	srl	s7,s7,a6
    1708:	003b9813          	slli	a6,s7,0x3
    170c:	010595b3          	sll	a1,a1,a6
    1710:	00b8e8b3          	or	a7,a7,a1
    1714:	34002bf3          	csrr	s7,mscratch
    1718:	003bdb93          	srli	s7,s7,0x3
    171c:	000b8b63          	beqz	s7,1732 <store_fault_handler+0x160>
    1720:	4805                	li	a6,1
    1722:	010b8b63          	beq	s7,a6,1738 <store_fault_handler+0x166>
    1726:	4809                	li	a6,2
    1728:	010b8b63          	beq	s7,a6,173e <store_fault_handler+0x16c>
    172c:	480d                	li	a6,3
    172e:	010b8b63          	beq	s7,a6,1744 <store_fault_handler+0x172>
    1732:	3a089073          	csrw	pmpcfg0,a7
    1736:	a809                	j	1748 <store_fault_handler+0x176>
    1738:	3a189073          	csrw	pmpcfg1,a7
    173c:	a031                	j	1748 <store_fault_handler+0x176>
    173e:	3a289073          	csrw	pmpcfg2,a7
    1742:	a019                	j	1748 <store_fault_handler+0x176>
    1744:	3a389073          	csrw	pmpcfg3,a7
    1748:	0001                	nop
    174a:	008c3083          	ld	ra,8(s8)
    174e:	010c3103          	ld	sp,16(s8)
    1752:	018c3183          	ld	gp,24(s8)
    1756:	020c3203          	ld	tp,32(s8)
    175a:	028c3283          	ld	t0,40(s8)
    175e:	030c3303          	ld	t1,48(s8)
    1762:	038c3383          	ld	t2,56(s8)
    1766:	040c3403          	ld	s0,64(s8)
    176a:	048c3483          	ld	s1,72(s8)
    176e:	050c3503          	ld	a0,80(s8)
    1772:	058c3583          	ld	a1,88(s8)
    1776:	060c3603          	ld	a2,96(s8)
    177a:	068c3683          	ld	a3,104(s8)
    177e:	070c3703          	ld	a4,112(s8)
    1782:	078c3783          	ld	a5,120(s8)
    1786:	080c3803          	ld	a6,128(s8)
    178a:	088c3883          	ld	a7,136(s8)
    178e:	090c3903          	ld	s2,144(s8)
    1792:	098c3983          	ld	s3,152(s8)
    1796:	0a0c3a03          	ld	s4,160(s8)
    179a:	0a8c3a83          	ld	s5,168(s8)
    179e:	0b0c3b03          	ld	s6,176(s8)
    17a2:	0b8c3b83          	ld	s7,184(s8)
    17a6:	0c0c3c03          	ld	s8,192(s8)
    17aa:	0c8c3c83          	ld	s9,200(s8)
    17ae:	0d0c3d03          	ld	s10,208(s8)
    17b2:	0d8c3d83          	ld	s11,216(s8)
    17b6:	0e0c3e03          	ld	t3,224(s8)
    17ba:	0e8c3e83          	ld	t4,232(s8)
    17be:	0f0c3f03          	ld	t5,240(s8)
    17c2:	0f8c3f83          	ld	t6,248(s8)
    17c6:	0f8c0c13          	addi	s8,s8,248
    17ca:	000c0e33          	add	t3,s8,zero
    17ce:	340c1c73          	csrrw	s8,mscratch,s8
    17d2:	30200073          	mret

00000000000017d6 <test_done>:
    17d6:	4185                	li	gp,1
    17d8:	00000073          	ecall

00000000000017dc <main>:
    17dc:	4601                	li	a2,0
    17de:	fff00c9b          	addiw	s9,zero,-1
    17e2:	1cfe                	slli	s9,s9,0x3f
    17e4:	fffcb9b7          	lui	s3,0xfffcb
    17e8:	0ed9899b          	addiw	s3,s3,237
    17ec:	09be                	slli	s3,s3,0xf
    17ee:	f2598993          	addi	s3,s3,-219 # fffffffffffcaf25 <_end+0xfffffffffffab225>
    17f2:	09c2                	slli	s3,s3,0x10
    17f4:	b9998993          	addi	s3,s3,-1127
    17f8:	09b2                	slli	s3,s3,0xc
    17fa:	7d898993          	addi	s3,s3,2008
    17fe:	fff0029b          	addiw	t0,zero,-1
    1802:	12fe                	slli	t0,t0,0x3f
    1804:	54fd                	li	s1,-1
    1806:	fff0039b          	addiw	t2,zero,-1
    180a:	13fe                	slli	t2,t2,0x3f
    180c:	062536b7          	lui	a3,0x6253
    1810:	2256869b          	addiw	a3,a3,549
    1814:	06b2                	slli	a3,a3,0xc
    1816:	14968693          	addi	a3,a3,329 # 6253149 <_end+0x6233449>
    181a:	06b2                	slli	a3,a3,0xc
    181c:	f7f68693          	addi	a3,a3,-129
    1820:	06b2                	slli	a3,a3,0xc
    1822:	e3c68693          	addi	a3,a3,-452
    1826:	fff00d1b          	addiw	s10,zero,-1
    182a:	1d7e                	slli	s10,s10,0x3f
    182c:	4701                	li	a4,0
    182e:	57fd                	li	a5,-1
    1830:	00fd09bb          	addw	s3,s10,a5
    1834:	0296b9b3          	mulhu	s3,a3,s1
    1838:	00fd09bb          	addw	s3,s10,a5
    183c:	0299e733          	rem	a4,s3,s1
    1840:	e0ac869b          	addiw	a3,s9,-502
    1844:	e9c89717          	auipc	a4,0xe9c89
    1848:	0001                	nop
    184a:	41928d33          	sub	s10,t0,s9
    184e:	0254a633          	mulhsu	a2,s1,t0
    1852:	e9c89717          	auipc	a4,0xe9c89
    1856:	13a60d13          	addi	s10,a2,314
    185a:	5d328d37          	lui	s10,0x5d328
    185e:	e0ac869b          	addiw	a3,s9,-502
    1862:	02d2f9b3          	remu	s3,t0,a3
    1866:	02c9e7bb          	remw	a5,s3,a2
    186a:	0001                	nop
    186c:	e0ac869b          	addiw	a3,s9,-502
    1870:	413602bb          	subw	t0,a2,s3
    1874:	02d28cb3          	mul	s9,t0,a3
    1878:	413602bb          	subw	t0,a2,s3
    187c:	413602bb          	subw	t0,a2,s3
    1880:	13a60d13          	addi	s10,a2,314
    1884:	033674bb          	remuw	s1,a2,s3
    1888:	13a60d13          	addi	s10,a2,314
    188c:	fff0089b          	addiw	a7,zero,-1
    1890:	18fe                	slli	a7,a7,0x3f
    1892:	fff00d1b          	addiw	s10,zero,-1
    1896:	1d7e                	slli	s10,s10,0x3f
    1898:	5f7d                	li	t5,-1
    189a:	4081                	li	ra,0
    189c:	fff0061b          	addiw	a2,zero,-1
    18a0:	167e                	slli	a2,a2,0x3f
    18a2:	fff00c9b          	addiw	s9,zero,-1
    18a6:	1cfe                	slli	s9,s9,0x3f
    18a8:	fff0029b          	addiw	t0,zero,-1
    18ac:	12fe                	slli	t0,t0,0x3f
    18ae:	05951337          	lui	t1,0x5951
    18b2:	dc53031b          	addiw	t1,t1,-571
    18b6:	0332                	slli	t1,t1,0xc
    18b8:	7dd30313          	addi	t1,t1,2013 # 59517dd <_end+0x5931add>
    18bc:	0332                	slli	t1,t1,0xc
    18be:	0b930313          	addi	t1,t1,185
    18c2:	0332                	slli	t1,t1,0xc
    18c4:	f0630313          	addi	t1,t1,-250
    18c8:	4781                	li	a5,0
    18ca:	fff0091b          	addiw	s2,zero,-1
    18ce:	197e                	slli	s2,s2,0x3f
    18d0:	e0ad029b          	addiw	t0,s10,-502
    18d4:	03a372b3          	remu	t0,t1,s10
    18d8:	40cd0cbb          	subw	s9,s10,a2
    18dc:	03e28cb3          	mul	s9,t0,t5
    18e0:	e9c89317          	auipc	t1,0xe9c89
    18e4:	e0ad029b          	addiw	t0,s10,-502
    18e8:	13a60913          	addi	s2,a2,314
    18ec:	03295cbb          	divuw	s9,s2,s2
    18f0:	0001                	nop
    18f2:	02c8ef33          	rem	t5,a7,a2
    18f6:	e9c89317          	auipc	t1,0xe9c89
    18fa:	03294d33          	div	s10,s2,s2
    18fe:	13a60913          	addi	s2,a2,314
    1902:	e0ad029b          	addiw	t0,s10,-502
    1906:	03ef42bb          	divw	t0,t5,t5
    190a:	03a372b3          	remu	t0,t1,s10
    190e:	0001                	nop
    1910:	03ecd7b3          	divu	a5,s9,t5
    1914:	40cd0cbb          	subw	s9,s10,a2
    1918:	e0ad029b          	addiw	t0,s10,-502
    191c:	0001                	nop
    191e:	0217833b          	mulw	t1,a5,ra
    1922:	996a                	add	s2,s2,s10
    1924:	40cd0cbb          	subw	s9,s10,a2
    1928:	02c8ef33          	rem	t5,a7,a2
    192c:	e0ad029b          	addiw	t0,s10,-502
    1930:	03a372b3          	remu	t0,t1,s10
    1934:	40cd0cbb          	subw	s9,s10,a2
    1938:	03ecd7b3          	divu	a5,s9,t5
    193c:	0396793b          	remuw	s2,a2,s9
    1940:	02a389b7          	lui	s3,0x2a38
    1944:	ce99899b          	addiw	s3,s3,-791
    1948:	09b6                	slli	s3,s3,0xd
    194a:	54598993          	addi	s3,s3,1349 # 2a38545 <_end+0x2a18845>
    194e:	09b2                	slli	s3,s3,0xc
    1950:	97f98993          	addi	s3,s3,-1665
    1954:	09b2                	slli	s3,s3,0xc
    1956:	d7998993          	addi	s3,s3,-647
    195a:	53fd                	li	t2,-1
    195c:	557d                	li	a0,-1
    195e:	0091b8b7          	lui	a7,0x91b
    1962:	29f8889b          	addiw	a7,a7,671
    1966:	08b6                	slli	a7,a7,0xd
    1968:	ebd88893          	addi	a7,a7,-323 # 91aebd <_end+0x8fb1bd>
    196c:	08b6                	slli	a7,a7,0xd
    196e:	45b88893          	addi	a7,a7,1115
    1972:	08b6                	slli	a7,a7,0xd
    1974:	62788893          	addi	a7,a7,1575
    1978:	ff7d21b7          	lui	gp,0xff7d2
    197c:	ad71819b          	addiw	gp,gp,-1321
    1980:	01b2                	slli	gp,gp,0xc
    1982:	5d118193          	addi	gp,gp,1489 # ffffffffff7d25d1 <_end+0xffffffffff7b28d1>
    1986:	01b6                	slli	gp,gp,0xd
    1988:	f8118193          	addi	gp,gp,-127
    198c:	01ba                	slli	gp,gp,0xe
    198e:	98418193          	addi	gp,gp,-1660
    1992:	577d                	li	a4,-1
    1994:	fff0079b          	addiw	a5,zero,-1
    1998:	17fe                	slli	a5,a5,0x3f
    199a:	fff0069b          	addiw	a3,zero,-1
    199e:	16fe                	slli	a3,a3,0x3f
    19a0:	4c81                	li	s9,0
    19a2:	4b81                	li	s7,0
    19a4:	02e1ebbb          	remw	s7,gp,a4
    19a8:	0311a533          	mulhsu	a0,gp,a7
    19ac:	02dcf8bb          	remuw	a7,s9,a3
    19b0:	023781bb          	mulw	gp,a5,gp
    19b4:	0001                	nop
    19b6:	02a1b9b3          	mulhu	s3,gp,a0
    19ba:	0001                	nop
    19bc:	02f1a3b3          	mulhsu	t2,gp,a5
    19c0:	02e7f1bb          	remuw	gp,a5,a4
    19c4:	02a1b9b3          	mulhu	s3,gp,a0
    19c8:	e9c89397          	auipc	t2,0xe9c89
    19cc:	0398e73b          	remw	a4,a7,s9
    19d0:	5d328737          	lui	a4,0x5d328
    19d4:	027711b3          	mulh	gp,a4,t2
    19d8:	007509b3          	add	s3,a0,t2
    19dc:	031cecb3          	rem	s9,s9,a7
    19e0:	02f1a3b3          	mulhsu	t2,gp,a5
    19e4:	0001                	nop
    19e6:	4981                	li	s3,0
    19e8:	5d7d                	li	s10,-1
    19ea:	fff0091b          	addiw	s2,zero,-1
    19ee:	197e                	slli	s2,s2,0x3f
    19f0:	fff0089b          	addiw	a7,zero,-1
    19f4:	18fe                	slli	a7,a7,0x3f
    19f6:	4381                	li	t2,0
    19f8:	fff00b1b          	addiw	s6,zero,-1
    19fc:	1b7e                	slli	s6,s6,0x3f
    19fe:	ff7fd537          	lui	a0,0xff7fd
    1a02:	19b5051b          	addiw	a0,a0,411
    1a06:	0532                	slli	a0,a0,0xc
    1a08:	30750513          	addi	a0,a0,775 # ffffffffff7fd307 <_end+0xffffffffff7dd607>
    1a0c:	0532                	slli	a0,a0,0xc
    1a0e:	f1750513          	addi	a0,a0,-233
    1a12:	053e                	slli	a0,a0,0xf
    1a14:	edd50513          	addi	a0,a0,-291
    1a18:	fff00c9b          	addiw	s9,zero,-1
    1a1c:	1cfe                	slli	s9,s9,0x3f
    1a1e:	fff0079b          	addiw	a5,zero,-1
    1a22:	17fe                	slli	a5,a5,0x3f
    1a24:	676df2b7          	lui	t0,0x676df
    1a28:	cfb2829b          	addiw	t0,t0,-773
    1a2c:	02b2                	slli	t0,t0,0xc
    1a2e:	31b28293          	addi	t0,t0,795 # 676df31b <_end+0x676bf61b>
    1a32:	02be                	slli	t0,t0,0xf
    1a34:	0e828293          	addi	t0,t0,232
    1a38:	0312b933          	mulhu	s2,t0,a7
    1a3c:	025d753b          	remuw	a0,s10,t0
    1a40:	41350933          	sub	s2,a0,s3
    1a44:	025d753b          	remuw	a0,s10,t0
    1a48:	007b0d33          	add	s10,s6,t2
    1a4c:	41a907bb          	subw	a5,s2,s10
    1a50:	5d328b37          	lui	s6,0x5d328
    1a54:	13a50913          	addi	s2,a0,314
    1a58:	032b67bb          	remw	a5,s6,s2
    1a5c:	007b0d33          	add	s10,s6,t2
    1a60:	0329eb33          	rem	s6,s3,s2
    1a64:	13a50913          	addi	s2,a0,314
    1a68:	02528d33          	mul	s10,t0,t0
    1a6c:	13a50913          	addi	s2,a0,314
    1a70:	039579b3          	remu	s3,a0,s9
    1a74:	03194b33          	div	s6,s2,a7
    1a78:	41350933          	sub	s2,a0,s3
    1a7c:	e9c89517          	auipc	a0,0xe9c89
    1a80:	5d328b37          	lui	s6,0x5d328
    1a84:	007b0d33          	add	s10,s6,t2
    1a88:	03194b33          	div	s6,s2,a7
    1a8c:	5d328b37          	lui	s6,0x5d328
    1a90:	4981                	li	s3,0
    1a92:	5d7d                	li	s10,-1
    1a94:	5b7d                	li	s6,-1
    1a96:	4881                	li	a7,0
    1a98:	53fd                	li	t2,-1
    1a9a:	4c81                	li	s9,0
    1a9c:	fe7f01b7          	lui	gp,0xfe7f0
    1aa0:	b4d1819b          	addiw	gp,gp,-1203
    1aa4:	01b6                	slli	gp,gp,0xd
    1aa6:	3a718193          	addi	gp,gp,935 # fffffffffe7f03a7 <_end+0xfffffffffe7d06a7>
    1aaa:	01b2                	slli	gp,gp,0xc
    1aac:	2c118193          	addi	gp,gp,705
    1ab0:	01b2                	slli	gp,gp,0xc
    1ab2:	e3c18193          	addi	gp,gp,-452
    1ab6:	5ffd                	li	t6,-1
    1ab8:	02fee7b7          	lui	a5,0x2fee
    1abc:	e9d7879b          	addiw	a5,a5,-355
    1ac0:	07b6                	slli	a5,a5,0xd
    1ac2:	72178793          	addi	a5,a5,1825 # 2fee721 <_end+0x2fcea21>
    1ac6:	07b2                	slli	a5,a5,0xc
    1ac8:	f5b78793          	addi	a5,a5,-165
    1acc:	07b2                	slli	a5,a5,0xc
    1ace:	9b578793          	addi	a5,a5,-1611
    1ad2:	5dfd                	li	s11,-1
    1ad4:	03b8f8bb          	remuw	a7,a7,s11
    1ad8:	e0ad8d9b          	addiw	s11,s11,-502
    1adc:	02f7ddb3          	divu	s11,a5,a5
    1ae0:	03b7fb33          	remu	s6,a5,s11
    1ae4:	03b988bb          	mulw	a7,s3,s11
    1ae8:	036fcfbb          	divw	t6,t6,s6
    1aec:	41978b33          	sub	s6,a5,s9
    1af0:	e9c89397          	auipc	t2,0xe9c89
    1af4:	027d58bb          	divuw	a7,s10,t2
    1af8:	91da                	add	gp,gp,s6
    1afa:	03b8f8bb          	remuw	a7,a7,s11
    1afe:	02f783b3          	mul	t2,a5,a5
    1b02:	033d11b3          	mulh	gp,s10,s3
    1b06:	023d49b3          	div	s3,s10,gp
    1b0a:	033d11b3          	mulh	gp,s10,s3
    1b0e:	5d328b37          	lui	s6,0x5d328
    1b12:	036fcfbb          	divw	t6,t6,s6
    1b16:	0319eb33          	rem	s6,s3,a7
    1b1a:	036dad33          	mulhsu	s10,s11,s6
    1b1e:	027d58bb          	divuw	a7,s10,t2
    1b22:	fff00e9b          	addiw	t4,zero,-1
    1b26:	1efe                	slli	t4,t4,0x3f
    1b28:	4681                	li	a3,0
    1b2a:	4781                	li	a5,0
    1b2c:	fff0031b          	addiw	t1,zero,-1
    1b30:	137e                	slli	t1,t1,0x3f
    1b32:	000e1637          	lui	a2,0xe1
    1b36:	0bd6061b          	addiw	a2,a2,189
    1b3a:	0636                	slli	a2,a2,0xd
    1b3c:	7db60613          	addi	a2,a2,2011 # e17db <_end+0xc1adb>
    1b40:	0632                	slli	a2,a2,0xc
    1b42:	29b60613          	addi	a2,a2,667
    1b46:	064a                	slli	a2,a2,0x12
    1b48:	f1760613          	addi	a2,a2,-233
    1b4c:	4d01                	li	s10,0
    1b4e:	547d                	li	s0,-1
    1b50:	fe820537          	lui	a0,0xfe820
    1b54:	2f95051b          	addiw	a0,a0,761
    1b58:	0532                	slli	a0,a0,0xc
    1b5a:	46f50513          	addi	a0,a0,1135 # fffffffffe82046f <_end+0xfffffffffe80076f>
    1b5e:	0532                	slli	a0,a0,0xc
    1b60:	05150513          	addi	a0,a0,81
    1b64:	053a                	slli	a0,a0,0xe
    1b66:	0c050513          	addi	a0,a0,192
    1b6a:	4b01                	li	s6,0
    1b6c:	fff0091b          	addiw	s2,zero,-1
    1b70:	197e                	slli	s2,s2,0x3f
    1b72:	0267833b          	mulw	t1,a5,t1
    1b76:	e9c89317          	auipc	t1,0xe9c89
    1b7a:	02d956bb          	divuw	a3,s2,a3
    1b7e:	41a30433          	sub	s0,t1,s10
    1b82:	02d956bb          	divuw	a3,s2,a3
    1b86:	02db4d3b          	divw	s10,s6,a3
    1b8a:	008d0933          	add	s2,s10,s0
    1b8e:	028d6b33          	rem	s6,s10,s0
    1b92:	41a30433          	sub	s0,t1,s10
    1b96:	0001                	nop
    1b98:	01dd07bb          	addw	a5,s10,t4
    1b9c:	008d0933          	add	s2,s10,s0
    1ba0:	02aea433          	mulhsu	s0,t4,a0
    1ba4:	0001                	nop
    1ba6:	02ad1533          	mulh	a0,s10,a0
    1baa:	0001                	nop
    1bac:	e9c89317          	auipc	t1,0xe9c89
    1bb0:	010dd7b7          	lui	a5,0x10dd
    1bb4:	5b17879b          	addiw	a5,a5,1457
    1bb8:	07b2                	slli	a5,a5,0xc
    1bba:	eef78793          	addi	a5,a5,-273 # 10dceef <_end+0x10bd1ef>
    1bbe:	07b2                	slli	a5,a5,0xc
    1bc0:	ea978793          	addi	a5,a5,-343
    1bc4:	07b6                	slli	a5,a5,0xd
    1bc6:	0785                	addi	a5,a5,1
    1bc8:	567d                	li	a2,-1
    1bca:	4b81                	li	s7,0
    1bcc:	4401                	li	s0,0
    1bce:	fff0071b          	addiw	a4,zero,-1
    1bd2:	177e                	slli	a4,a4,0x3f
    1bd4:	001d3d37          	lui	s10,0x1d3
    1bd8:	37fd0d1b          	addiw	s10,s10,895
    1bdc:	0d3a                	slli	s10,s10,0xe
    1bde:	19dd0d13          	addi	s10,s10,413 # 1d319d <_end+0x1b349d>
    1be2:	0d3e                	slli	s10,s10,0xf
    1be4:	47fd0d13          	addi	s10,s10,1151
    1be8:	0d32                	slli	s10,s10,0xc
    1bea:	31dd0d13          	addi	s10,s10,797
    1bee:	fc73d2b7          	lui	t0,0xfc73d
    1bf2:	c352829b          	addiw	t0,t0,-971
    1bf6:	02b6                	slli	t0,t0,0xd
    1bf8:	b1528293          	addi	t0,t0,-1259 # fffffffffc73cb15 <_end+0xfffffffffc71ce15>
    1bfc:	02b2                	slli	t0,t0,0xc
    1bfe:	73728293          	addi	t0,t0,1847
    1c02:	02b2                	slli	t0,t0,0xc
    1c04:	0c728293          	addi	t0,t0,199
    1c08:	003a31b7          	lui	gp,0x3a3
    1c0c:	a671819b          	addiw	gp,gp,-1433
    1c10:	01b6                	slli	gp,gp,0xd
    1c12:	20d18193          	addi	gp,gp,525 # 3a320d <_end+0x38350d>
    1c16:	01b2                	slli	gp,gp,0xc
    1c18:	da118193          	addi	gp,gp,-607
    1c1c:	01c2                	slli	gp,gp,0x10
    1c1e:	fd118193          	addi	gp,gp,-47
    1c22:	5ffd                	li	t6,-1
    1c24:	fff00c9b          	addiw	s9,zero,-1
    1c28:	1cfe                	slli	s9,s9,0x3f
    1c2a:	0281e433          	rem	s0,gp,s0
    1c2e:	5d328d37          	lui	s10,0x5d328
    1c32:	02efc7bb          	divw	a5,t6,a4
    1c36:	03947bb3          	remu	s7,s0,s9
    1c3a:	023f81bb          	mulw	gp,t6,gp
    1c3e:	0001                	nop
    1c40:	0001                	nop
    1c42:	02f7d1b3          	divu	gp,a5,a5
    1c46:	03f617b3          	mulh	a5,a2,t6
    1c4a:	00fd0433          	add	s0,s10,a5
    1c4e:	03745cbb          	divuw	s9,s0,s7
    1c52:	02f7d1b3          	divu	gp,a5,a5
    1c56:	8c19                	sub	s0,s0,a4
    1c58:	02f7d1b3          	divu	gp,a5,a5
    1c5c:	0001                	nop
    1c5e:	e0a18b9b          	addiw	s7,gp,-502
    1c62:	00fd0433          	add	s0,s10,a5
    1c66:	03f617b3          	mulh	a5,a2,t6
    1c6a:	03745cbb          	divuw	s9,s0,s7
    1c6e:	03947bb3          	remu	s7,s0,s9
    1c72:	00fd02bb          	addw	t0,s10,a5
    1c76:	fff00b1b          	addiw	s6,zero,-1
    1c7a:	1b7e                	slli	s6,s6,0x3f
    1c7c:	fff00a9b          	addiw	s5,zero,-1
    1c80:	1afe                	slli	s5,s5,0x3f
    1c82:	56fd                	li	a3,-1
    1c84:	fe97a937          	lui	s2,0xfe97a
    1c88:	7ad9091b          	addiw	s2,s2,1965
    1c8c:	0932                	slli	s2,s2,0xc
    1c8e:	92590913          	addi	s2,s2,-1755 # fffffffffe979925 <_end+0xfffffffffe959c25>
    1c92:	0932                	slli	s2,s2,0xc
    1c94:	4c590913          	addi	s2,s2,1221
    1c98:	0932                	slli	s2,s2,0xc
    1c9a:	1d990913          	addi	s2,s2,473
    1c9e:	639d                	lui	t2,0x7
    1ca0:	3dd3839b          	addiw	t2,t2,989
    1ca4:	03ca                	slli	t2,t2,0x12
    1ca6:	04538393          	addi	t2,t2,69 # 7045 <main+0x5869>
    1caa:	03be                	slli	t2,t2,0xf
    1cac:	aa938393          	addi	t2,t2,-1367
    1cb0:	03b2                	slli	t2,t2,0xc
    1cb2:	29938393          	addi	t2,t2,665
    1cb6:	ffb40737          	lui	a4,0xffb40
    1cba:	f0b7071b          	addiw	a4,a4,-245
    1cbe:	0736                	slli	a4,a4,0xd
    1cc0:	7a970713          	addi	a4,a4,1961 # ffffffffffb407a9 <_end+0xffffffffffb20aa9>
    1cc4:	0732                	slli	a4,a4,0xc
    1cc6:	e3f70713          	addi	a4,a4,-449
    1cca:	0736                	slli	a4,a4,0xd
    1ccc:	50570713          	addi	a4,a4,1285
    1cd0:	4f81                	li	t6,0
    1cd2:	fff0021b          	addiw	tp,zero,-1
    1cd6:	127e                	slli	tp,tp,0x3f
    1cd8:	017de337          	lui	t1,0x17de
    1cdc:	9cd3031b          	addiw	t1,t1,-1587
    1ce0:	0332                	slli	t1,t1,0xc
    1ce2:	3d730313          	addi	t1,t1,983 # 17de3d7 <_end+0x17be6d7>
    1ce6:	0336                	slli	t1,t1,0xd
    1ce8:	6df30313          	addi	t1,t1,1759
    1cec:	0332                	slli	t1,t1,0xc
    1cee:	bcb30313          	addi	t1,t1,-1077
    1cf2:	5a7d                	li	s4,-1
    1cf4:	004b0933          	add	s2,s6,tp
    1cf8:	032376b3          	remu	a3,t1,s2
    1cfc:	02671733          	mulh	a4,a4,t1
    1d00:	02671733          	mulh	a4,a4,t1
    1d04:	032376b3          	remu	a3,t1,s2
    1d08:	026a4b33          	div	s6,s4,t1
    1d0c:	026a4b33          	div	s6,s4,t1
    1d10:	41620933          	sub	s2,tp,s6
    1d14:	41620933          	sub	s2,tp,s6
    1d18:	407206bb          	subw	a3,tp,t2
    1d1c:	e9c89317          	auipc	t1,0xe9c89
    1d20:	02727abb          	remuw	s5,tp,t2
    1d24:	026a4b33          	div	s6,s4,t1
    1d28:	02496233          	rem	tp,s2,tp
    1d2c:	e9c89317          	auipc	t1,0xe9c89
    1d30:	004b0933          	add	s2,s6,tp
    1d34:	e9c89317          	auipc	t1,0xe9c89
    1d38:	02e753b3          	divu	t2,a4,a4
    1d3c:	02d3a233          	mulhsu	tp,t2,a3
    1d40:	0001                	nop
    1d42:	02727abb          	remuw	s5,tp,t2
    1d46:	02e74fbb          	divw	t6,a4,a4
    1d4a:	036383bb          	mulw	t2,t2,s6
    1d4e:	5ffd                	li	t6,-1
    1d50:	557d                	li	a0,-1
    1d52:	4b81                	li	s7,0
    1d54:	fff0031b          	addiw	t1,zero,-1
    1d58:	137e                	slli	t1,t1,0x3f
    1d5a:	4601                	li	a2,0
    1d5c:	fff00d1b          	addiw	s10,zero,-1
    1d60:	1d7e                	slli	s10,s10,0x3f
    1d62:	fff0039b          	addiw	t2,zero,-1
    1d66:	13fe                	slli	t2,t2,0x3f
    1d68:	51fd                	li	gp,-1
    1d6a:	fe9352b7          	lui	t0,0xfe935
    1d6e:	f712829b          	addiw	t0,t0,-143
    1d72:	02b2                	slli	t0,t0,0xc
    1d74:	68728293          	addi	t0,t0,1671 # fffffffffe935687 <_end+0xfffffffffe915987>
    1d78:	02b2                	slli	t0,t0,0xc
    1d7a:	59128293          	addi	t0,t0,1425
    1d7e:	02b6                	slli	t0,t0,0xd
    1d80:	a2b28293          	addi	t0,t0,-1493
    1d84:	fff55737          	lui	a4,0xfff55
    1d88:	fad7071b          	addiw	a4,a4,-83
    1d8c:	0732                	slli	a4,a4,0xc
    1d8e:	08b70713          	addi	a4,a4,139 # fffffffffff5508b <_end+0xfffffffffff3538b>
    1d92:	073a                	slli	a4,a4,0xe
    1d94:	ecf70713          	addi	a4,a4,-305
    1d98:	0732                	slli	a4,a4,0xc
    1d9a:	d5570713          	addi	a4,a4,-683
    1d9e:	40cd0fbb          	subw	t6,s10,a2
    1da2:	e9c89317          	auipc	t1,0xe9c89
    1da6:	02563d33          	mulhu	s10,a2,t0
    1daa:	5d328d37          	lui	s10,0x5d328
    1dae:	02efa3b3          	mulhsu	t2,t6,a4
    1db2:	027713b3          	mulh	t2,a4,t2
    1db6:	02a1e733          	rem	a4,gp,a0
    1dba:	13a60513          	addi	a0,a2,314
    1dbe:	41a30533          	sub	a0,t1,s10
    1dc2:	956a                	add	a0,a0,s10
    1dc4:	02a1e733          	rem	a4,gp,a0
    1dc8:	02efa3b3          	mulhsu	t2,t6,a4
    1dcc:	02e371b3          	remu	gp,t1,a4
    1dd0:	027713b3          	mulh	t2,a4,t2
    1dd4:	02a54d33          	div	s10,a0,a0
    1dd8:	02563d33          	mulhu	s10,a2,t0
    1ddc:	02563d33          	mulhu	s10,a2,t0
    1de0:	02563d33          	mulhu	s10,a2,t0
    1de4:	e0ad0b9b          	addiw	s7,s10,-502
    1de8:	02a54d33          	div	s10,a0,a0
    1dec:	41a30533          	sub	a0,t1,s10
    1df0:	41a30533          	sub	a0,t1,s10
    1df4:	40cd0fbb          	subw	t6,s10,a2
    1df8:	02a1e733          	rem	a4,gp,a0
    1dfc:	026fdbb3          	divu	s7,t6,t1
    1e00:	956a                	add	a0,a0,s10
    1e02:	5cfd                	li	s9,-1
    1e04:	5a7d                	li	s4,-1
    1e06:	fcaab937          	lui	s2,0xfcaab
    1e0a:	5ff9091b          	addiw	s2,s2,1535
    1e0e:	0936                	slli	s2,s2,0xd
    1e10:	a8d90913          	addi	s2,s2,-1395 # fffffffffcaaaa8d <_end+0xfffffffffca8ad8d>
    1e14:	0932                	slli	s2,s2,0xc
    1e16:	c9f90913          	addi	s2,s2,-865
    1e1a:	0932                	slli	s2,s2,0xc
    1e1c:	db090913          	addi	s2,s2,-592
    1e20:	fffc8337          	lui	t1,0xfffc8
    1e24:	bc73031b          	addiw	t1,t1,-1081
    1e28:	033a                	slli	t1,t1,0xe
    1e2a:	da330313          	addi	t1,t1,-605 # fffffffffffc7da3 <_end+0xfffffffffffa80a3>
    1e2e:	033a                	slli	t1,t1,0xe
    1e30:	1df30313          	addi	t1,t1,479
    1e34:	0342                	slli	t1,t1,0x10
    1e36:	1c730313          	addi	t1,t1,455
    1e3a:	58fd                	li	a7,-1
    1e3c:	fff00d1b          	addiw	s10,zero,-1
    1e40:	1d7e                	slli	s10,s10,0x3f
    1e42:	001733b7          	lui	t2,0x173
    1e46:	8453839b          	addiw	t2,t2,-1979
    1e4a:	03b2                	slli	t2,t2,0xc
    1e4c:	bf938393          	addi	t2,t2,-1031 # 172bf9 <_end+0x152ef9>
    1e50:	03b6                	slli	t2,t2,0xd
    1e52:	b4b38393          	addi	t2,t2,-1205
    1e56:	03b2                	slli	t2,t2,0xc
    1e58:	6d838393          	addi	t2,t2,1752
    1e5c:	4481                	li	s1,0
    1e5e:	4681                	li	a3,0
    1e60:	fff0021b          	addiw	tp,zero,-1
    1e64:	127e                	slli	tp,tp,0x3f
    1e66:	0264a3b3          	mulhsu	t2,s1,t1
    1e6a:	e0ad069b          	addiw	a3,s10,-502
    1e6e:	e0ad069b          	addiw	a3,s10,-502
    1e72:	0293893b          	mulw	s2,t2,s1
    1e76:	0001                	nop
    1e78:	41a20233          	sub	tp,tp,s10
    1e7c:	007d033b          	addw	t1,s10,t2
    1e80:	0324d3b3          	divu	t2,s1,s2
    1e84:	41a20233          	sub	tp,tp,s10
    1e88:	029d14b3          	mulh	s1,s10,s1
    1e8c:	e9c89317          	auipc	t1,0xe9c89
    1e90:	5d328d37          	lui	s10,0x5d328
    1e94:	032a4a33          	div	s4,s4,s2
    1e98:	03468cb3          	mul	s9,a3,s4
    1e9c:	024964bb          	remw	s1,s2,tp
    1ea0:	5d328d37          	lui	s10,0x5d328
    1ea4:	007d033b          	addw	t1,s10,t2
    1ea8:	fff00d9b          	addiw	s11,zero,-1
    1eac:	1dfe                	slli	s11,s11,0x3f
    1eae:	fff00d1b          	addiw	s10,zero,-1
    1eb2:	1d7e                	slli	s10,s10,0x3f
    1eb4:	4c81                	li	s9,0
    1eb6:	f8af23b7          	lui	t2,0xf8af2
    1eba:	f793839b          	addiw	t2,t2,-135
    1ebe:	03b2                	slli	t2,t2,0xc
    1ec0:	87138393          	addi	t2,t2,-1935 # fffffffff8af1871 <_end+0xfffffffff8ad1b71>
    1ec4:	03b2                	slli	t2,t2,0xc
    1ec6:	db738393          	addi	t2,t2,-585
    1eca:	03b2                	slli	t2,t2,0xc
    1ecc:	79e38393          	addi	t2,t2,1950
    1ed0:	fff0049b          	addiw	s1,zero,-1
    1ed4:	14fe                	slli	s1,s1,0x3f
    1ed6:	00623437          	lui	s0,0x623
    1eda:	2954041b          	addiw	s0,s0,661
    1ede:	043a                	slli	s0,s0,0xe
    1ee0:	4b540413          	addi	s0,s0,1205 # 6234b5 <_end+0x6037b5>
    1ee4:	0436                	slli	s0,s0,0xd
    1ee6:	0a740413          	addi	s0,s0,167
    1eea:	0432                	slli	s0,s0,0xc
    1eec:	17240413          	addi	s0,s0,370
    1ef0:	00256537          	lui	a0,0x256
    1ef4:	4a55051b          	addiw	a0,a0,1189
    1ef8:	0542                	slli	a0,a0,0x10
    1efa:	a7750513          	addi	a0,a0,-1417 # 255a77 <_end+0x235d77>
    1efe:	0532                	slli	a0,a0,0xc
    1f00:	d2750513          	addi	a0,a0,-729
    1f04:	0536                	slli	a0,a0,0xd
    1f06:	61250513          	addi	a0,a0,1554
    1f0a:	5efd                	li	t4,-1
    1f0c:	577d                	li	a4,-1
    1f0e:	fff0021b          	addiw	tp,zero,-1
    1f12:	127e                	slli	tp,tp,0x3f
    1f14:	008d0533          	add	a0,s10,s0
    1f18:	028de733          	rem	a4,s11,s0
    1f1c:	e9c89717          	auipc	a4,0xe9c89
    1f20:	0244743b          	remuw	s0,s0,tp
    1f24:	0244743b          	remuw	s0,s0,tp
    1f28:	02923d33          	mulhu	s10,tp,s1
    1f2c:	02ad853b          	mulw	a0,s11,a0
    1f30:	008d0533          	add	a0,s10,s0
    1f34:	0294a233          	mulhsu	tp,s1,s1
    1f38:	0001                	nop
    1f3a:	02456ebb          	remw	t4,a0,tp
    1f3e:	41a20533          	sub	a0,tp,s10
    1f42:	0001                	nop
    1f44:	e9c89717          	auipc	a4,0xe9c89
    1f48:	02a554bb          	divuw	s1,a0,a0
    1f4c:	5d328d37          	lui	s10,0x5d328
    1f50:	0244743b          	remuw	s0,s0,tp
    1f54:	039d1db3          	mulh	s11,s10,s9
    1f58:	0001                	nop
    1f5a:	028de733          	rem	a4,s11,s0
    1f5e:	02ad853b          	mulw	a0,s11,a0
    1f62:	0294a233          	mulhsu	tp,s1,s1
    1f66:	008d0533          	add	a0,s10,s0
    1f6a:	02974ebb          	divw	t4,a4,s1
    1f6e:	41a20533          	sub	a0,tp,s10
    1f72:	4044073b          	subw	a4,s0,tp
    1f76:	02923d33          	mulhu	s10,tp,s1
    1f7a:	4d01                	li	s10,0
    1f7c:	56fd                	li	a3,-1
    1f7e:	fff0021b          	addiw	tp,zero,-1
    1f82:	127e                	slli	tp,tp,0x3f
    1f84:	fff00f9b          	addiw	t6,zero,-1
    1f88:	1ffe                	slli	t6,t6,0x3f
    1f8a:	57fd                	li	a5,-1
    1f8c:	fff0019b          	addiw	gp,zero,-1
    1f90:	11fe                	slli	gp,gp,0x3f
    1f92:	fff0049b          	addiw	s1,zero,-1
    1f96:	14fe                	slli	s1,s1,0x3f
    1f98:	577d                	li	a4,-1
    1f9a:	4301                	li	t1,0
    1f9c:	59fd                	li	s3,-1
    1f9e:	03fd76b3          	remu	a3,s10,t6
    1fa2:	02f9a333          	mulhsu	t1,s3,a5
    1fa6:	02f9a333          	mulhsu	t1,s3,a5
    1faa:	024d4d33          	div	s10,s10,tp
    1fae:	024d4d33          	div	s10,s10,tp
    1fb2:	0033073b          	addw	a4,t1,gp
    1fb6:	03a1b6b3          	mulhu	a3,gp,s10
    1fba:	023f8d3b          	mulw	s10,t6,gp
    1fbe:	02d1ed33          	rem	s10,gp,a3
    1fc2:	023f8d3b          	mulw	s10,t6,gp
    1fc6:	e0a48f9b          	addiw	t6,s1,-502
    1fca:	024d4d33          	div	s10,s10,tp
    1fce:	03f1dfb3          	divu	t6,gp,t6
    1fd2:	e0a48f9b          	addiw	t6,s1,-502
    1fd6:	024987b3          	mul	a5,s3,tp
    1fda:	02d1ed33          	rem	s10,gp,a3
    1fde:	13ad0313          	addi	t1,s10,314 # 5d32813a <_end+0x5d30843a>
    1fe2:	0033073b          	addw	a4,t1,gp
    1fe6:	5d328d37          	lui	s10,0x5d328
    1fea:	013307b3          	add	a5,t1,s3
    1fee:	03a1b6b3          	mulhu	a3,gp,s10
    1ff2:	0001                	nop
    1ff4:	03f251bb          	divuw	gp,tp,t6
    1ff8:	5b7d                	li	s6,-1
    1ffa:	ffd89237          	lui	tp,0xffd89
    1ffe:	32f2021b          	addiw	tp,tp,815
    2002:	023e                	slli	tp,tp,0xf
    2004:	020d                	addi	tp,tp,3
    2006:	0236                	slli	tp,tp,0xd
    2008:	1f320213          	addi	tp,tp,499 # ffffffffffd891f3 <_end+0xffffffffffd694f3>
    200c:	0236                	slli	tp,tp,0xd
    200e:	ef520213          	addi	tp,tp,-267 # fffffffffffffef5 <_end+0xfffffffffffe01f5>
    2012:	547d                	li	s0,-1
    2014:	4381                	li	t2,0
    2016:	fff0029b          	addiw	t0,zero,-1
    201a:	12fe                	slli	t0,t0,0x3f
    201c:	4681                	li	a3,0
    201e:	ff7094b7          	lui	s1,0xff709
    2022:	ce54849b          	addiw	s1,s1,-795
    2026:	04b2                	slli	s1,s1,0xc
    2028:	90d48493          	addi	s1,s1,-1779 # ffffffffff70890d <_end+0xffffffffff6e8c0d>
    202c:	04b6                	slli	s1,s1,0xd
    202e:	b0f48493          	addi	s1,s1,-1265
    2032:	04b6                	slli	s1,s1,0xd
    2034:	4b548493          	addi	s1,s1,1205
    2038:	577d                	li	a4,-1
    203a:	fff0079b          	addiw	a5,zero,-1
    203e:	17fe                	slli	a5,a5,0x3f
    2040:	fff0089b          	addiw	a7,zero,-1
    2044:	18fe                	slli	a7,a7,0x3f
    2046:	02d778bb          	remuw	a7,a4,a3
    204a:	0001                	nop
    204c:	0001                	nop
    204e:	02e7e43b          	remw	s0,a5,a4
    2052:	02f7a7b3          	mulhsu	a5,a5,a5
    2056:	0318c8b3          	div	a7,a7,a7
    205a:	d9d4889b          	addiw	a7,s1,-611
    205e:	02f8c4bb          	divw	s1,a7,a5
    2062:	0272c4b3          	div	s1,t0,t2
    2066:	031768b3          	rem	a7,a4,a7
    206a:	00e708bb          	addw	a7,a4,a4
    206e:	0001                	nop
    2070:	03188733          	mul	a4,a7,a7
    2074:	df588893          	addi	a7,a7,-523
    2078:	00e408bb          	addw	a7,s0,a4
    207c:	0312d4b3          	divu	s1,t0,a7
    2080:	02f2c3b3          	div	t2,t0,a5
    2084:	13a40493          	addi	s1,s0,314
    2088:	e0a6841b          	addiw	s0,a3,-502
    208c:	0318d7bb          	divuw	a5,a7,a7
    2090:	0318f8b3          	remu	a7,a7,a7
    2094:	02e764bb          	remw	s1,a4,a4
    2098:	eba1b8b7          	lui	a7,0xeba1b
    209c:	02e6e8b3          	rem	a7,a3,a4
    20a0:	0362a8b3          	mulhsu	a7,t0,s6
    20a4:	031887bb          	mulw	a5,a7,a7
    20a8:	e0a6829b          	addiw	t0,a3,-502
    20ac:	411882b3          	sub	t0,a7,a7
    20b0:	0254473b          	divw	a4,s0,t0
    20b4:	02f7b8b3          	mulhu	a7,a5,a5
    20b8:	5a7d                	li	s4,-1
    20ba:	5f7d                	li	t5,-1
    20bc:	5efd                	li	t4,-1
    20be:	4501                	li	a0,0
    20c0:	58fd                	li	a7,-1
    20c2:	4381                	li	t2,0
    20c4:	52fd                	li	t0,-1
    20c6:	fff0031b          	addiw	t1,zero,-1
    20ca:	137e                	slli	t1,t1,0x3f
    20cc:	4781                	li	a5,0
    20ce:	50fd                	li	ra,-1
    20d0:	025353bb          	divuw	t2,t1,t0
    20d4:	03d0a3b3          	mulhsu	t2,ra,t4
    20d8:	03e28333          	mul	t1,t0,t5
    20dc:	031a70bb          	remuw	ra,s4,a7
    20e0:	02a3ea33          	rem	s4,t2,a0
    20e4:	03eec7bb          	divw	a5,t4,t5
    20e8:	03eeba33          	mulhu	s4,t4,t5
    20ec:	00f5033b          	addw	t1,a0,a5
    20f0:	02a3ea33          	rem	s4,t2,a0
    20f4:	13aa0513          	addi	a0,s4,314
    20f8:	03eec7bb          	divw	a5,t4,t5
    20fc:	03d0a3b3          	mulhsu	t2,ra,t4
    2100:	00630a33          	add	s4,t1,t1
    2104:	02a372b3          	remu	t0,t1,a0
    2108:	03eec7bb          	divw	a5,t4,t5
    210c:	03eeba33          	mulhu	s4,t4,t5
    2110:	fff0019b          	addiw	gp,zero,-1
    2114:	11fe                	slli	gp,gp,0x3f
    2116:	4d01                	li	s10,0
    2118:	4b81                	li	s7,0
    211a:	4381                	li	t2,0
    211c:	5a7d                	li	s4,-1
    211e:	4d81                	li	s11,0
    2120:	4281                	li	t0,0
    2122:	5afd                	li	s5,-1
    2124:	537d                	li	t1,-1
    2126:	4b01                	li	s6,0
    2128:	037b11b3          	mulh	gp,s6,s7
    212c:	025bcdbb          	divw	s11,s7,t0
    2130:	0001                	nop
    2132:	03b182bb          	mulw	t0,gp,s11
    2136:	40330a33          	sub	s4,t1,gp
    213a:	034d6dbb          	remw	s11,s10,s4
    213e:	41ba0bbb          	subw	s7,s4,s11
    2142:	e0ad8d9b          	addiw	s11,s11,-502
    2146:	0001                	nop
    2148:	e0ad8d9b          	addiw	s11,s11,-502
    214c:	e0ad8d9b          	addiw	s11,s11,-502
    2150:	01bb0a33          	add	s4,s6,s11
    2154:	037b11b3          	mulh	gp,s6,s7
    2158:	037b11b3          	mulh	gp,s6,s7
    215c:	e0ad8d9b          	addiw	s11,s11,-502
    2160:	03ba7a3b          	remuw	s4,s4,s11
    2164:	03aa82b3          	mul	t0,s5,s10
    2168:	03b182bb          	mulw	t0,gp,s11
    216c:	40330a33          	sub	s4,t1,gp
    2170:	025bcdbb          	divw	s11,s7,t0
    2174:	0001                	nop
    2176:	025bcdbb          	divw	s11,s7,t0
    217a:	0001                	nop
    217c:	13aa0d13          	addi	s10,s4,314
    2180:	03ba7a3b          	remuw	s4,s4,s11
    2184:	e0ad8d9b          	addiw	s11,s11,-502
    2188:	40330a33          	sub	s4,t1,gp
    218c:	fe653a37          	lui	s4,0xfe653
    2190:	99da0a1b          	addiw	s4,s4,-1635
    2194:	0a32                	slli	s4,s4,0xc
    2196:	39da0a13          	addi	s4,s4,925 # fffffffffe65339d <_end+0xfffffffffe63369d>
    219a:	0a32                	slli	s4,s4,0xc
    219c:	125a0a13          	addi	s4,s4,293
    21a0:	0a32                	slli	s4,s4,0xc
    21a2:	b93a0a13          	addi	s4,s4,-1133
    21a6:	fd7126b7          	lui	a3,0xfd712
    21aa:	48f6869b          	addiw	a3,a3,1167
    21ae:	06b2                	slli	a3,a3,0xc
    21b0:	1c568693          	addi	a3,a3,453 # fffffffffd7121c5 <_end+0xfffffffffd6f24c5>
    21b4:	06b6                	slli	a3,a3,0xd
    21b6:	6a168693          	addi	a3,a3,1697
    21ba:	06b2                	slli	a3,a3,0xc
    21bc:	f9f68693          	addi	a3,a3,-97
    21c0:	5efd                	li	t4,-1
    21c2:	53fd                	li	t2,-1
    21c4:	fff0089b          	addiw	a7,zero,-1
    21c8:	18fe                	slli	a7,a7,0x3f
    21ca:	4c81                	li	s9,0
    21cc:	4281                	li	t0,0
    21ce:	fff00a9b          	addiw	s5,zero,-1
    21d2:	1afe                	slli	s5,s5,0x3f
    21d4:	01d537b7          	lui	a5,0x1d53
    21d8:	c3b7879b          	addiw	a5,a5,-965
    21dc:	07b2                	slli	a5,a5,0xc
    21de:	a9778793          	addi	a5,a5,-1385 # 1d52a97 <_end+0x1d32d97>
    21e2:	07b2                	slli	a5,a5,0xc
    21e4:	17ed                	addi	a5,a5,-5
    21e6:	07b2                	slli	a5,a5,0xc
    21e8:	fd378793          	addi	a5,a5,-45
    21ec:	527d                	li	tp,-1
    21ee:	02578abb          	mulw	s5,a5,t0
    21f2:	03da8eb3          	mul	t4,s5,t4
    21f6:	015a0abb          	addw	s5,s4,s5
    21fa:	e0ac8e9b          	addiw	t4,s9,-502
    21fe:	03da43b3          	div	t2,s4,t4
    2202:	02578abb          	mulw	s5,a5,t0
    2206:	005206b3          	add	a3,tp,t0
    220a:	03da1ab3          	mulh	s5,s4,t4
    220e:	015a0abb          	addw	s5,s4,s5
    2212:	03da8eb3          	mul	t4,s5,t4
    2216:	e0ac8e9b          	addiw	t4,s9,-502
    221a:	027257bb          	divuw	a5,tp,t2
    221e:	407202bb          	subw	t0,tp,t2
    2222:	035ec6bb          	divw	a3,t4,s5
    2226:	407202bb          	subw	t0,tp,t2
    222a:	035ad6b3          	divu	a3,s5,s5
    222e:	03da1ab3          	mulh	s5,s4,t4
    2232:	015a0abb          	addw	s5,s4,s5
    2236:	035ec6bb          	divw	a3,t4,s5
    223a:	e9c89a97          	auipc	s5,0xe9c89
    223e:	407202bb          	subw	t0,tp,t2
    2242:	02578abb          	mulw	s5,a5,t0
    2246:	015a0abb          	addw	s5,s4,s5
    224a:	4d81                	li	s11,0
    224c:	f8bb1937          	lui	s2,0xf8bb1
    2250:	3579091b          	addiw	s2,s2,855
    2254:	0932                	slli	s2,s2,0xc
    2256:	39d90913          	addi	s2,s2,925 # fffffffff8bb139d <_end+0xfffffffff8b9169d>
    225a:	0932                	slli	s2,s2,0xc
    225c:	df190913          	addi	s2,s2,-527
    2260:	0932                	slli	s2,s2,0xc
    2262:	30a90913          	addi	s2,s2,778
    2266:	5cfd                	li	s9,-1
    2268:	fff0039b          	addiw	t2,zero,-1
    226c:	13fe                	slli	t2,t2,0x3f
    226e:	011b68b7          	lui	a7,0x11b6
    2272:	4c18889b          	addiw	a7,a7,1217
    2276:	08b2                	slli	a7,a7,0xc
    2278:	f1188893          	addi	a7,a7,-239 # 11b5f11 <_end+0x1196211>
    227c:	08b2                	slli	a7,a7,0xc
    227e:	b1588893          	addi	a7,a7,-1259
    2282:	08ba                	slli	a7,a7,0xe
    2284:	d9288893          	addi	a7,a7,-622
    2288:	ff0ef4b7          	lui	s1,0xff0ef
    228c:	bcf4849b          	addiw	s1,s1,-1073
    2290:	04b2                	slli	s1,s1,0xc
    2292:	ccf48493          	addi	s1,s1,-817 # ffffffffff0eeccf <_end+0xffffffffff0cefcf>
    2296:	04b2                	slli	s1,s1,0xc
    2298:	30548493          	addi	s1,s1,773
    229c:	04ba                	slli	s1,s1,0xe
    229e:	4db48493          	addi	s1,s1,1243
    22a2:	01e332b7          	lui	t0,0x1e33
    22a6:	49d2829b          	addiw	t0,t0,1181
    22aa:	02b2                	slli	t0,t0,0xc
    22ac:	a4128293          	addi	t0,t0,-1471 # 1e32a41 <_end+0x1e12d41>
    22b0:	02b2                	slli	t0,t0,0xc
    22b2:	e8328293          	addi	t0,t0,-381
    22b6:	02b6                	slli	t0,t0,0xd
    22b8:	e2728293          	addi	t0,t0,-473
    22bc:	0041ab37          	lui	s6,0x41a
    22c0:	f3db0b1b          	addiw	s6,s6,-195
    22c4:	0b32                	slli	s6,s6,0xc
    22c6:	d49b0b13          	addi	s6,s6,-695 # 419d49 <_end+0x3fa049>
    22ca:	0b32                	slli	s6,s6,0xc
    22cc:	581b0b13          	addi	s6,s6,1409
    22d0:	0b3e                	slli	s6,s6,0xf
    22d2:	704b0b13          	addi	s6,s6,1796
    22d6:	fff00f9b          	addiw	t6,zero,-1
    22da:	1ffe                	slli	t6,t6,0x3f
    22dc:	fff0071b          	addiw	a4,zero,-1
    22e0:	177e                	slli	a4,a4,0x3f
    22e2:	5d328b37          	lui	s6,0x5d328
    22e6:	029714b3          	mulh	s1,a4,s1
    22ea:	03694933          	div	s2,s2,s6
    22ee:	03b974bb          	remuw	s1,s2,s11
    22f2:	02528cb3          	mul	s9,t0,t0
    22f6:	031de733          	rem	a4,s11,a7
    22fa:	029714b3          	mulh	s1,a4,s1
    22fe:	029714b3          	mulh	s1,a4,s1
    2302:	0312f2b3          	remu	t0,t0,a7
    2306:	02efcfbb          	divw	t6,t6,a4
    230a:	02e4a3b3          	mulhsu	t2,s1,a4
    230e:	41b90cbb          	subw	s9,s2,s11
    2312:	0001                	nop
    2314:	0001                	nop
    2316:	0001                	nop
    2318:	03694933          	div	s2,s2,s6
    231c:	01fb08bb          	addw	a7,s6,t6
    2320:	02c78bb3          	mul	s7,a5,a2
    2324:	e9c89317          	auipc	t1,0xe9c89
    2328:	e9c89317          	auipc	t1,0xe9c89
    232c:	1f7d                	addi	t5,t5,-1
    232e:	02817933          	remu	s2,sp,s0
    2332:	54f6a993          	slti	s3,a3,1359
    2336:	dfa53c93          	sltiu	s9,a0,-518
    233a:	13ad0213          	addi	tp,s10,314 # 5d32813a <_end+0x5d30843a>
    233e:	5d328737          	lui	a4,0x5d328
    2342:	00e1d23b          	srlw	tp,gp,a4
    2346:	8439                	srai	s0,s0,0xe
    2348:	8d01                	sub	a0,a0,s0
    234a:	e0a1059b          	addiw	a1,sp,-502
    234e:	008643b3          	xor	t2,a2,s0
    2352:	00f31f9b          	slliw	t6,t1,0xf
    2356:	41d98233          	sub	tp,s3,t4
    235a:	9ead                	addw	a3,a3,a1
    235c:	51fd                	li	gp,-1
    235e:	717d                	addi	sp,sp,-16
    2360:	40675113          	srai	sp,a4,0x6
    2364:	01a37233          	and	tp,t1,s10
    2368:	41d98233          	sub	tp,s3,t4
    236c:	016a92bb          	sllw	t0,s5,s6
    2370:	004e5ab3          	srl	s5,t3,tp
    2374:	00f31f9b          	slliw	t6,t1,0xf
    2378:	e0a1059b          	addiw	a1,sp,-502
    237c:	039f7a3b          	remuw	s4,t5,s9
    2380:	004e5ab3          	srl	s5,t3,tp
    2384:	38057713          	andi	a4,a0,896
    2388:	13ad0213          	addi	tp,s10,314
    238c:	e0a1059b          	addiw	a1,sp,-502
    2390:	8439                	srai	s0,s0,0xe
    2392:	0001                	nop
    2394:	03e0c033          	div	zero,ra,t5
    2398:	808d                	srli	s1,s1,0x3
    239a:	808d                	srli	s1,s1,0x3
    239c:	1f7d                	addi	t5,t5,-1
    239e:	5d328737          	lui	a4,0x5d328
    23a2:	01182a33          	slt	s4,a6,a7
    23a6:	02dadfb3          	divu	t6,s5,a3
    23aa:	5d328737          	lui	a4,0x5d328
    23ae:	8439                	srai	s0,s0,0xe
    23b0:	5d328737          	lui	a4,0x5d328
    23b4:	8ec9                	or	a3,a3,a0
    23b6:	808d                	srli	s1,s1,0x3
    23b8:	00f48133          	add	sp,s1,a5
    23bc:	02f24d3b          	divw	s10,tp,a5
    23c0:	02f24d3b          	divw	s10,tp,a5
    23c4:	41c7043b          	subw	s0,a4,t3
    23c8:	1f7d                	addi	t5,t5,-1
    23ca:	51fd                	li	gp,-1
    23cc:	9ead                	addw	a3,a3,a1
    23ce:	02e189bb          	mulw	s3,gp,a4
    23d2:	033fd793          	srli	a5,t6,0x33
    23d6:	02e8b633          	mulhu	a2,a7,a4
    23da:	090e                	slli	s2,s2,0x3
    23dc:	9ead                	addw	a3,a3,a1
    23de:	0001                	nop
    23e0:	01320b3b          	addw	s6,tp,s3
    23e4:	02c78bb3          	mul	s7,a5,a2
    23e8:	01a3ba33          	sltu	s4,t2,s10
    23ec:	8d01                	sub	a0,a0,s0
    23ee:	037f9333          	mulh	t1,t6,s7
    23f2:	039f7a3b          	remuw	s4,t5,s9
    23f6:	00f31f9b          	slliw	t6,t1,0xf
    23fa:	13ad0213          	addi	tp,s10,314
    23fe:	717d                	addi	sp,sp,-16
    2400:	0001                	nop
    2402:	13ad0213          	addi	tp,s10,314
    2406:	8ef1                	and	a3,a3,a2
    2408:	0001                	nop
    240a:	029d29b3          	mulhsu	s3,s10,s1
    240e:	0001                	nop
    2410:	01320b3b          	addw	s6,tp,s3
    2414:	88d2                	mv	a7,s4
    2416:	02f24d3b          	divw	s10,tp,a5
    241a:	e0a1059b          	addiw	a1,sp,-502
    241e:	016a92bb          	sllw	t0,s5,s6
    2422:	1f7d                	addi	t5,t5,-1
    2424:	9c8d                	subw	s1,s1,a1
    2426:	0313633b          	remw	t1,t1,a7
    242a:	03e0c033          	div	zero,ra,t5
    242e:	8ec9                	or	a3,a3,a0
    2430:	41c7043b          	subw	s0,a4,t3
    2434:	01a37233          	and	tp,t1,s10
    2438:	808d                	srli	s1,s1,0x3
    243a:	9ead                	addw	a3,a3,a1
    243c:	317d                	addiw	sp,sp,-1
    243e:	808d                	srli	s1,s1,0x3
    2440:	090e                	slli	s2,s2,0x3
    2442:	38057713          	andi	a4,a0,896
    2446:	02e189bb          	mulw	s3,gp,a4
    244a:	016a92bb          	sllw	t0,s5,s6
    244e:	039f7a3b          	remuw	s4,t5,s9
    2452:	961a                	add	a2,a2,t1
    2454:	0398d53b          	divuw	a0,a7,s9
    2458:	02c78bb3          	mul	s7,a5,a2
    245c:	03509613          	slli	a2,ra,0x35
    2460:	808d                	srli	s1,s1,0x3
    2462:	00f31f9b          	slliw	t6,t1,0xf
    2466:	40dad233          	sra	tp,s5,a3
    246a:	00fed41b          	srliw	s0,t4,0xf
    246e:	717d                	addi	sp,sp,-16
    2470:	090e                	slli	s2,s2,0x3
    2472:	13ad0213          	addi	tp,s10,314
    2476:	13ad0213          	addi	tp,s10,314
    247a:	00e1d23b          	srlw	tp,gp,a4
    247e:	02e189bb          	mulw	s3,gp,a4
    2482:	00e1d23b          	srlw	tp,gp,a4
    2486:	e0a1059b          	addiw	a1,sp,-502
    248a:	40dad233          	sra	tp,s5,a3
    248e:	808d                	srli	s1,s1,0x3
    2490:	4048dcbb          	sraw	s9,a7,tp
    2494:	00fed41b          	srliw	s0,t4,0xf
    2498:	00e1d23b          	srlw	tp,gp,a4
    249c:	1f7d                	addi	t5,t5,-1
    249e:	317d                	addiw	sp,sp,-1
    24a0:	54f6a993          	slti	s3,a3,1359
    24a4:	8d3d                	xor	a0,a0,a5
    24a6:	317d                	addiw	sp,sp,-1
    24a8:	40675113          	srai	sp,a4,0x6
    24ac:	8439                	srai	s0,s0,0xe
    24ae:	8ec9                	or	a3,a3,a0
    24b0:	1f7d                	addi	t5,t5,-1
    24b2:	8ec9                	or	a3,a3,a0
    24b4:	01a3ba33          	sltu	s4,t2,s10
    24b8:	090e                	slli	s2,s2,0x3
    24ba:	090e                	slli	s2,s2,0x3
    24bc:	51fd                	li	gp,-1
    24be:	9ead                	addw	a3,a3,a1
    24c0:	0313633b          	remw	t1,t1,a7
    24c4:	8d01                	sub	a0,a0,s0
    24c6:	6eed                	lui	t4,0x1b
    24c8:	54f6a993          	slti	s3,a3,1359
    24cc:	039f7a3b          	remuw	s4,t5,s9
    24d0:	40865a1b          	sraiw	s4,a2,0x8
    24d4:	01320b3b          	addw	s6,tp,s3
    24d8:	e0a1059b          	addiw	a1,sp,-502
    24dc:	41d98233          	sub	tp,s3,t4
    24e0:	033fd793          	srli	a5,t6,0x33
    24e4:	0001                	nop
    24e6:	51fd                	li	gp,-1
    24e8:	01320b3b          	addw	s6,tp,s3
    24ec:	01182a33          	slt	s4,a6,a7
    24f0:	090e                	slli	s2,s2,0x3
    24f2:	8d3d                	xor	a0,a0,a5
    24f4:	dfa53c93          	sltiu	s9,a0,-518
    24f8:	01182a33          	slt	s4,a6,a7
    24fc:	8d01                	sub	a0,a0,s0
    24fe:	02e8b633          	mulhu	a2,a7,a4
    2502:	02817933          	remu	s2,sp,s0
    2506:	02c78bb3          	mul	s7,a5,a2
    250a:	8d3d                	xor	a0,a0,a5
    250c:	0001                	nop
    250e:	0398d53b          	divuw	a0,a7,s9
    2512:	01a37233          	and	tp,t1,s10
    2516:	8d3d                	xor	a0,a0,a5
    2518:	4048dcbb          	sraw	s9,a7,tp
    251c:	01320b3b          	addw	s6,tp,s3
    2520:	00f164b3          	or	s1,sp,a5
    2524:	0a04                	addi	s1,sp,272
    2526:	1f7d                	addi	t5,t5,-1
    2528:	8439                	srai	s0,s0,0xe
    252a:	016a92bb          	sllw	t0,s5,s6
    252e:	51fd                	li	gp,-1
    2530:	039f7a3b          	remuw	s4,t5,s9
    2534:	51fd                	li	gp,-1
    2536:	090e                	slli	s2,s2,0x3
    2538:	00e1d23b          	srlw	tp,gp,a4
    253c:	02817933          	remu	s2,sp,s0
    2540:	317d                	addiw	sp,sp,-1
    2542:	13ad0213          	addi	tp,s10,314
    2546:	42686493          	ori	s1,a6,1062
    254a:	02e189bb          	mulw	s3,gp,a4
    254e:	6eed                	lui	t4,0x1b
    2550:	090e                	slli	s2,s2,0x3
    2552:	13ad0213          	addi	tp,s10,314
    2556:	01a37233          	and	tp,t1,s10
    255a:	dfa53c93          	sltiu	s9,a0,-518
    255e:	38057713          	andi	a4,a0,896
    2562:	41d98233          	sub	tp,s3,t4
    2566:	717d                	addi	sp,sp,-16
    2568:	01a3ba33          	sltu	s4,t2,s10
    256c:	88d2                	mv	a7,s4
    256e:	02dadfb3          	divu	t6,s5,a3
    2572:	01f099b3          	sll	s3,ra,t6
    2576:	4048dcbb          	sraw	s9,a7,tp
    257a:	02e8b633          	mulhu	a2,a7,a4
    257e:	9c8d                	subw	s1,s1,a1
    2580:	090e                	slli	s2,s2,0x3
    2582:	41d98233          	sub	tp,s3,t4
    2586:	0398d53b          	divuw	a0,a7,s9
    258a:	01a37233          	and	tp,t1,s10
    258e:	0001                	nop
    2590:	8ec9                	or	a3,a3,a0
    2592:	6eed                	lui	t4,0x1b
    2594:	0a04                	addi	s1,sp,272
    2596:	01a3ba33          	sltu	s4,t2,s10
    259a:	e0a1059b          	addiw	a1,sp,-502
    259e:	1f7d                	addi	t5,t5,-1
    25a0:	9c8d                	subw	s1,s1,a1
    25a2:	00fed41b          	srliw	s0,t4,0xf
    25a6:	01f099b3          	sll	s3,ra,t6
    25aa:	02c78bb3          	mul	s7,a5,a2
    25ae:	004e5ab3          	srl	s5,t3,tp
    25b2:	5d328737          	lui	a4,0x5d328
    25b6:	01182a33          	slt	s4,a6,a7
    25ba:	40675113          	srai	sp,a4,0x6
    25be:	54f6a993          	slti	s3,a3,1359
    25c2:	40865a1b          	sraiw	s4,a2,0x8
    25c6:	0001                	nop
    25c8:	e9c89317          	auipc	t1,0xe9c89
    25cc:	13ad0213          	addi	tp,s10,314
    25d0:	008643b3          	xor	t2,a2,s0
    25d4:	8439                	srai	s0,s0,0xe
    25d6:	987d                	andi	s0,s0,-1
    25d8:	8439                	srai	s0,s0,0xe
    25da:	00e1d23b          	srlw	tp,gp,a4
    25de:	41c7043b          	subw	s0,a4,t3
    25e2:	13ad0213          	addi	tp,s10,314
    25e6:	40dad233          	sra	tp,s5,a3
    25ea:	e9c89317          	auipc	t1,0xe9c89
    25ee:	00fed41b          	srliw	s0,t4,0xf
    25f2:	13ad0213          	addi	tp,s10,314
    25f6:	40dad233          	sra	tp,s5,a3
    25fa:	4048dcbb          	sraw	s9,a7,tp
    25fe:	e9c89317          	auipc	t1,0xe9c89
    2602:	41d98233          	sub	tp,s3,t4
    2606:	808d                	srli	s1,s1,0x3
    2608:	02e189bb          	mulw	s3,gp,a4
    260c:	8ef1                	and	a3,a3,a2
    260e:	02dadfb3          	divu	t6,s5,a3
    2612:	8ec9                	or	a3,a3,a0
    2614:	961a                	add	a2,a2,t1
    2616:	8ef1                	and	a3,a3,a2
    2618:	02c78bb3          	mul	s7,a5,a2
    261c:	00fed41b          	srliw	s0,t4,0xf
    2620:	40675113          	srai	sp,a4,0x6
    2624:	4048dcbb          	sraw	s9,a7,tp
    2628:	41c7043b          	subw	s0,a4,t3
    262c:	01a37233          	and	tp,t1,s10
    2630:	008643b3          	xor	t2,a2,s0
    2634:	40675113          	srai	sp,a4,0x6
    2638:	02dadfb3          	divu	t6,s5,a3
    263c:	4048dcbb          	sraw	s9,a7,tp
    2640:	00fed41b          	srliw	s0,t4,0xf
    2644:	88d2                	mv	a7,s4
    2646:	004e5ab3          	srl	s5,t3,tp
    264a:	8ec9                	or	a3,a3,a0
    264c:	5d328737          	lui	a4,0x5d328
    2650:	0001                	nop
    2652:	8d01                	sub	a0,a0,s0
    2654:	0313633b          	remw	t1,t1,a7
    2658:	02e8b633          	mulhu	a2,a7,a4
    265c:	1f7d                	addi	t5,t5,-1
    265e:	0001                	nop
    2660:	01a37233          	and	tp,t1,s10
    2664:	40865a1b          	sraiw	s4,a2,0x8
    2668:	008643b3          	xor	t2,a2,s0
    266c:	5d328737          	lui	a4,0x5d328
    2670:	004e5ab3          	srl	s5,t3,tp
    2674:	004e5ab3          	srl	s5,t3,tp
    2678:	03e0c033          	div	zero,ra,t5
    267c:	0001                	nop
    267e:	41d98233          	sub	tp,s3,t4
    2682:	41d98233          	sub	tp,s3,t4
    2686:	dfa53c93          	sltiu	s9,a0,-518
    268a:	03e0c033          	div	zero,ra,t5
    268e:	0a04                	addi	s1,sp,272
    2690:	033fd793          	srli	a5,t6,0x33
    2694:	00f164b3          	or	s1,sp,a5
    2698:	8ef1                	and	a3,a3,a2
    269a:	6eed                	lui	t4,0x1b
    269c:	40dad233          	sra	tp,s5,a3
    26a0:	029d29b3          	mulhsu	s3,s10,s1
    26a4:	02e964b3          	rem	s1,s2,a4
    26a8:	8d01                	sub	a0,a0,s0
    26aa:	0a04                	addi	s1,sp,272
    26ac:	01f099b3          	sll	s3,ra,t6
    26b0:	02e8b633          	mulhu	a2,a7,a4
    26b4:	016a92bb          	sllw	t0,s5,s6
    26b8:	03e0c033          	div	zero,ra,t5
    26bc:	40675113          	srai	sp,a4,0x6
    26c0:	88d2                	mv	a7,s4
    26c2:	88d2                	mv	a7,s4
    26c4:	317d                	addiw	sp,sp,-1
    26c6:	02e8b633          	mulhu	a2,a7,a4
    26ca:	9ead                	addw	a3,a3,a1
    26cc:	38057713          	andi	a4,a0,896
    26d0:	0001                	nop
    26d2:	41d98233          	sub	tp,s3,t4
    26d6:	1f7d                	addi	t5,t5,-1
    26d8:	38057713          	andi	a4,a0,896
    26dc:	54f6a993          	slti	s3,a3,1359
    26e0:	0a04                	addi	s1,sp,272
    26e2:	9abbcc93          	xori	s9,s7,-1621
    26e6:	039f7a3b          	remuw	s4,t5,s9
    26ea:	01f099b3          	sll	s3,ra,t6
    26ee:	0001                	nop
    26f0:	6eed                	lui	t4,0x1b
    26f2:	00fed41b          	srliw	s0,t4,0xf
    26f6:	00f48133          	add	sp,s1,a5
    26fa:	6eed                	lui	t4,0x1b
    26fc:	090e                	slli	s2,s2,0x3
    26fe:	8ef1                	and	a3,a3,a2
    2700:	033fd793          	srli	a5,t6,0x33
    2704:	02e8b633          	mulhu	a2,a7,a4
    2708:	03e0c033          	div	zero,ra,t5
    270c:	037f9333          	mulh	t1,t6,s7
    2710:	02e8b633          	mulhu	a2,a7,a4
    2714:	54f6a993          	slti	s3,a3,1359
    2718:	8ec9                	or	a3,a3,a0
    271a:	039f7a3b          	remuw	s4,t5,s9
    271e:	0001                	nop
    2720:	029d29b3          	mulhsu	s3,s10,s1
    2724:	02e189bb          	mulw	s3,gp,a4
    2728:	8439                	srai	s0,s0,0xe
    272a:	02817933          	remu	s2,sp,s0
    272e:	00f31f9b          	slliw	t6,t1,0xf
    2732:	317d                	addiw	sp,sp,-1
    2734:	0a04                	addi	s1,sp,272
    2736:	40675113          	srai	sp,a4,0x6
    273a:	00f48133          	add	sp,s1,a5
    273e:	02f24d3b          	divw	s10,tp,a5
    2742:	00f31f9b          	slliw	t6,t1,0xf
    2746:	808d                	srli	s1,s1,0x3
    2748:	40dad233          	sra	tp,s5,a3
    274c:	51fd                	li	gp,-1
    274e:	090e                	slli	s2,s2,0x3
    2750:	40dad233          	sra	tp,s5,a3
    2754:	03509613          	slli	a2,ra,0x35
    2758:	090e                	slli	s2,s2,0x3
    275a:	00f48133          	add	sp,s1,a5
    275e:	dfa53c93          	sltiu	s9,a0,-518
    2762:	808d                	srli	s1,s1,0x3
    2764:	51fd                	li	gp,-1
    2766:	037f9333          	mulh	t1,t6,s7
    276a:	9ead                	addw	a3,a3,a1
    276c:	317d                	addiw	sp,sp,-1
    276e:	02f24d3b          	divw	s10,tp,a5
    2772:	01a37233          	and	tp,t1,s10
    2776:	717d                	addi	sp,sp,-16
    2778:	01182a33          	slt	s4,a6,a7
    277c:	42686493          	ori	s1,a6,1062
    2780:	961a                	add	a2,a2,t1
    2782:	0398d53b          	divuw	a0,a7,s9
    2786:	8ec9                	or	a3,a3,a0
    2788:	00f31f9b          	slliw	t6,t1,0xf
    278c:	0001                	nop
    278e:	51fd                	li	gp,-1
    2790:	029d29b3          	mulhsu	s3,s10,s1
    2794:	0001                	nop
    2796:	9abbcc93          	xori	s9,s7,-1621
    279a:	090e                	slli	s2,s2,0x3
    279c:	03e0c033          	div	zero,ra,t5
    27a0:	033fd793          	srli	a5,t6,0x33
    27a4:	0313633b          	remw	t1,t1,a7
    27a8:	dfa53c93          	sltiu	s9,a0,-518
    27ac:	01320b3b          	addw	s6,tp,s3
    27b0:	029d29b3          	mulhsu	s3,s10,s1
    27b4:	03509613          	slli	a2,ra,0x35
    27b8:	0313633b          	remw	t1,t1,a7
    27bc:	13ad0213          	addi	tp,s10,314
    27c0:	090e                	slli	s2,s2,0x3
    27c2:	0001                	nop
    27c4:	4048dcbb          	sraw	s9,a7,tp
    27c8:	40dad233          	sra	tp,s5,a3
    27cc:	8439                	srai	s0,s0,0xe
    27ce:	0398d53b          	divuw	a0,a7,s9
    27d2:	02e964b3          	rem	s1,s2,a4
    27d6:	01a3ba33          	sltu	s4,t2,s10
    27da:	9ead                	addw	a3,a3,a1
    27dc:	008643b3          	xor	t2,a2,s0
    27e0:	02817933          	remu	s2,sp,s0
    27e4:	9abbcc93          	xori	s9,s7,-1621
    27e8:	808d                	srli	s1,s1,0x3
    27ea:	e9c89317          	auipc	t1,0xe9c89
    27ee:	8d01                	sub	a0,a0,s0
    27f0:	41d98233          	sub	tp,s3,t4
    27f4:	9c8d                	subw	s1,s1,a1
    27f6:	38057713          	andi	a4,a0,896
    27fa:	02dadfb3          	divu	t6,s5,a3
    27fe:	42686493          	ori	s1,a6,1062
    2802:	88d2                	mv	a7,s4
    2804:	01f099b3          	sll	s3,ra,t6
    2808:	02dadfb3          	divu	t6,s5,a3
    280c:	e9c89317          	auipc	t1,0xe9c89
    2810:	02c78bb3          	mul	s7,a5,a2
    2814:	88d2                	mv	a7,s4
    2816:	037f9333          	mulh	t1,t6,s7
    281a:	51fd                	li	gp,-1
    281c:	00e1d23b          	srlw	tp,gp,a4
    2820:	0313633b          	remw	t1,t1,a7
    2824:	02e189bb          	mulw	s3,gp,a4
    2828:	8439                	srai	s0,s0,0xe
    282a:	9abbcc93          	xori	s9,s7,-1621
    282e:	4048dcbb          	sraw	s9,a7,tp
    2832:	004e5ab3          	srl	s5,t3,tp
    2836:	01182a33          	slt	s4,a6,a7
    283a:	40865a1b          	sraiw	s4,a2,0x8
    283e:	033fd793          	srli	a5,t6,0x33
    2842:	00e1d23b          	srlw	tp,gp,a4
    2846:	00f164b3          	or	s1,sp,a5
    284a:	03e0c033          	div	zero,ra,t5
    284e:	987d                	andi	s0,s0,-1
    2850:	54f6a993          	slti	s3,a3,1359
    2854:	01a3ba33          	sltu	s4,t2,s10
    2858:	4048dcbb          	sraw	s9,a7,tp
    285c:	00f164b3          	or	s1,sp,a5
    2860:	02dadfb3          	divu	t6,s5,a3
    2864:	4048dcbb          	sraw	s9,a7,tp
    2868:	039f7a3b          	remuw	s4,t5,s9
    286c:	00e1d23b          	srlw	tp,gp,a4
    2870:	8ef1                	and	a3,a3,a2
    2872:	01f099b3          	sll	s3,ra,t6
    2876:	54f6a993          	slti	s3,a3,1359
    287a:	01a3ba33          	sltu	s4,t2,s10
    287e:	0001                	nop
    2880:	0398d53b          	divuw	a0,a7,s9
    2884:	41c7043b          	subw	s0,a4,t3
    2888:	5d328737          	lui	a4,0x5d328
    288c:	0313633b          	remw	t1,t1,a7
    2890:	01a37233          	and	tp,t1,s10
    2894:	40865a1b          	sraiw	s4,a2,0x8
    2898:	037f9333          	mulh	t1,t6,s7
    289c:	01f099b3          	sll	s3,ra,t6
    28a0:	02dadfb3          	divu	t6,s5,a3
    28a4:	01f099b3          	sll	s3,ra,t6
    28a8:	00fed41b          	srliw	s0,t4,0xf
    28ac:	9c8d                	subw	s1,s1,a1
    28ae:	02f24d3b          	divw	s10,tp,a5
    28b2:	0313633b          	remw	t1,t1,a7
    28b6:	01320b3b          	addw	s6,tp,s3
    28ba:	004e5ab3          	srl	s5,t3,tp
    28be:	987d                	andi	s0,s0,-1
    28c0:	0313633b          	remw	t1,t1,a7
    28c4:	51fd                	li	gp,-1
    28c6:	13ad0213          	addi	tp,s10,314
    28ca:	8439                	srai	s0,s0,0xe
    28cc:	8ec9                	or	a3,a3,a0
    28ce:	40dad233          	sra	tp,s5,a3
    28d2:	8d3d                	xor	a0,a0,a5
    28d4:	40865a1b          	sraiw	s4,a2,0x8
    28d8:	e0a1059b          	addiw	a1,sp,-502
    28dc:	029d29b3          	mulhsu	s3,s10,s1
    28e0:	00f48133          	add	sp,s1,a5
    28e4:	317d                	addiw	sp,sp,-1
    28e6:	8439                	srai	s0,s0,0xe
    28e8:	e9c89317          	auipc	t1,0xe9c89
    28ec:	e9c89317          	auipc	t1,0xe9c89
    28f0:	317d                	addiw	sp,sp,-1
    28f2:	008643b3          	xor	t2,a2,s0
    28f6:	38057713          	andi	a4,a0,896
    28fa:	e0a1059b          	addiw	a1,sp,-502
    28fe:	dfa53c93          	sltiu	s9,a0,-518
    2902:	03e0c033          	div	zero,ra,t5
    2906:	016a92bb          	sllw	t0,s5,s6
    290a:	02e964b3          	rem	s1,s2,a4
    290e:	e0a1059b          	addiw	a1,sp,-502
    2912:	00fed41b          	srliw	s0,t4,0xf
    2916:	090e                	slli	s2,s2,0x3
    2918:	02c78bb3          	mul	s7,a5,a2
    291c:	090e                	slli	s2,s2,0x3
    291e:	02e189bb          	mulw	s3,gp,a4
    2922:	961a                	add	a2,a2,t1
    2924:	13ad0213          	addi	tp,s10,314
    2928:	9c8d                	subw	s1,s1,a1
    292a:	808d                	srli	s1,s1,0x3
    292c:	88d2                	mv	a7,s4
    292e:	01320b3b          	addw	s6,tp,s3
    2932:	40dad233          	sra	tp,s5,a3
    2936:	0398d53b          	divuw	a0,a7,s9
    293a:	51fd                	li	gp,-1
    293c:	808d                	srli	s1,s1,0x3
    293e:	38057713          	andi	a4,a0,896
    2942:	8ef1                	and	a3,a3,a2
    2944:	40675113          	srai	sp,a4,0x6
    2948:	717d                	addi	sp,sp,-16
    294a:	02817933          	remu	s2,sp,s0
    294e:	717d                	addi	sp,sp,-16
    2950:	02817933          	remu	s2,sp,s0
    2954:	00e1d23b          	srlw	tp,gp,a4
    2958:	1f7d                	addi	t5,t5,-1
    295a:	e9c89317          	auipc	t1,0xe9c89
    295e:	033fd793          	srli	a5,t6,0x33
    2962:	0a04                	addi	s1,sp,272
    2964:	039f7a3b          	remuw	s4,t5,s9
    2968:	40dad233          	sra	tp,s5,a3
    296c:	01320b3b          	addw	s6,tp,s3
    2970:	0001                	nop
    2972:	808d                	srli	s1,s1,0x3
    2974:	40865a1b          	sraiw	s4,a2,0x8
    2978:	40865a1b          	sraiw	s4,a2,0x8
    297c:	dfa53c93          	sltiu	s9,a0,-518
    2980:	008643b3          	xor	t2,a2,s0
    2984:	00fed41b          	srliw	s0,t4,0xf
    2988:	40dad233          	sra	tp,s5,a3
    298c:	8ef1                	and	a3,a3,a2
    298e:	40675113          	srai	sp,a4,0x6
    2992:	51fd                	li	gp,-1
    2994:	961a                	add	a2,a2,t1
    2996:	8d3d                	xor	a0,a0,a5
    2998:	090e                	slli	s2,s2,0x3
    299a:	004e5ab3          	srl	s5,t3,tp
    299e:	40675113          	srai	sp,a4,0x6
    29a2:	02f24d3b          	divw	s10,tp,a5
    29a6:	01a37233          	and	tp,t1,s10
    29aa:	008643b3          	xor	t2,a2,s0
    29ae:	008643b3          	xor	t2,a2,s0
    29b2:	40dad233          	sra	tp,s5,a3
    29b6:	008643b3          	xor	t2,a2,s0
    29ba:	0001                	nop
    29bc:	808d                	srli	s1,s1,0x3
    29be:	41c7043b          	subw	s0,a4,t3
    29c2:	9c8d                	subw	s1,s1,a1
    29c4:	54f6a993          	slti	s3,a3,1359
    29c8:	0313633b          	remw	t1,t1,a7
    29cc:	9ead                	addw	a3,a3,a1
    29ce:	016a92bb          	sllw	t0,s5,s6
    29d2:	0001                	nop
    29d4:	00e1d23b          	srlw	tp,gp,a4
    29d8:	03509613          	slli	a2,ra,0x35
    29dc:	033fd793          	srli	a5,t6,0x33
    29e0:	808d                	srli	s1,s1,0x3
    29e2:	02e189bb          	mulw	s3,gp,a4
    29e6:	9ead                	addw	a3,a3,a1
    29e8:	8ef1                	and	a3,a3,a2
    29ea:	1f7d                	addi	t5,t5,-1
    29ec:	037f9333          	mulh	t1,t6,s7
    29f0:	00fed41b          	srliw	s0,t4,0xf
    29f4:	03e0c033          	div	zero,ra,t5
    29f8:	987d                	andi	s0,s0,-1
    29fa:	00f48133          	add	sp,s1,a5
    29fe:	02817933          	remu	s2,sp,s0
    2a02:	e9c89317          	auipc	t1,0xe9c89
    2a06:	9c8d                	subw	s1,s1,a1
    2a08:	01a3ba33          	sltu	s4,t2,s10
    2a0c:	008643b3          	xor	t2,a2,s0
    2a10:	987d                	andi	s0,s0,-1
    2a12:	029d29b3          	mulhsu	s3,s10,s1
    2a16:	037f9333          	mulh	t1,t6,s7
    2a1a:	9ead                	addw	a3,a3,a1
    2a1c:	e0a1059b          	addiw	a1,sp,-502
    2a20:	02e8b633          	mulhu	a2,a7,a4
    2a24:	40865a1b          	sraiw	s4,a2,0x8
    2a28:	1f7d                	addi	t5,t5,-1
    2a2a:	9c8d                	subw	s1,s1,a1
    2a2c:	01f099b3          	sll	s3,ra,t6
    2a30:	01a37233          	and	tp,t1,s10
    2a34:	808d                	srli	s1,s1,0x3
    2a36:	0398d53b          	divuw	a0,a7,s9
    2a3a:	090e                	slli	s2,s2,0x3
    2a3c:	51fd                	li	gp,-1
    2a3e:	02e189bb          	mulw	s3,gp,a4
    2a42:	717d                	addi	sp,sp,-16
    2a44:	02e189bb          	mulw	s3,gp,a4
    2a48:	008643b3          	xor	t2,a2,s0
    2a4c:	008643b3          	xor	t2,a2,s0
    2a50:	40865a1b          	sraiw	s4,a2,0x8
    2a54:	01f099b3          	sll	s3,ra,t6
    2a58:	00fed41b          	srliw	s0,t4,0xf
    2a5c:	03509613          	slli	a2,ra,0x35
    2a60:	02e189bb          	mulw	s3,gp,a4
    2a64:	00fed41b          	srliw	s0,t4,0xf
    2a68:	004e5ab3          	srl	s5,t3,tp
    2a6c:	41d98233          	sub	tp,s3,t4
    2a70:	38057713          	andi	a4,a0,896
    2a74:	8d01                	sub	a0,a0,s0
    2a76:	00f31f9b          	slliw	t6,t1,0xf
    2a7a:	03e0c033          	div	zero,ra,t5
    2a7e:	0398d53b          	divuw	a0,a7,s9
    2a82:	717d                	addi	sp,sp,-16
    2a84:	090e                	slli	s2,s2,0x3
    2a86:	9abbcc93          	xori	s9,s7,-1621
    2a8a:	00e1d23b          	srlw	tp,gp,a4
    2a8e:	01182a33          	slt	s4,a6,a7
    2a92:	987d                	andi	s0,s0,-1
    2a94:	029d29b3          	mulhsu	s3,s10,s1
    2a98:	e9c89317          	auipc	t1,0xe9c89
    2a9c:	961a                	add	a2,a2,t1
    2a9e:	9c8d                	subw	s1,s1,a1
    2aa0:	033fd793          	srli	a5,t6,0x33
    2aa4:	00e1d23b          	srlw	tp,gp,a4
    2aa8:	54f6a993          	slti	s3,a3,1359
    2aac:	e0a1059b          	addiw	a1,sp,-502
    2ab0:	4048dcbb          	sraw	s9,a7,tp
    2ab4:	6eed                	lui	t4,0x1b
    2ab6:	40675113          	srai	sp,a4,0x6
    2aba:	01a37233          	and	tp,t1,s10
    2abe:	02c78bb3          	mul	s7,a5,a2
    2ac2:	40dad233          	sra	tp,s5,a3
    2ac6:	41c7043b          	subw	s0,a4,t3
    2aca:	03509613          	slli	a2,ra,0x35
    2ace:	961a                	add	a2,a2,t1
    2ad0:	008643b3          	xor	t2,a2,s0
    2ad4:	02817933          	remu	s2,sp,s0
    2ad8:	961a                	add	a2,a2,t1
    2ada:	51fd                	li	gp,-1
    2adc:	0313633b          	remw	t1,t1,a7
    2ae0:	54f6a993          	slti	s3,a3,1359
    2ae4:	01a3ba33          	sltu	s4,t2,s10
    2ae8:	41d98233          	sub	tp,s3,t4
    2aec:	0001                	nop
    2aee:	9abbcc93          	xori	s9,s7,-1621
    2af2:	40dad233          	sra	tp,s5,a3
    2af6:	00f48133          	add	sp,s1,a5
    2afa:	037f9333          	mulh	t1,t6,s7
    2afe:	8439                	srai	s0,s0,0xe
    2b00:	01f099b3          	sll	s3,ra,t6
    2b04:	01a3ba33          	sltu	s4,t2,s10
    2b08:	8d3d                	xor	a0,a0,a5
    2b0a:	01a3ba33          	sltu	s4,t2,s10
    2b0e:	9ead                	addw	a3,a3,a1
    2b10:	037f9333          	mulh	t1,t6,s7
    2b14:	42686493          	ori	s1,a6,1062
    2b18:	41c7043b          	subw	s0,a4,t3
    2b1c:	01320b3b          	addw	s6,tp,s3
    2b20:	41d98233          	sub	tp,s3,t4
    2b24:	0001                	nop
    2b26:	01f099b3          	sll	s3,ra,t6
    2b2a:	808d                	srli	s1,s1,0x3
    2b2c:	02e8b633          	mulhu	a2,a7,a4
    2b30:	03e0c033          	div	zero,ra,t5
    2b34:	00f48133          	add	sp,s1,a5
    2b38:	717d                	addi	sp,sp,-16
    2b3a:	41d98233          	sub	tp,s3,t4
    2b3e:	016a92bb          	sllw	t0,s5,s6
    2b42:	01a3ba33          	sltu	s4,t2,s10
    2b46:	9ead                	addw	a3,a3,a1
    2b48:	0398d53b          	divuw	a0,a7,s9
    2b4c:	01a3ba33          	sltu	s4,t2,s10
    2b50:	0001                	nop
    2b52:	00f48133          	add	sp,s1,a5
    2b56:	88d2                	mv	a7,s4
    2b58:	03509613          	slli	a2,ra,0x35
    2b5c:	54f6a993          	slti	s3,a3,1359
    2b60:	01320b3b          	addw	s6,tp,s3
    2b64:	03e0c033          	div	zero,ra,t5
    2b68:	0001                	nop
    2b6a:	8439                	srai	s0,s0,0xe
    2b6c:	41d98233          	sub	tp,s3,t4
    2b70:	717d                	addi	sp,sp,-16
    2b72:	41d98233          	sub	tp,s3,t4
    2b76:	004e5ab3          	srl	s5,t3,tp
    2b7a:	039f7a3b          	remuw	s4,t5,s9
    2b7e:	0001                	nop
    2b80:	033fd793          	srli	a5,t6,0x33
    2b84:	5d328737          	lui	a4,0x5d328
    2b88:	13ad0213          	addi	tp,s10,314
    2b8c:	54f6a993          	slti	s3,a3,1359
    2b90:	02dadfb3          	divu	t6,s5,a3
    2b94:	51fd                	li	gp,-1
    2b96:	02817933          	remu	s2,sp,s0
    2b9a:	40dad233          	sra	tp,s5,a3
    2b9e:	0001                	nop
    2ba0:	037f9333          	mulh	t1,t6,s7
    2ba4:	717d                	addi	sp,sp,-16
    2ba6:	01182a33          	slt	s4,a6,a7
    2baa:	40675113          	srai	sp,a4,0x6
    2bae:	987d                	andi	s0,s0,-1
    2bb0:	8d3d                	xor	a0,a0,a5
    2bb2:	004e5ab3          	srl	s5,t3,tp
    2bb6:	00f164b3          	or	s1,sp,a5
    2bba:	40dad233          	sra	tp,s5,a3
    2bbe:	1f7d                	addi	t5,t5,-1
    2bc0:	717d                	addi	sp,sp,-16
    2bc2:	00e1d23b          	srlw	tp,gp,a4
    2bc6:	090e                	slli	s2,s2,0x3
    2bc8:	5d328737          	lui	a4,0x5d328
    2bcc:	090e                	slli	s2,s2,0x3
    2bce:	01a37233          	and	tp,t1,s10
    2bd2:	00f31f9b          	slliw	t6,t1,0xf
    2bd6:	090e                	slli	s2,s2,0x3
    2bd8:	029d29b3          	mulhsu	s3,s10,s1
    2bdc:	40dad233          	sra	tp,s5,a3
    2be0:	004e5ab3          	srl	s5,t3,tp
    2be4:	961a                	add	a2,a2,t1
    2be6:	40675113          	srai	sp,a4,0x6
    2bea:	02817933          	remu	s2,sp,s0
    2bee:	00f31f9b          	slliw	t6,t1,0xf
    2bf2:	037f9333          	mulh	t1,t6,s7
    2bf6:	5d328737          	lui	a4,0x5d328
    2bfa:	02e964b3          	rem	s1,s2,a4
    2bfe:	987d                	andi	s0,s0,-1
    2c00:	5d328737          	lui	a4,0x5d328
    2c04:	0a04                	addi	s1,sp,272
    2c06:	51fd                	li	gp,-1
    2c08:	00f164b3          	or	s1,sp,a5
    2c0c:	717d                	addi	sp,sp,-16
    2c0e:	008643b3          	xor	t2,a2,s0
    2c12:	00fed41b          	srliw	s0,t4,0xf
    2c16:	5d328737          	lui	a4,0x5d328
    2c1a:	9c8d                	subw	s1,s1,a1
    2c1c:	02f24d3b          	divw	s10,tp,a5
    2c20:	9c8d                	subw	s1,s1,a1
    2c22:	808d                	srli	s1,s1,0x3
    2c24:	41c7043b          	subw	s0,a4,t3
    2c28:	41d98233          	sub	tp,s3,t4
    2c2c:	02dadfb3          	divu	t6,s5,a3
    2c30:	9ead                	addw	a3,a3,a1
    2c32:	9abbcc93          	xori	s9,s7,-1621
    2c36:	8ec9                	or	a3,a3,a0
    2c38:	02817933          	remu	s2,sp,s0
    2c3c:	03509613          	slli	a2,ra,0x35
    2c40:	02e189bb          	mulw	s3,gp,a4
    2c44:	029d29b3          	mulhsu	s3,s10,s1
    2c48:	01a37233          	and	tp,t1,s10
    2c4c:	40dad233          	sra	tp,s5,a3
    2c50:	01a37233          	and	tp,t1,s10
    2c54:	6eed                	lui	t4,0x1b
    2c56:	961a                	add	a2,a2,t1
    2c58:	5d328737          	lui	a4,0x5d328
    2c5c:	02e8b633          	mulhu	a2,a7,a4
    2c60:	0001                	nop
    2c62:	02c78bb3          	mul	s7,a5,a2
    2c66:	dfa53c93          	sltiu	s9,a0,-518
    2c6a:	8439                	srai	s0,s0,0xe
    2c6c:	01a3ba33          	sltu	s4,t2,s10
    2c70:	9abbcc93          	xori	s9,s7,-1621
    2c74:	54f6a993          	slti	s3,a3,1359
    2c78:	e9c89317          	auipc	t1,0xe9c89
    2c7c:	01a3ba33          	sltu	s4,t2,s10
    2c80:	03509613          	slli	a2,ra,0x35
    2c84:	8439                	srai	s0,s0,0xe
    2c86:	8d3d                	xor	a0,a0,a5
    2c88:	38057713          	andi	a4,a0,896
    2c8c:	13ad0213          	addi	tp,s10,314
    2c90:	00e1d23b          	srlw	tp,gp,a4
    2c94:	38057713          	andi	a4,a0,896
    2c98:	42686493          	ori	s1,a6,1062
    2c9c:	03e0c033          	div	zero,ra,t5
    2ca0:	8d01                	sub	a0,a0,s0
    2ca2:	38057713          	andi	a4,a0,896
    2ca6:	0a04                	addi	s1,sp,272
    2ca8:	40dad233          	sra	tp,s5,a3
    2cac:	01f099b3          	sll	s3,ra,t6
    2cb0:	51fd                	li	gp,-1
    2cb2:	317d                	addiw	sp,sp,-1
    2cb4:	13ad0213          	addi	tp,s10,314
    2cb8:	e9c89317          	auipc	t1,0xe9c89
    2cbc:	88d2                	mv	a7,s4
    2cbe:	e9c89317          	auipc	t1,0xe9c89
    2cc2:	02dadfb3          	divu	t6,s5,a3
    2cc6:	38057713          	andi	a4,a0,896
    2cca:	03509613          	slli	a2,ra,0x35
    2cce:	00f48133          	add	sp,s1,a5
    2cd2:	9abbcc93          	xori	s9,s7,-1621
    2cd6:	01182a33          	slt	s4,a6,a7
    2cda:	dfa53c93          	sltiu	s9,a0,-518
    2cde:	02817933          	remu	s2,sp,s0
    2ce2:	42686493          	ori	s1,a6,1062
    2ce6:	317d                	addiw	sp,sp,-1
    2ce8:	40865a1b          	sraiw	s4,a2,0x8
    2cec:	0a04                	addi	s1,sp,272
    2cee:	037f9333          	mulh	t1,t6,s7
    2cf2:	987d                	andi	s0,s0,-1
    2cf4:	033fd793          	srli	a5,t6,0x33
    2cf8:	5d328737          	lui	a4,0x5d328
    2cfc:	40dad233          	sra	tp,s5,a3
    2d00:	00fed41b          	srliw	s0,t4,0xf
    2d04:	01182a33          	slt	s4,a6,a7
    2d08:	13ad0213          	addi	tp,s10,314
    2d0c:	0001                	nop
    2d0e:	004e5ab3          	srl	s5,t3,tp
    2d12:	dfa53c93          	sltiu	s9,a0,-518
    2d16:	037f9333          	mulh	t1,t6,s7
    2d1a:	03e0c033          	div	zero,ra,t5
    2d1e:	029d29b3          	mulhsu	s3,s10,s1
    2d22:	037f9333          	mulh	t1,t6,s7
    2d26:	41c7043b          	subw	s0,a4,t3
    2d2a:	54f6a993          	slti	s3,a3,1359
    2d2e:	0001                	nop
    2d30:	9ead                	addw	a3,a3,a1
    2d32:	03509613          	slli	a2,ra,0x35
    2d36:	8439                	srai	s0,s0,0xe
    2d38:	54f6a993          	slti	s3,a3,1359
    2d3c:	008643b3          	xor	t2,a2,s0
    2d40:	13ad0213          	addi	tp,s10,314
    2d44:	03e0c033          	div	zero,ra,t5
    2d48:	01f099b3          	sll	s3,ra,t6
    2d4c:	016a92bb          	sllw	t0,s5,s6
    2d50:	01f099b3          	sll	s3,ra,t6
    2d54:	0001                	nop
    2d56:	037f9333          	mulh	t1,t6,s7
    2d5a:	01a37233          	and	tp,t1,s10
    2d5e:	317d                	addiw	sp,sp,-1
    2d60:	9ead                	addw	a3,a3,a1
    2d62:	03e0c033          	div	zero,ra,t5
    2d66:	0001                	nop
    2d68:	00f164b3          	or	s1,sp,a5
    2d6c:	0001                	nop
    2d6e:	4048dcbb          	sraw	s9,a7,tp
    2d72:	8d01                	sub	a0,a0,s0
    2d74:	38057713          	andi	a4,a0,896
    2d78:	033fd793          	srli	a5,t6,0x33
    2d7c:	00f31f9b          	slliw	t6,t1,0xf
    2d80:	008643b3          	xor	t2,a2,s0
    2d84:	02c78bb3          	mul	s7,a5,a2
    2d88:	03509613          	slli	a2,ra,0x35
    2d8c:	004e5ab3          	srl	s5,t3,tp
    2d90:	e9c89317          	auipc	t1,0xe9c89
    2d94:	40675113          	srai	sp,a4,0x6
    2d98:	0398d53b          	divuw	a0,a7,s9
    2d9c:	0a04                	addi	s1,sp,272
    2d9e:	0001                	nop
    2da0:	033fd793          	srli	a5,t6,0x33
    2da4:	317d                	addiw	sp,sp,-1
    2da6:	317d                	addiw	sp,sp,-1
    2da8:	039f7a3b          	remuw	s4,t5,s9
    2dac:	02dadfb3          	divu	t6,s5,a3
    2db0:	9abbcc93          	xori	s9,s7,-1621
    2db4:	02c78bb3          	mul	s7,a5,a2
    2db8:	029d29b3          	mulhsu	s3,s10,s1
    2dbc:	dfa53c93          	sltiu	s9,a0,-518
    2dc0:	54f6a993          	slti	s3,a3,1359
    2dc4:	8ef1                	and	a3,a3,a2
    2dc6:	00f31f9b          	slliw	t6,t1,0xf
    2dca:	01320b3b          	addw	s6,tp,s3
    2dce:	00f164b3          	or	s1,sp,a5
    2dd2:	8d3d                	xor	a0,a0,a5
    2dd4:	1f7d                	addi	t5,t5,-1
    2dd6:	9abbcc93          	xori	s9,s7,-1621
    2dda:	01a3ba33          	sltu	s4,t2,s10
    2dde:	02f24d3b          	divw	s10,tp,a5
    2de2:	0398d53b          	divuw	a0,a7,s9
    2de6:	0a04                	addi	s1,sp,272
    2de8:	8ec9                	or	a3,a3,a0
    2dea:	987d                	andi	s0,s0,-1
    2dec:	01f099b3          	sll	s3,ra,t6
    2df0:	961a                	add	a2,a2,t1
    2df2:	01320b3b          	addw	s6,tp,s3
    2df6:	41d98233          	sub	tp,s3,t4
    2dfa:	01182a33          	slt	s4,a6,a7
    2dfe:	e9c89317          	auipc	t1,0xe9c89
    2e02:	e0a1059b          	addiw	a1,sp,-502
    2e06:	01182a33          	slt	s4,a6,a7
    2e0a:	808d                	srli	s1,s1,0x3
    2e0c:	02dadfb3          	divu	t6,s5,a3
    2e10:	01320b3b          	addw	s6,tp,s3
    2e14:	0001                	nop
    2e16:	8d01                	sub	a0,a0,s0
    2e18:	008643b3          	xor	t2,a2,s0
    2e1c:	1f7d                	addi	t5,t5,-1
    2e1e:	8ec9                	or	a3,a3,a0
    2e20:	e9c89317          	auipc	t1,0xe9c89
    2e24:	00f48133          	add	sp,s1,a5
    2e28:	41d98233          	sub	tp,s3,t4
    2e2c:	0a04                	addi	s1,sp,272
    2e2e:	02e189bb          	mulw	s3,gp,a4
    2e32:	4048dcbb          	sraw	s9,a7,tp
    2e36:	13ad0213          	addi	tp,s10,314
    2e3a:	02f24d3b          	divw	s10,tp,a5
    2e3e:	0001                	nop
    2e40:	00e1d23b          	srlw	tp,gp,a4
    2e44:	029d29b3          	mulhsu	s3,s10,s1
    2e48:	016a92bb          	sllw	t0,s5,s6
    2e4c:	00fed41b          	srliw	s0,t4,0xf
    2e50:	961a                	add	a2,a2,t1
    2e52:	40675113          	srai	sp,a4,0x6
    2e56:	e0a1059b          	addiw	a1,sp,-502
    2e5a:	13ad0213          	addi	tp,s10,314
    2e5e:	0313633b          	remw	t1,t1,a7
    2e62:	6eed                	lui	t4,0x1b
    2e64:	00e1d23b          	srlw	tp,gp,a4
    2e68:	40865a1b          	sraiw	s4,a2,0x8
    2e6c:	02c78bb3          	mul	s7,a5,a2
    2e70:	317d                	addiw	sp,sp,-1
    2e72:	40675113          	srai	sp,a4,0x6
    2e76:	42686493          	ori	s1,a6,1062
    2e7a:	0001                	nop
    2e7c:	037f9333          	mulh	t1,t6,s7
    2e80:	008643b3          	xor	t2,a2,s0
    2e84:	8ec9                	or	a3,a3,a0
    2e86:	6eed                	lui	t4,0x1b
    2e88:	02817933          	remu	s2,sp,s0
    2e8c:	8ef1                	and	a3,a3,a2
    2e8e:	02817933          	remu	s2,sp,s0
    2e92:	016a92bb          	sllw	t0,s5,s6
    2e96:	033fd793          	srli	a5,t6,0x33
    2e9a:	02e964b3          	rem	s1,s2,a4
    2e9e:	41c7043b          	subw	s0,a4,t3
    2ea2:	9c8d                	subw	s1,s1,a1
    2ea4:	51fd                	li	gp,-1
    2ea6:	00f48133          	add	sp,s1,a5
    2eaa:	0398d53b          	divuw	a0,a7,s9
    2eae:	00fed41b          	srliw	s0,t4,0xf
    2eb2:	0398d53b          	divuw	a0,a7,s9
    2eb6:	00f48133          	add	sp,s1,a5
    2eba:	40865a1b          	sraiw	s4,a2,0x8
    2ebe:	e9c89317          	auipc	t1,0xe9c89
    2ec2:	03509613          	slli	a2,ra,0x35
    2ec6:	8439                	srai	s0,s0,0xe
    2ec8:	40dad233          	sra	tp,s5,a3
    2ecc:	54f6a993          	slti	s3,a3,1359
    2ed0:	8ec9                	or	a3,a3,a0
    2ed2:	9abbcc93          	xori	s9,s7,-1621
    2ed6:	037f9333          	mulh	t1,t6,s7
    2eda:	02dadfb3          	divu	t6,s5,a3
    2ede:	8d01                	sub	a0,a0,s0
    2ee0:	01a37233          	and	tp,t1,s10
    2ee4:	4048dcbb          	sraw	s9,a7,tp
    2ee8:	00f164b3          	or	s1,sp,a5
    2eec:	9c8d                	subw	s1,s1,a1
    2eee:	03e0c033          	div	zero,ra,t5
    2ef2:	01a37233          	and	tp,t1,s10
    2ef6:	01a3ba33          	sltu	s4,t2,s10
    2efa:	54f6a993          	slti	s3,a3,1359
    2efe:	0313633b          	remw	t1,t1,a7
    2f02:	e0a1059b          	addiw	a1,sp,-502
    2f06:	8d01                	sub	a0,a0,s0
    2f08:	9c8d                	subw	s1,s1,a1
    2f0a:	51fd                	li	gp,-1
    2f0c:	01f099b3          	sll	s3,ra,t6
    2f10:	037f9333          	mulh	t1,t6,s7
    2f14:	01320b3b          	addw	s6,tp,s3
    2f18:	02e964b3          	rem	s1,s2,a4
    2f1c:	317d                	addiw	sp,sp,-1
    2f1e:	0001                	nop
    2f20:	033fd793          	srli	a5,t6,0x33
    2f24:	01f099b3          	sll	s3,ra,t6
    2f28:	4048dcbb          	sraw	s9,a7,tp
    2f2c:	03e0c033          	div	zero,ra,t5
    2f30:	02e189bb          	mulw	s3,gp,a4
    2f34:	01a3ba33          	sltu	s4,t2,s10
    2f38:	40865a1b          	sraiw	s4,a2,0x8
    2f3c:	00f31f9b          	slliw	t6,t1,0xf
    2f40:	01a3ba33          	sltu	s4,t2,s10
    2f44:	0001                	nop
    2f46:	e9c89317          	auipc	t1,0xe9c89
    2f4a:	1f7d                	addi	t5,t5,-1
    2f4c:	01182a33          	slt	s4,a6,a7
    2f50:	51fd                	li	gp,-1
    2f52:	54f6a993          	slti	s3,a3,1359
    2f56:	016a92bb          	sllw	t0,s5,s6
    2f5a:	0001                	nop
    2f5c:	40865a1b          	sraiw	s4,a2,0x8
    2f60:	016a92bb          	sllw	t0,s5,s6
    2f64:	01a3ba33          	sltu	s4,t2,s10
    2f68:	9c8d                	subw	s1,s1,a1
    2f6a:	9abbcc93          	xori	s9,s7,-1621
    2f6e:	4048dcbb          	sraw	s9,a7,tp
    2f72:	01a3ba33          	sltu	s4,t2,s10
    2f76:	40dad233          	sra	tp,s5,a3
    2f7a:	e9c89317          	auipc	t1,0xe9c89
    2f7e:	e0a1059b          	addiw	a1,sp,-502
    2f82:	4d81                	li	s11,0
    2f84:	4701                	li	a4,0
    2f86:	fff00b1b          	addiw	s6,zero,-1
    2f8a:	1b7e                	slli	s6,s6,0x3f
    2f8c:	fff0031b          	addiw	t1,zero,-1
    2f90:	137e                	slli	t1,t1,0x3f
    2f92:	00a384b7          	lui	s1,0xa38
    2f96:	2274849b          	addiw	s1,s1,551
    2f9a:	04ba                	slli	s1,s1,0xe
    2f9c:	31b48493          	addi	s1,s1,795 # a3831b <_end+0xa1861b>
    2fa0:	04b2                	slli	s1,s1,0xc
    2fa2:	bf948493          	addi	s1,s1,-1031
    2fa6:	04b2                	slli	s1,s1,0xc
    2fa8:	ad248493          	addi	s1,s1,-1326
    2fac:	fff00a9b          	addiw	s5,zero,-1
    2fb0:	1afe                	slli	s5,s5,0x3f
    2fb2:	ff119d37          	lui	s10,0xff119
    2fb6:	393d0d1b          	addiw	s10,s10,915
    2fba:	0d36                	slli	s10,s10,0xd
    2fbc:	afdd0d13          	addi	s10,s10,-1283 # ffffffffff118afd <_end+0xffffffffff0f8dfd>
    2fc0:	0d32                	slli	s10,s10,0xc
    2fc2:	f43d0d13          	addi	s10,s10,-189
    2fc6:	0d32                	slli	s10,s10,0xc
    2fc8:	9f9d0d13          	addi	s10,s10,-1543
    2fcc:	fff0069b          	addiw	a3,zero,-1
    2fd0:	16fe                	slli	a3,a3,0x3f
    2fd2:	031f1137          	lui	sp,0x31f1
    2fd6:	57b1011b          	addiw	sp,sp,1403
    2fda:	0136                	slli	sp,sp,0xd
    2fdc:	64f10113          	addi	sp,sp,1615 # 31f164f <_end+0x31d194f>
    2fe0:	0132                	slli	sp,sp,0xc
    2fe2:	65110113          	addi	sp,sp,1617
    2fe6:	0132                	slli	sp,sp,0xc
    2fe8:	9b210113          	addi	sp,sp,-1614
    2fec:	00c28637          	lui	a2,0xc28
    2ff0:	95d6061b          	addiw	a2,a2,-1699
    2ff4:	0632                	slli	a2,a2,0xc
    2ff6:	1b960613          	addi	a2,a2,441 # c281b9 <_end+0xc084b9>
    2ffa:	0636                	slli	a2,a2,0xd
    2ffc:	3b560613          	addi	a2,a2,949
    3000:	063a                	slli	a2,a2,0xe
    3002:	e3860613          	addi	a2,a2,-456
    3006:	02671733          	mulh	a4,a4,t1
    300a:	02e75db3          	divu	s11,a4,a4
    300e:	0001                	nop
    3010:	02671733          	mulh	a4,a4,t1
    3014:	015d013b          	addw	sp,s10,s5
    3018:	0353533b          	divuw	t1,t1,s5
    301c:	02e75db3          	divu	s11,a4,a4
    3020:	029674bb          	remuw	s1,a2,s1
    3024:	02c16b33          	rem	s6,sp,a2
    3028:	40e104bb          	subw	s1,sp,a4
    302c:	026d833b          	mulw	t1,s11,t1
    3030:	e0ad0d1b          	addiw	s10,s10,-502
    3034:	0001                	nop
    3036:	0001                	nop
    3038:	03a37133          	remu	sp,t1,s10
    303c:	02ea8333          	mul	t1,s5,a4
    3040:	03a37133          	remu	sp,t1,s10
    3044:	e9c89317          	auipc	t1,0xe9c89
    3048:	e9c89317          	auipc	t1,0xe9c89
    304c:	02c16b33          	rem	s6,sp,a2
    3050:	02671733          	mulh	a4,a4,t1
    3054:	0353533b          	divuw	t1,t1,s5
    3058:	026d833b          	mulw	t1,s11,t1
    305c:	016a92bb          	sllw	t0,s5,s6
    3060:	8d01                	sub	a0,a0,s0
    3062:	01f099b3          	sll	s3,ra,t6
    3066:	8d01                	sub	a0,a0,s0
    3068:	5d328737          	lui	a4,0x5d328
    306c:	0a04                	addi	s1,sp,272
    306e:	e0a1059b          	addiw	a1,sp,-502
    3072:	01a37233          	and	tp,t1,s10
    3076:	13ad0213          	addi	tp,s10,314
    307a:	03509613          	slli	a2,ra,0x35
    307e:	40675113          	srai	sp,a4,0x6
    3082:	40675113          	srai	sp,a4,0x6
    3086:	00f31f9b          	slliw	t6,t1,0xf
    308a:	0398d53b          	divuw	a0,a7,s9
    308e:	00f164b3          	or	s1,sp,a5
    3092:	02e189bb          	mulw	s3,gp,a4
    3096:	40675113          	srai	sp,a4,0x6
    309a:	41d98233          	sub	tp,s3,t4
    309e:	03e0c033          	div	zero,ra,t5
    30a2:	317d                	addiw	sp,sp,-1
    30a4:	0001                	nop
    30a6:	9c8d                	subw	s1,s1,a1
    30a8:	00e1d23b          	srlw	tp,gp,a4
    30ac:	02dadfb3          	divu	t6,s5,a3
    30b0:	9ead                	addw	a3,a3,a1
    30b2:	02817933          	remu	s2,sp,s0
    30b6:	01a37233          	and	tp,t1,s10
    30ba:	03509613          	slli	a2,ra,0x35
    30be:	8439                	srai	s0,s0,0xe
    30c0:	6eed                	lui	t4,0x1b
    30c2:	02f24d3b          	divw	s10,tp,a5
    30c6:	717d                	addi	sp,sp,-16
    30c8:	e9c89317          	auipc	t1,0xe9c89
    30cc:	1f7d                	addi	t5,t5,-1
    30ce:	13ad0213          	addi	tp,s10,314
    30d2:	54f6a993          	slti	s3,a3,1359
    30d6:	8d01                	sub	a0,a0,s0
    30d8:	0001                	nop
    30da:	8d3d                	xor	a0,a0,a5
    30dc:	00f164b3          	or	s1,sp,a5
    30e0:	dfa53c93          	sltiu	s9,a0,-518
    30e4:	13ad0213          	addi	tp,s10,314
    30e8:	02817933          	remu	s2,sp,s0
    30ec:	02dadfb3          	divu	t6,s5,a3
    30f0:	40dad233          	sra	tp,s5,a3
    30f4:	40675113          	srai	sp,a4,0x6
    30f8:	e0a1059b          	addiw	a1,sp,-502
    30fc:	51fd                	li	gp,-1
    30fe:	008643b3          	xor	t2,a2,s0
    3102:	e9c89317          	auipc	t1,0xe9c89
    3106:	0001                	nop
    3108:	40865a1b          	sraiw	s4,a2,0x8
    310c:	0313633b          	remw	t1,t1,a7
    3110:	717d                	addi	sp,sp,-16
    3112:	51fd                	li	gp,-1
    3114:	e9c89317          	auipc	t1,0xe9c89
    3118:	02dadfb3          	divu	t6,s5,a3
    311c:	88d2                	mv	a7,s4
    311e:	8d3d                	xor	a0,a0,a5
    3120:	51fd                	li	gp,-1
    3122:	0398d53b          	divuw	a0,a7,s9
    3126:	40dad233          	sra	tp,s5,a3
    312a:	02dadfb3          	divu	t6,s5,a3
    312e:	01182a33          	slt	s4,a6,a7
    3132:	9abbcc93          	xori	s9,s7,-1621
    3136:	01182a33          	slt	s4,a6,a7
    313a:	8439                	srai	s0,s0,0xe
    313c:	016a92bb          	sllw	t0,s5,s6
    3140:	016a92bb          	sllw	t0,s5,s6
    3144:	5d328737          	lui	a4,0x5d328
    3148:	090e                	slli	s2,s2,0x3
    314a:	317d                	addiw	sp,sp,-1
    314c:	717d                	addi	sp,sp,-16
    314e:	987d                	andi	s0,s0,-1
    3150:	029d29b3          	mulhsu	s3,s10,s1
    3154:	8ec9                	or	a3,a3,a0
    3156:	4048dcbb          	sraw	s9,a7,tp
    315a:	e9c89317          	auipc	t1,0xe9c89
    315e:	02f24d3b          	divw	s10,tp,a5
    3162:	0001                	nop
    3164:	40865a1b          	sraiw	s4,a2,0x8
    3168:	02e189bb          	mulw	s3,gp,a4
    316c:	e0a1059b          	addiw	a1,sp,-502
    3170:	38057713          	andi	a4,a0,896
    3174:	008643b3          	xor	t2,a2,s0
    3178:	0a04                	addi	s1,sp,272
    317a:	51fd                	li	gp,-1
    317c:	02c78bb3          	mul	s7,a5,a2
    3180:	00f31f9b          	slliw	t6,t1,0xf
    3184:	40dad233          	sra	tp,s5,a3
    3188:	01a3ba33          	sltu	s4,t2,s10
    318c:	717d                	addi	sp,sp,-16
    318e:	8ec9                	or	a3,a3,a0
    3190:	03509613          	slli	a2,ra,0x35
    3194:	00e1d23b          	srlw	tp,gp,a4
    3198:	808d                	srli	s1,s1,0x3
    319a:	987d                	andi	s0,s0,-1
    319c:	02dadfb3          	divu	t6,s5,a3
    31a0:	01a3ba33          	sltu	s4,t2,s10
    31a4:	54f6a993          	slti	s3,a3,1359
    31a8:	008643b3          	xor	t2,a2,s0
    31ac:	51fd                	li	gp,-1
    31ae:	88d2                	mv	a7,s4
    31b0:	40865a1b          	sraiw	s4,a2,0x8
    31b4:	02e8b633          	mulhu	a2,a7,a4
    31b8:	02f24d3b          	divw	s10,tp,a5
    31bc:	8d3d                	xor	a0,a0,a5
    31be:	40865a1b          	sraiw	s4,a2,0x8
    31c2:	0398d53b          	divuw	a0,a7,s9
    31c6:	9abbcc93          	xori	s9,s7,-1621
    31ca:	38057713          	andi	a4,a0,896
    31ce:	8439                	srai	s0,s0,0xe
    31d0:	01f099b3          	sll	s3,ra,t6
    31d4:	01320b3b          	addw	s6,tp,s3
    31d8:	00e1d23b          	srlw	tp,gp,a4
    31dc:	02e8b633          	mulhu	a2,a7,a4
    31e0:	02dadfb3          	divu	t6,s5,a3
    31e4:	e9c89317          	auipc	t1,0xe9c89
    31e8:	00f48133          	add	sp,s1,a5
    31ec:	5d328737          	lui	a4,0x5d328
    31f0:	54f6a993          	slti	s3,a3,1359
    31f4:	13ad0213          	addi	tp,s10,314
    31f8:	e9c89317          	auipc	t1,0xe9c89
    31fc:	0001                	nop
    31fe:	6eed                	lui	t4,0x1b
    3200:	01f099b3          	sll	s3,ra,t6
    3204:	01a37233          	and	tp,t1,s10
    3208:	8ec9                	or	a3,a3,a0
    320a:	6eed                	lui	t4,0x1b
    320c:	01320b3b          	addw	s6,tp,s3
    3210:	317d                	addiw	sp,sp,-1
    3212:	54f6a993          	slti	s3,a3,1359
    3216:	008643b3          	xor	t2,a2,s0
    321a:	0398d53b          	divuw	a0,a7,s9
    321e:	029d29b3          	mulhsu	s3,s10,s1
    3222:	961a                	add	a2,a2,t1
    3224:	02c78bb3          	mul	s7,a5,a2
    3228:	8d01                	sub	a0,a0,s0
    322a:	808d                	srli	s1,s1,0x3
    322c:	0001                	nop
    322e:	00e1d23b          	srlw	tp,gp,a4
    3232:	5d328737          	lui	a4,0x5d328
    3236:	88d2                	mv	a7,s4
    3238:	8d3d                	xor	a0,a0,a5
    323a:	0001                	nop
    323c:	016a92bb          	sllw	t0,s5,s6
    3240:	0001                	nop
    3242:	02e189bb          	mulw	s3,gp,a4
    3246:	029d29b3          	mulhsu	s3,s10,s1
    324a:	e9c89317          	auipc	t1,0xe9c89
    324e:	0001                	nop
    3250:	51fd                	li	gp,-1
    3252:	01f099b3          	sll	s3,ra,t6
    3256:	01a37233          	and	tp,t1,s10
    325a:	00f164b3          	or	s1,sp,a5
    325e:	02817933          	remu	s2,sp,s0
    3262:	9abbcc93          	xori	s9,s7,-1621
    3266:	008643b3          	xor	t2,a2,s0
    326a:	6eed                	lui	t4,0x1b
    326c:	9c8d                	subw	s1,s1,a1
    326e:	090e                	slli	s2,s2,0x3
    3270:	03509613          	slli	a2,ra,0x35
    3274:	41c7043b          	subw	s0,a4,t3
    3278:	9ead                	addw	a3,a3,a1
    327a:	00f48133          	add	sp,s1,a5
    327e:	039f7a3b          	remuw	s4,t5,s9
    3282:	02dadfb3          	divu	t6,s5,a3
    3286:	40675113          	srai	sp,a4,0x6
    328a:	717d                	addi	sp,sp,-16
    328c:	004e5ab3          	srl	s5,t3,tp
    3290:	029d29b3          	mulhsu	s3,s10,s1
    3294:	13ad0213          	addi	tp,s10,314
    3298:	41d98233          	sub	tp,s3,t4
    329c:	e9c89317          	auipc	t1,0xe9c89
    32a0:	4048dcbb          	sraw	s9,a7,tp
    32a4:	40675113          	srai	sp,a4,0x6
    32a8:	5d328737          	lui	a4,0x5d328
    32ac:	01a37233          	and	tp,t1,s10
    32b0:	40865a1b          	sraiw	s4,a2,0x8
    32b4:	88d2                	mv	a7,s4
    32b6:	008643b3          	xor	t2,a2,s0
    32ba:	090e                	slli	s2,s2,0x3
    32bc:	00e1d23b          	srlw	tp,gp,a4
    32c0:	004e5ab3          	srl	s5,t3,tp
    32c4:	41c7043b          	subw	s0,a4,t3
    32c8:	0398d53b          	divuw	a0,a7,s9
    32cc:	987d                	andi	s0,s0,-1
    32ce:	0398d53b          	divuw	a0,a7,s9
    32d2:	02e189bb          	mulw	s3,gp,a4
    32d6:	01182a33          	slt	s4,a6,a7
    32da:	6eed                	lui	t4,0x1b
    32dc:	02c78bb3          	mul	s7,a5,a2
    32e0:	9c8d                	subw	s1,s1,a1
    32e2:	03e0c033          	div	zero,ra,t5
    32e6:	6eed                	lui	t4,0x1b
    32e8:	033fd793          	srli	a5,t6,0x33
    32ec:	41d98233          	sub	tp,s3,t4
    32f0:	0001                	nop
    32f2:	8ef1                	and	a3,a3,a2
    32f4:	9abbcc93          	xori	s9,s7,-1621
    32f8:	03e0c033          	div	zero,ra,t5
    32fc:	02c78bb3          	mul	s7,a5,a2
    3300:	e0a1059b          	addiw	a1,sp,-502
    3304:	02e964b3          	rem	s1,s2,a4
    3308:	01f099b3          	sll	s3,ra,t6
    330c:	02e964b3          	rem	s1,s2,a4
    3310:	02817933          	remu	s2,sp,s0
    3314:	090e                	slli	s2,s2,0x3
    3316:	9ead                	addw	a3,a3,a1
    3318:	02c78bb3          	mul	s7,a5,a2
    331c:	317d                	addiw	sp,sp,-1
    331e:	6eed                	lui	t4,0x1b
    3320:	54f6a993          	slti	s3,a3,1359
    3324:	0001                	nop
    3326:	51fd                	li	gp,-1
    3328:	e9c89317          	auipc	t1,0xe9c89
    332c:	1f7d                	addi	t5,t5,-1
    332e:	9abbcc93          	xori	s9,s7,-1621
    3332:	02f24d3b          	divw	s10,tp,a5
    3336:	02817933          	remu	s2,sp,s0
    333a:	38057713          	andi	a4,a0,896
    333e:	00f31f9b          	slliw	t6,t1,0xf
    3342:	dfa53c93          	sltiu	s9,a0,-518
    3346:	00f48133          	add	sp,s1,a5
    334a:	41d98233          	sub	tp,s3,t4
    334e:	029d29b3          	mulhsu	s3,s10,s1
    3352:	01f099b3          	sll	s3,ra,t6
    3356:	029d29b3          	mulhsu	s3,s10,s1
    335a:	033fd793          	srli	a5,t6,0x33
    335e:	039f7a3b          	remuw	s4,t5,s9
    3362:	004e5ab3          	srl	s5,t3,tp
    3366:	01320b3b          	addw	s6,tp,s3
    336a:	9c8d                	subw	s1,s1,a1
    336c:	004e5ab3          	srl	s5,t3,tp
    3370:	008643b3          	xor	t2,a2,s0
    3374:	008643b3          	xor	t2,a2,s0
    3378:	039f7a3b          	remuw	s4,t5,s9
    337c:	02e964b3          	rem	s1,s2,a4
    3380:	1f7d                	addi	t5,t5,-1
    3382:	00f31f9b          	slliw	t6,t1,0xf
    3386:	03e0c033          	div	zero,ra,t5
    338a:	808d                	srli	s1,s1,0x3
    338c:	090e                	slli	s2,s2,0x3
    338e:	033fd793          	srli	a5,t6,0x33
    3392:	42686493          	ori	s1,a6,1062
    3396:	039f7a3b          	remuw	s4,t5,s9
    339a:	090e                	slli	s2,s2,0x3
    339c:	0001                	nop
    339e:	00f48133          	add	sp,s1,a5
    33a2:	029d29b3          	mulhsu	s3,s10,s1
    33a6:	9ead                	addw	a3,a3,a1
    33a8:	54f6a993          	slti	s3,a3,1359
    33ac:	54f6a993          	slti	s3,a3,1359
    33b0:	00f164b3          	or	s1,sp,a5
    33b4:	9c8d                	subw	s1,s1,a1
    33b6:	5d328737          	lui	a4,0x5d328
    33ba:	40675113          	srai	sp,a4,0x6
    33be:	039f7a3b          	remuw	s4,t5,s9
    33c2:	8ef1                	and	a3,a3,a2
    33c4:	02dadfb3          	divu	t6,s5,a3
    33c8:	41c7043b          	subw	s0,a4,t3
    33cc:	9c8d                	subw	s1,s1,a1
    33ce:	54f6a993          	slti	s3,a3,1359
    33d2:	01a3ba33          	sltu	s4,t2,s10
    33d6:	9abbcc93          	xori	s9,s7,-1621
    33da:	8d3d                	xor	a0,a0,a5
    33dc:	029d29b3          	mulhsu	s3,s10,s1
    33e0:	40dad233          	sra	tp,s5,a3
    33e4:	00f164b3          	or	s1,sp,a5
    33e8:	008643b3          	xor	t2,a2,s0
    33ec:	0001                	nop
    33ee:	00f48133          	add	sp,s1,a5
    33f2:	13ad0213          	addi	tp,s10,314
    33f6:	01f099b3          	sll	s3,ra,t6
    33fa:	0001                	nop
    33fc:	03e0c033          	div	zero,ra,t5
    3400:	01320b3b          	addw	s6,tp,s3
    3404:	00f31f9b          	slliw	t6,t1,0xf
    3408:	016a92bb          	sllw	t0,s5,s6
    340c:	e9c89317          	auipc	t1,0xe9c89
    3410:	9ead                	addw	a3,a3,a1
    3412:	01a37233          	and	tp,t1,s10
    3416:	008643b3          	xor	t2,a2,s0
    341a:	1f7d                	addi	t5,t5,-1
    341c:	03509613          	slli	a2,ra,0x35
    3420:	008643b3          	xor	t2,a2,s0
    3424:	40dad233          	sra	tp,s5,a3
    3428:	38057713          	andi	a4,a0,896
    342c:	40dad233          	sra	tp,s5,a3
    3430:	0398d53b          	divuw	a0,a7,s9
    3434:	03e0c033          	div	zero,ra,t5
    3438:	9abbcc93          	xori	s9,s7,-1621
    343c:	01f099b3          	sll	s3,ra,t6
    3440:	1f7d                	addi	t5,t5,-1
    3442:	88d2                	mv	a7,s4
    3444:	961a                	add	a2,a2,t1
    3446:	961a                	add	a2,a2,t1
    3448:	02e189bb          	mulw	s3,gp,a4
    344c:	41d98233          	sub	tp,s3,t4
    3450:	38057713          	andi	a4,a0,896
    3454:	00e1d23b          	srlw	tp,gp,a4
    3458:	41d98233          	sub	tp,s3,t4
    345c:	40dad233          	sra	tp,s5,a3
    3460:	02dadfb3          	divu	t6,s5,a3
    3464:	039f7a3b          	remuw	s4,t5,s9
    3468:	01320b3b          	addw	s6,tp,s3
    346c:	02e189bb          	mulw	s3,gp,a4
    3470:	02dadfb3          	divu	t6,s5,a3
    3474:	0001                	nop
    3476:	016a92bb          	sllw	t0,s5,s6
    347a:	02f24d3b          	divw	s10,tp,a5
    347e:	02c78bb3          	mul	s7,a5,a2
    3482:	00fed41b          	srliw	s0,t4,0xf
    3486:	987d                	andi	s0,s0,-1
    3488:	987d                	andi	s0,s0,-1
    348a:	004e5ab3          	srl	s5,t3,tp
    348e:	40dad233          	sra	tp,s5,a3
    3492:	88d2                	mv	a7,s4
    3494:	016a92bb          	sllw	t0,s5,s6
    3498:	6eed                	lui	t4,0x1b
    349a:	41c7043b          	subw	s0,a4,t3
    349e:	8ec9                	or	a3,a3,a0
    34a0:	0a04                	addi	s1,sp,272
    34a2:	00f31f9b          	slliw	t6,t1,0xf
    34a6:	51fd                	li	gp,-1
    34a8:	317d                	addiw	sp,sp,-1
    34aa:	02dadfb3          	divu	t6,s5,a3
    34ae:	00f48133          	add	sp,s1,a5
    34b2:	01320b3b          	addw	s6,tp,s3
    34b6:	029d29b3          	mulhsu	s3,s10,s1
    34ba:	317d                	addiw	sp,sp,-1
    34bc:	8d01                	sub	a0,a0,s0
    34be:	41c7043b          	subw	s0,a4,t3
    34c2:	02817933          	remu	s2,sp,s0
    34c6:	8d01                	sub	a0,a0,s0
    34c8:	40dad233          	sra	tp,s5,a3
    34cc:	e9c89317          	auipc	t1,0xe9c89
    34d0:	00f48133          	add	sp,s1,a5
    34d4:	02e964b3          	rem	s1,s2,a4
    34d8:	961a                	add	a2,a2,t1
    34da:	8439                	srai	s0,s0,0xe
    34dc:	13ad0213          	addi	tp,s10,314
    34e0:	029d29b3          	mulhsu	s3,s10,s1
    34e4:	717d                	addi	sp,sp,-16
    34e6:	0313633b          	remw	t1,t1,a7
    34ea:	40dad233          	sra	tp,s5,a3
    34ee:	01182a33          	slt	s4,a6,a7
    34f2:	54f6a993          	slti	s3,a3,1359
    34f6:	037f9333          	mulh	t1,t6,s7
    34fa:	033fd793          	srli	a5,t6,0x33
    34fe:	033fd793          	srli	a5,t6,0x33
    3502:	02c78bb3          	mul	s7,a5,a2
    3506:	1f7d                	addi	t5,t5,-1
    3508:	03e0c033          	div	zero,ra,t5
    350c:	717d                	addi	sp,sp,-16
    350e:	01a3ba33          	sltu	s4,t2,s10
    3512:	029d29b3          	mulhsu	s3,s10,s1
    3516:	9ead                	addw	a3,a3,a1
    3518:	5d328737          	lui	a4,0x5d328
    351c:	02e964b3          	rem	s1,s2,a4
    3520:	0398d53b          	divuw	a0,a7,s9
    3524:	5d328737          	lui	a4,0x5d328
    3528:	0001                	nop
    352a:	5d328737          	lui	a4,0x5d328
    352e:	808d                	srli	s1,s1,0x3
    3530:	987d                	andi	s0,s0,-1
    3532:	717d                	addi	sp,sp,-16
    3534:	dfa53c93          	sltiu	s9,a0,-518
    3538:	51fd                	li	gp,-1
    353a:	8ec9                	or	a3,a3,a0
    353c:	38057713          	andi	a4,a0,896
    3540:	00f164b3          	or	s1,sp,a5
    3544:	037f9333          	mulh	t1,t6,s7
    3548:	00fed41b          	srliw	s0,t4,0xf
    354c:	8ef1                	and	a3,a3,a2
    354e:	0001                	nop
    3550:	40675113          	srai	sp,a4,0x6
    3554:	01f099b3          	sll	s3,ra,t6
    3558:	e9c89317          	auipc	t1,0xe9c89
    355c:	01a37233          	and	tp,t1,s10
    3560:	8d3d                	xor	a0,a0,a5
    3562:	02f24d3b          	divw	s10,tp,a5
    3566:	01a37233          	and	tp,t1,s10
    356a:	039f7a3b          	remuw	s4,t5,s9
    356e:	0001                	nop
    3570:	41c7043b          	subw	s0,a4,t3
    3574:	717d                	addi	sp,sp,-16
    3576:	00f31f9b          	slliw	t6,t1,0xf
    357a:	02817933          	remu	s2,sp,s0
    357e:	41d98233          	sub	tp,s3,t4
    3582:	41d98233          	sub	tp,s3,t4
    3586:	317d                	addiw	sp,sp,-1
    3588:	6eed                	lui	t4,0x1b
    358a:	0001                	nop
    358c:	41c7043b          	subw	s0,a4,t3
    3590:	00e1d23b          	srlw	tp,gp,a4
    3594:	808d                	srli	s1,s1,0x3
    3596:	e9c89317          	auipc	t1,0xe9c89
    359a:	00fed41b          	srliw	s0,t4,0xf
    359e:	717d                	addi	sp,sp,-16
    35a0:	317d                	addiw	sp,sp,-1
    35a2:	01f099b3          	sll	s3,ra,t6
    35a6:	317d                	addiw	sp,sp,-1
    35a8:	e0a1059b          	addiw	a1,sp,-502
    35ac:	987d                	andi	s0,s0,-1
    35ae:	00f48133          	add	sp,s1,a5
    35b2:	13ad0213          	addi	tp,s10,314
    35b6:	029d29b3          	mulhsu	s3,s10,s1
    35ba:	008643b3          	xor	t2,a2,s0
    35be:	02817933          	remu	s2,sp,s0
    35c2:	00f164b3          	or	s1,sp,a5
    35c6:	02e189bb          	mulw	s3,gp,a4
    35ca:	00f164b3          	or	s1,sp,a5
    35ce:	8d01                	sub	a0,a0,s0
    35d0:	9abbcc93          	xori	s9,s7,-1621
    35d4:	008643b3          	xor	t2,a2,s0
    35d8:	00f164b3          	or	s1,sp,a5
    35dc:	004e5ab3          	srl	s5,t3,tp
    35e0:	9c8d                	subw	s1,s1,a1
    35e2:	03509613          	slli	a2,ra,0x35
    35e6:	dfa53c93          	sltiu	s9,a0,-518
    35ea:	01a3ba33          	sltu	s4,t2,s10
    35ee:	317d                	addiw	sp,sp,-1
    35f0:	9abbcc93          	xori	s9,s7,-1621
    35f4:	40865a1b          	sraiw	s4,a2,0x8
    35f8:	02dadfb3          	divu	t6,s5,a3
    35fc:	5d328737          	lui	a4,0x5d328
    3600:	40dad233          	sra	tp,s5,a3
    3604:	6eed                	lui	t4,0x1b
    3606:	4048dcbb          	sraw	s9,a7,tp
    360a:	e9c89317          	auipc	t1,0xe9c89
    360e:	9c8d                	subw	s1,s1,a1
    3610:	961a                	add	a2,a2,t1
    3612:	41d98233          	sub	tp,s3,t4
    3616:	41d98233          	sub	tp,s3,t4
    361a:	037f9333          	mulh	t1,t6,s7
    361e:	8ef1                	and	a3,a3,a2
    3620:	02dadfb3          	divu	t6,s5,a3
    3624:	01320b3b          	addw	s6,tp,s3
    3628:	01f099b3          	sll	s3,ra,t6
    362c:	01f099b3          	sll	s3,ra,t6
    3630:	01a37233          	and	tp,t1,s10
    3634:	987d                	andi	s0,s0,-1
    3636:	037f9333          	mulh	t1,t6,s7
    363a:	037f9333          	mulh	t1,t6,s7
    363e:	090e                	slli	s2,s2,0x3
    3640:	8ec9                	or	a3,a3,a0
    3642:	8d3d                	xor	a0,a0,a5
    3644:	41d98233          	sub	tp,s3,t4
    3648:	0398d53b          	divuw	a0,a7,s9
    364c:	01f099b3          	sll	s3,ra,t6
    3650:	02e8b633          	mulhu	a2,a7,a4
    3654:	01f099b3          	sll	s3,ra,t6
    3658:	02e189bb          	mulw	s3,gp,a4
    365c:	6eed                	lui	t4,0x1b
    365e:	e9c89317          	auipc	t1,0xe9c89
    3662:	00f31f9b          	slliw	t6,t1,0xf
    3666:	01182a33          	slt	s4,a6,a7
    366a:	8ef1                	and	a3,a3,a2
    366c:	1f7d                	addi	t5,t5,-1
    366e:	317d                	addiw	sp,sp,-1
    3670:	13ad0213          	addi	tp,s10,314
    3674:	016a92bb          	sllw	t0,s5,s6
    3678:	8ec9                	or	a3,a3,a0
    367a:	8d01                	sub	a0,a0,s0
    367c:	0001                	nop
    367e:	6eed                	lui	t4,0x1b
    3680:	8ef1                	and	a3,a3,a2
    3682:	1f7d                	addi	t5,t5,-1
    3684:	00fed41b          	srliw	s0,t4,0xf
    3688:	987d                	andi	s0,s0,-1
    368a:	02e189bb          	mulw	s3,gp,a4
    368e:	9abbcc93          	xori	s9,s7,-1621
    3692:	54f6a993          	slti	s3,a3,1359
    3696:	0398d53b          	divuw	a0,a7,s9
    369a:	016a92bb          	sllw	t0,s5,s6
    369e:	039f7a3b          	remuw	s4,t5,s9
    36a2:	0001                	nop
    36a4:	029d29b3          	mulhsu	s3,s10,s1
    36a8:	02c78bb3          	mul	s7,a5,a2
    36ac:	42686493          	ori	s1,a6,1062
    36b0:	0313633b          	remw	t1,t1,a7
    36b4:	317d                	addiw	sp,sp,-1
    36b6:	008643b3          	xor	t2,a2,s0
    36ba:	00f164b3          	or	s1,sp,a5
    36be:	0001                	nop
    36c0:	00e1d23b          	srlw	tp,gp,a4
    36c4:	9ead                	addw	a3,a3,a1
    36c6:	717d                	addi	sp,sp,-16
    36c8:	01a3ba33          	sltu	s4,t2,s10
    36cc:	317d                	addiw	sp,sp,-1
    36ce:	037f9333          	mulh	t1,t6,s7
    36d2:	039f7a3b          	remuw	s4,t5,s9
    36d6:	00e1d23b          	srlw	tp,gp,a4
    36da:	54f6a993          	slti	s3,a3,1359
    36de:	9ead                	addw	a3,a3,a1
    36e0:	9c8d                	subw	s1,s1,a1
    36e2:	317d                	addiw	sp,sp,-1
    36e4:	8ec9                	or	a3,a3,a0
    36e6:	8d3d                	xor	a0,a0,a5
    36e8:	40675113          	srai	sp,a4,0x6
    36ec:	40675113          	srai	sp,a4,0x6
    36f0:	4f81                	li	t6,0
    36f2:	5afd                	li	s5,-1
    36f4:	4b81                	li	s7,0
    36f6:	4281                	li	t0,0
    36f8:	002527b7          	lui	a5,0x252
    36fc:	b977879b          	addiw	a5,a5,-1129
    3700:	07b6                	slli	a5,a5,0xd
    3702:	15978793          	addi	a5,a5,345 # 252159 <_end+0x232459>
    3706:	07b6                	slli	a5,a5,0xd
    3708:	45d78793          	addi	a5,a5,1117
    370c:	07ba                	slli	a5,a5,0xe
    370e:	27d78793          	addi	a5,a5,637
    3712:	ffccaeb7          	lui	t4,0xffcca
    3716:	b63e8e9b          	addiw	t4,t4,-1181
    371a:	0ec2                	slli	t4,t4,0x10
    371c:	73be8e93          	addi	t4,t4,1851 # ffffffffffcca73b <_end+0xffffffffffcaaa3b>
    3720:	0eb2                	slli	t4,t4,0xc
    3722:	09be8e93          	addi	t4,t4,155
    3726:	0eb6                	slli	t4,t4,0xd
    3728:	d01e8e93          	addi	t4,t4,-767
    372c:	4101                	li	sp,0
    372e:	4381                	li	t2,0
    3730:	4081                	li	ra,0
    3732:	58fd                	li	a7,-1
    3734:	13a10293          	addi	t0,sp,314
    3738:	02f7813b          	mulw	sp,a5,a5
    373c:	03d0a3b3          	mulhsu	t2,ra,t4
    3740:	02715fbb          	divuw	t6,sp,t2
    3744:	0001                	nop
    3746:	0213e133          	rem	sp,t2,ra
    374a:	022af0bb          	remuw	ra,s5,sp
    374e:	03f288b3          	mul	a7,t0,t6
    3752:	0001                	nop
    3754:	0213e133          	rem	sp,t2,ra
    3758:	0312fab3          	remu	s5,t0,a7
    375c:	022af0bb          	remuw	ra,s5,sp
    3760:	405887bb          	subw	a5,a7,t0
    3764:	03deb8b3          	mulhu	a7,t4,t4
    3768:	5d328137          	lui	sp,0x5d328
    376c:	03d0a3b3          	mulhsu	t2,ra,t4
    3770:	41528ab3          	sub	s5,t0,s5
    3774:	021bcfbb          	divw	t6,s7,ra
    3778:	41528ab3          	sub	s5,t0,s5
    377c:	01778ebb          	addw	t4,a5,s7
    3780:	0217efbb          	remw	t6,a5,ra
    3784:	03deb8b3          	mulhu	a7,t4,t4
    3788:	13a10293          	addi	t0,sp,314 # 5d32813a <_end+0x5d30843a>
    378c:	0217efbb          	remw	t6,a5,ra
    3790:	00738ab3          	add	s5,t2,t2
    3794:	03f288b3          	mul	a7,t0,t6
    3798:	41528ab3          	sub	s5,t0,s5
    379c:	03f288b3          	mul	a7,t0,t6
    37a0:	e9c89297          	auipc	t0,0xe9c89
    37a4:	01778ebb          	addw	t4,a5,s7
    37a8:	02e8b633          	mulhu	a2,a7,a4
    37ac:	8439                	srai	s0,s0,0xe
    37ae:	00e1d23b          	srlw	tp,gp,a4
    37b2:	0001                	nop
    37b4:	0001                	nop
    37b6:	0313633b          	remw	t1,t1,a7
    37ba:	02f24d3b          	divw	s10,tp,a5
    37be:	8ef1                	and	a3,a3,a2
    37c0:	fff00d1b          	addiw	s10,zero,-1
    37c4:	1d7e                	slli	s10,s10,0x3f
    37c6:	fff0041b          	addiw	s0,zero,-1
    37ca:	147e                	slli	s0,s0,0x3f
    37cc:	ffebdeb7          	lui	t4,0xffebd
    37d0:	cfde8e9b          	addiw	t4,t4,-771
    37d4:	0eb2                	slli	t4,t4,0xc
    37d6:	ea1e8e93          	addi	t4,t4,-351 # ffffffffffebcea1 <_end+0xffffffffffe9d1a1>
    37da:	0eba                	slli	t4,t4,0xe
    37dc:	8c3e8e93          	addi	t4,t4,-1853
    37e0:	0ebe                	slli	t4,t4,0xf
    37e2:	102e8e93          	addi	t4,t4,258
    37e6:	57fd                	li	a5,-1
    37e8:	fff0089b          	addiw	a7,zero,-1
    37ec:	18fe                	slli	a7,a7,0x3f
    37ee:	4a81                	li	s5,0
    37f0:	527d                	li	tp,-1
    37f2:	72cd                	lui	t0,0xffff3
    37f4:	2df2829b          	addiw	t0,t0,735
    37f8:	02c2                	slli	t0,t0,0x10
    37fa:	3c128293          	addi	t0,t0,961 # ffffffffffff33c1 <_end+0xfffffffffffd36c1>
    37fe:	02ba                	slli	t0,t0,0xe
    3800:	fcb28293          	addi	t0,t0,-53
    3804:	02c6                	slli	t0,t0,0x11
    3806:	85b28293          	addi	t0,t0,-1957
    380a:	00b09db7          	lui	s11,0xb09
    380e:	ee3d8d9b          	addiw	s11,s11,-285
    3812:	0db6                	slli	s11,s11,0xd
    3814:	c91d8d93          	addi	s11,s11,-879 # b08c91 <_end+0xae8f91>
    3818:	0db2                	slli	s11,s11,0xc
    381a:	e03d8d93          	addi	s11,s11,-509
    381e:	0dba                	slli	s11,s11,0xe
    3820:	9dcd8d93          	addi	s11,s11,-1572
    3824:	557d                	li	a0,-1
    3826:	0354743b          	remuw	s0,s0,s5
    382a:	0001                	nop
    382c:	02fed7b3          	divu	a5,t4,a5
    3830:	0001                	nop
    3832:	025212b3          	mulh	t0,tp,t0
    3836:	00fd053b          	addw	a0,s10,a5
    383a:	02aea233          	mulhsu	tp,t4,a0
    383e:	01b50233          	add	tp,a0,s11
    3842:	5d328d37          	lui	s10,0x5d328
    3846:	03527ab3          	remu	s5,tp,s5
    384a:	028eb8b3          	mulhu	a7,t4,s0
    384e:	40440abb          	subw	s5,s0,tp
    3852:	028d6dbb          	remw	s11,s10,s0
    3856:	03a28433          	mul	s0,t0,s10
    385a:	03144d33          	div	s10,s0,a7
    385e:	03144d33          	div	s10,s0,a7
    3862:	5d328d37          	lui	s10,0x5d328
    3866:	13ad0213          	addi	tp,s10,314 # 5d32813a <_end+0x5d30843a>
    386a:	0001                	nop
    386c:	0398d53b          	divuw	a0,a7,s9
    3870:	961a                	add	a2,a2,t1
    3872:	01a37233          	and	tp,t1,s10
    3876:	01182a33          	slt	s4,a6,a7
    387a:	02e189bb          	mulw	s3,gp,a4
    387e:	808d                	srli	s1,s1,0x3
    3880:	02e964b3          	rem	s1,s2,a4
    3884:	8ec9                	or	a3,a3,a0
    3886:	987d                	andi	s0,s0,-1
    3888:	00fed41b          	srliw	s0,t4,0xf
    388c:	0001                	nop
    388e:	54f6a993          	slti	s3,a3,1359
    3892:	00e1d23b          	srlw	tp,gp,a4
    3896:	0398d53b          	divuw	a0,a7,s9
    389a:	9c8d                	subw	s1,s1,a1
    389c:	8ef1                	and	a3,a3,a2
    389e:	004e5ab3          	srl	s5,t3,tp
    38a2:	00fed41b          	srliw	s0,t4,0xf
    38a6:	8439                	srai	s0,s0,0xe
    38a8:	987d                	andi	s0,s0,-1
    38aa:	037f9333          	mulh	t1,t6,s7
    38ae:	9abbcc93          	xori	s9,s7,-1621
    38b2:	4048dcbb          	sraw	s9,a7,tp
    38b6:	8ef1                	and	a3,a3,a2
    38b8:	0001                	nop
    38ba:	1f7d                	addi	t5,t5,-1
    38bc:	987d                	andi	s0,s0,-1
    38be:	033fd793          	srli	a5,t6,0x33
    38c2:	037f9333          	mulh	t1,t6,s7
    38c6:	02c78bb3          	mul	s7,a5,a2
    38ca:	9ead                	addw	a3,a3,a1
    38cc:	38057713          	andi	a4,a0,896
    38d0:	0398d53b          	divuw	a0,a7,s9
    38d4:	0001                	nop
    38d6:	0a04                	addi	s1,sp,272
    38d8:	02817933          	remu	s2,sp,s0
    38dc:	03509613          	slli	a2,ra,0x35
    38e0:	317d                	addiw	sp,sp,-1
    38e2:	e0a1059b          	addiw	a1,sp,-502
    38e6:	02c78bb3          	mul	s7,a5,a2
    38ea:	01182a33          	slt	s4,a6,a7
    38ee:	dfa53c93          	sltiu	s9,a0,-518
    38f2:	8439                	srai	s0,s0,0xe
    38f4:	40675113          	srai	sp,a4,0x6
    38f8:	9abbcc93          	xori	s9,s7,-1621
    38fc:	ffcf2737          	lui	a4,0xffcf2
    3900:	c8f7071b          	addiw	a4,a4,-881
    3904:	0732                	slli	a4,a4,0xc
    3906:	a1b70713          	addi	a4,a4,-1509 # ffffffffffcf1a1b <_end+0xffffffffffcd1d1b>
    390a:	0746                	slli	a4,a4,0x11
    390c:	b9370713          	addi	a4,a4,-1133
    3910:	0732                	slli	a4,a4,0xc
    3912:	1a070713          	addi	a4,a4,416
    3916:	012cd237          	lui	tp,0x12cd
    391a:	0752021b          	addiw	tp,tp,117
    391e:	0232                	slli	tp,tp,0xc
    3920:	cf120213          	addi	tp,tp,-783 # 12cccf1 <_end+0x12acff1>
    3924:	0236                	slli	tp,tp,0xd
    3926:	5e120213          	addi	tp,tp,1505 # 5e1 <mmode_intr_vector_8+0x23>
    392a:	0236                	slli	tp,tp,0xd
    392c:	cfb20213          	addi	tp,tp,-773 # fffffffffffffcfb <_end+0xfffffffffffdfffb>
    3930:	4901                	li	s2,0
    3932:	4381                	li	t2,0
    3934:	4881                	li	a7,0
    3936:	4581                	li	a1,0
    3938:	fff00d1b          	addiw	s10,zero,-1
    393c:	1d7e                	slli	s10,s10,0x3f
    393e:	fff0079b          	addiw	a5,zero,-1
    3942:	17fe                	slli	a5,a5,0x3f
    3944:	4f01                	li	t5,0
    3946:	03f854b7          	lui	s1,0x3f85
    394a:	0d74849b          	addiw	s1,s1,215
    394e:	04b2                	slli	s1,s1,0xc
    3950:	52d48493          	addi	s1,s1,1325 # 3f8552d <_end+0x3f6582d>
    3954:	04b2                	slli	s1,s1,0xc
    3956:	da948493          	addi	s1,s1,-599
    395a:	04b2                	slli	s1,s1,0xc
    395c:	cb448493          	addi	s1,s1,-844
    3960:	78ae9f17          	auipc	t5,0x78ae9
    3964:	00bf093b          	addw	s2,t5,a1
    3968:	e0a8839b          	addiw	t2,a7,-502
    396c:	0248c4b3          	div	s1,a7,tp
    3970:	029487b3          	mul	a5,s1,s1
    3974:	0001                	nop
    3976:	0001                	nop
    3978:	02f5e4b3          	rem	s1,a1,a5
    397c:	02e3c5bb          	divw	a1,t2,a4
    3980:	e9c89497          	auipc	s1,0xe9c89
    3984:	40fd07bb          	subw	a5,s10,a5
    3988:	0001                	nop
    398a:	0293a233          	mulhsu	tp,t2,s1
    398e:	03e775b3          	remu	a1,a4,t5
    3992:	03294d33          	div	s10,s2,s2
    3996:	404d03bb          	subw	t2,s10,tp
    399a:	0325ef33          	rem	t5,a1,s2
    399e:	5d328d37          	lui	s10,0x5d328
    39a2:	029f13b3          	mulh	t2,t5,s1
    39a6:	13a20913          	addi	s2,tp,314 # 13a <init+0xb4>
    39aa:	03e48d33          	mul	s10,s1,t5
    39ae:	987d                	andi	s0,s0,-1
    39b0:	961a                	add	a2,a2,t1
    39b2:	033fd793          	srli	a5,t6,0x33
    39b6:	9ead                	addw	a3,a3,a1
    39b8:	016a92bb          	sllw	t0,s5,s6
    39bc:	6eed                	lui	t4,0x1b
    39be:	0398d53b          	divuw	a0,a7,s9
    39c2:	88d2                	mv	a7,s4
    39c4:	01a3ba33          	sltu	s4,t2,s10
    39c8:	03e0c033          	div	zero,ra,t5
    39cc:	090e                	slli	s2,s2,0x3
    39ce:	02e8b633          	mulhu	a2,a7,a4
    39d2:	02dadfb3          	divu	t6,s5,a3
    39d6:	8ec9                	or	a3,a3,a0
    39d8:	02c78bb3          	mul	s7,a5,a2
    39dc:	e9c89317          	auipc	t1,0xe9c89
    39e0:	0a04                	addi	s1,sp,272
    39e2:	54f6a993          	slti	s3,a3,1359
    39e6:	00fed41b          	srliw	s0,t4,0xf
    39ea:	8ec9                	or	a3,a3,a0
    39ec:	00e1d23b          	srlw	tp,gp,a4
    39f0:	40675113          	srai	sp,a4,0x6
    39f4:	01a37233          	and	tp,t1,s10
    39f8:	6eed                	lui	t4,0x1b
    39fa:	039f7a3b          	remuw	s4,t5,s9
    39fe:	6eed                	lui	t4,0x1b
    3a00:	8d01                	sub	a0,a0,s0
    3a02:	40675113          	srai	sp,a4,0x6
    3a06:	016a92bb          	sllw	t0,s5,s6
    3a0a:	40865a1b          	sraiw	s4,a2,0x8
    3a0e:	090e                	slli	s2,s2,0x3
    3a10:	039f7a3b          	remuw	s4,t5,s9
    3a14:	8ef1                	and	a3,a3,a2
    3a16:	8d3d                	xor	a0,a0,a5
    3a18:	88d2                	mv	a7,s4
    3a1a:	54f6a993          	slti	s3,a3,1359
    3a1e:	02817933          	remu	s2,sp,s0
    3a22:	02e8b633          	mulhu	a2,a7,a4
    3a26:	02e8b633          	mulhu	a2,a7,a4
    3a2a:	016a92bb          	sllw	t0,s5,s6
    3a2e:	13ad0213          	addi	tp,s10,314 # 5d32813a <_end+0x5d30843a>
    3a32:	00e1d23b          	srlw	tp,gp,a4
    3a36:	9c8d                	subw	s1,s1,a1
    3a38:	02e189bb          	mulw	s3,gp,a4
    3a3c:	02e8b633          	mulhu	a2,a7,a4
    3a40:	033fd793          	srli	a5,t6,0x33
    3a44:	004e5ab3          	srl	s5,t3,tp
    3a48:	02c78bb3          	mul	s7,a5,a2
    3a4c:	037f9333          	mulh	t1,t6,s7
    3a50:	dfa53c93          	sltiu	s9,a0,-518
    3a54:	00f48133          	add	sp,s1,a5
    3a58:	8d3d                	xor	a0,a0,a5
    3a5a:	88d2                	mv	a7,s4
    3a5c:	02c78bb3          	mul	s7,a5,a2
    3a60:	01a37233          	and	tp,t1,s10
    3a64:	02e189bb          	mulw	s3,gp,a4
    3a68:	8439                	srai	s0,s0,0xe
    3a6a:	01a37233          	and	tp,t1,s10
    3a6e:	e0a1059b          	addiw	a1,sp,-502
    3a72:	00e1d23b          	srlw	tp,gp,a4
    3a76:	0001                	nop
    3a78:	961a                	add	a2,a2,t1
    3a7a:	00e1d23b          	srlw	tp,gp,a4
    3a7e:	02f24d3b          	divw	s10,tp,a5
    3a82:	00f48133          	add	sp,s1,a5
    3a86:	0313633b          	remw	t1,t1,a7
    3a8a:	039f7a3b          	remuw	s4,t5,s9
    3a8e:	9ead                	addw	a3,a3,a1
    3a90:	1f7d                	addi	t5,t5,-1
    3a92:	039f7a3b          	remuw	s4,t5,s9
    3a96:	016a92bb          	sllw	t0,s5,s6
    3a9a:	01a37233          	and	tp,t1,s10
    3a9e:	13ad0213          	addi	tp,s10,314
    3aa2:	51fd                	li	gp,-1
    3aa4:	00f31f9b          	slliw	t6,t1,0xf
    3aa8:	88d2                	mv	a7,s4
    3aaa:	016a92bb          	sllw	t0,s5,s6
    3aae:	41d98233          	sub	tp,s3,t4
    3ab2:	008643b3          	xor	t2,a2,s0
    3ab6:	961a                	add	a2,a2,t1
    3ab8:	8439                	srai	s0,s0,0xe
    3aba:	8ef1                	and	a3,a3,a2
    3abc:	dfa53c93          	sltiu	s9,a0,-518
    3ac0:	01320b3b          	addw	s6,tp,s3
    3ac4:	8d3d                	xor	a0,a0,a5
    3ac6:	1f7d                	addi	t5,t5,-1
    3ac8:	01f099b3          	sll	s3,ra,t6
    3acc:	51fd                	li	gp,-1
    3ace:	02e964b3          	rem	s1,s2,a4
    3ad2:	41d98233          	sub	tp,s3,t4
    3ad6:	01320b3b          	addw	s6,tp,s3
    3ada:	039f7a3b          	remuw	s4,t5,s9
    3ade:	40dad233          	sra	tp,s5,a3
    3ae2:	03509613          	slli	a2,ra,0x35
    3ae6:	02817933          	remu	s2,sp,s0
    3aea:	9abbcc93          	xori	s9,s7,-1621
    3aee:	41c7043b          	subw	s0,a4,t3
    3af2:	717d                	addi	sp,sp,-16
    3af4:	4048dcbb          	sraw	s9,a7,tp
    3af8:	41d98233          	sub	tp,s3,t4
    3afc:	13ad0213          	addi	tp,s10,314
    3b00:	808d                	srli	s1,s1,0x3
    3b02:	02e964b3          	rem	s1,s2,a4
    3b06:	01182a33          	slt	s4,a6,a7
    3b0a:	51fd                	li	gp,-1
    3b0c:	00f164b3          	or	s1,sp,a5
    3b10:	8ef1                	and	a3,a3,a2
    3b12:	808d                	srli	s1,s1,0x3
    3b14:	0001                	nop
    3b16:	8ec9                	or	a3,a3,a0
    3b18:	00f48133          	add	sp,s1,a5
    3b1c:	02f24d3b          	divw	s10,tp,a5
    3b20:	38057713          	andi	a4,a0,896
    3b24:	01a3ba33          	sltu	s4,t2,s10
    3b28:	9c8d                	subw	s1,s1,a1
    3b2a:	033fd793          	srli	a5,t6,0x33
    3b2e:	02e964b3          	rem	s1,s2,a4
    3b32:	dfa53c93          	sltiu	s9,a0,-518
    3b36:	40dad233          	sra	tp,s5,a3
    3b3a:	8439                	srai	s0,s0,0xe
    3b3c:	9abbcc93          	xori	s9,s7,-1621
    3b40:	00fed41b          	srliw	s0,t4,0xf
    3b44:	02c78bb3          	mul	s7,a5,a2
    3b48:	8439                	srai	s0,s0,0xe
    3b4a:	004e5ab3          	srl	s5,t3,tp
    3b4e:	808d                	srli	s1,s1,0x3
    3b50:	961a                	add	a2,a2,t1
    3b52:	41c7043b          	subw	s0,a4,t3
    3b56:	02dadfb3          	divu	t6,s5,a3
    3b5a:	03e0c033          	div	zero,ra,t5
    3b5e:	e9c89317          	auipc	t1,0xe9c89
    3b62:	317d                	addiw	sp,sp,-1
    3b64:	004e5ab3          	srl	s5,t3,tp
    3b68:	039f7a3b          	remuw	s4,t5,s9
    3b6c:	00f164b3          	or	s1,sp,a5
    3b70:	0a04                	addi	s1,sp,272
    3b72:	8d3d                	xor	a0,a0,a5
    3b74:	03509613          	slli	a2,ra,0x35
    3b78:	00f164b3          	or	s1,sp,a5
    3b7c:	40dad233          	sra	tp,s5,a3
    3b80:	e0a1059b          	addiw	a1,sp,-502
    3b84:	dfa53c93          	sltiu	s9,a0,-518
    3b88:	033fd793          	srli	a5,t6,0x33
    3b8c:	42686493          	ori	s1,a6,1062
    3b90:	9abbcc93          	xori	s9,s7,-1621
    3b94:	5d328737          	lui	a4,0x5d328
    3b98:	00f48133          	add	sp,s1,a5
    3b9c:	02dadfb3          	divu	t6,s5,a3
    3ba0:	8d3d                	xor	a0,a0,a5
    3ba2:	e0a1059b          	addiw	a1,sp,-502
    3ba6:	01320b3b          	addw	s6,tp,s3
    3baa:	029d29b3          	mulhsu	s3,s10,s1
    3bae:	8ec9                	or	a3,a3,a0
    3bb0:	02dadfb3          	divu	t6,s5,a3
    3bb4:	e0a1059b          	addiw	a1,sp,-502
    3bb8:	037f9333          	mulh	t1,t6,s7
    3bbc:	8ec9                	or	a3,a3,a0
    3bbe:	029d29b3          	mulhsu	s3,s10,s1
    3bc2:	41c7043b          	subw	s0,a4,t3
    3bc6:	dfa53c93          	sltiu	s9,a0,-518
    3bca:	02dadfb3          	divu	t6,s5,a3
    3bce:	8ef1                	and	a3,a3,a2
    3bd0:	03e0c033          	div	zero,ra,t5
    3bd4:	40865a1b          	sraiw	s4,a2,0x8
    3bd8:	717d                	addi	sp,sp,-16
    3bda:	717d                	addi	sp,sp,-16
    3bdc:	033fd793          	srli	a5,t6,0x33
    3be0:	38057713          	andi	a4,a0,896
    3be4:	0001                	nop
    3be6:	090e                	slli	s2,s2,0x3
    3be8:	0398d53b          	divuw	a0,a7,s9
    3bec:	039f7a3b          	remuw	s4,t5,s9
    3bf0:	02dadfb3          	divu	t6,s5,a3
    3bf4:	41c7043b          	subw	s0,a4,t3
    3bf8:	88d2                	mv	a7,s4
    3bfa:	9abbcc93          	xori	s9,s7,-1621
    3bfe:	9c8d                	subw	s1,s1,a1
    3c00:	38057713          	andi	a4,a0,896
    3c04:	808d                	srli	s1,s1,0x3
    3c06:	01a37233          	and	tp,t1,s10
    3c0a:	54f6a993          	slti	s3,a3,1359
    3c0e:	02e189bb          	mulw	s3,gp,a4
    3c12:	00f31f9b          	slliw	t6,t1,0xf
    3c16:	090e                	slli	s2,s2,0x3
    3c18:	02e964b3          	rem	s1,s2,a4
    3c1c:	0001                	nop
    3c1e:	9ead                	addw	a3,a3,a1
    3c20:	00f31f9b          	slliw	t6,t1,0xf
    3c24:	090e                	slli	s2,s2,0x3
    3c26:	88d2                	mv	a7,s4
    3c28:	88d2                	mv	a7,s4
    3c2a:	004e5ab3          	srl	s5,t3,tp
    3c2e:	090e                	slli	s2,s2,0x3
    3c30:	02c78bb3          	mul	s7,a5,a2
    3c34:	5d328737          	lui	a4,0x5d328
    3c38:	8d01                	sub	a0,a0,s0
    3c3a:	41c7043b          	subw	s0,a4,t3
    3c3e:	6eed                	lui	t4,0x1b
    3c40:	1f7d                	addi	t5,t5,-1
    3c42:	008643b3          	xor	t2,a2,s0
    3c46:	00f164b3          	or	s1,sp,a5
    3c4a:	1f7d                	addi	t5,t5,-1
    3c4c:	02e189bb          	mulw	s3,gp,a4
    3c50:	1f7d                	addi	t5,t5,-1
    3c52:	41c7043b          	subw	s0,a4,t3
    3c56:	01a37233          	and	tp,t1,s10
    3c5a:	987d                	andi	s0,s0,-1
    3c5c:	41c7043b          	subw	s0,a4,t3
    3c60:	0001                	nop
    3c62:	01a37233          	and	tp,t1,s10
    3c66:	00f31f9b          	slliw	t6,t1,0xf
    3c6a:	0313633b          	remw	t1,t1,a7
    3c6e:	4048dcbb          	sraw	s9,a7,tp
    3c72:	00f164b3          	or	s1,sp,a5
    3c76:	037f9333          	mulh	t1,t6,s7
    3c7a:	8ec9                	or	a3,a3,a0
    3c7c:	01182a33          	slt	s4,a6,a7
    3c80:	dfa53c93          	sltiu	s9,a0,-518
    3c84:	6eed                	lui	t4,0x1b
    3c86:	e0a1059b          	addiw	a1,sp,-502
    3c8a:	717d                	addi	sp,sp,-16
    3c8c:	5d328737          	lui	a4,0x5d328
    3c90:	717d                	addi	sp,sp,-16
    3c92:	40675113          	srai	sp,a4,0x6
    3c96:	02f24d3b          	divw	s10,tp,a5
    3c9a:	0001                	nop
    3c9c:	029d29b3          	mulhsu	s3,s10,s1
    3ca0:	02e964b3          	rem	s1,s2,a4
    3ca4:	0313633b          	remw	t1,t1,a7
    3ca8:	0001                	nop
    3caa:	4048dcbb          	sraw	s9,a7,tp
    3cae:	317d                	addiw	sp,sp,-1
    3cb0:	0001                	nop
    3cb2:	00f48133          	add	sp,s1,a5
    3cb6:	03e0c033          	div	zero,ra,t5
    3cba:	02817933          	remu	s2,sp,s0
    3cbe:	717d                	addi	sp,sp,-16
    3cc0:	01182a33          	slt	s4,a6,a7
    3cc4:	e9c89317          	auipc	t1,0xe9c89
    3cc8:	e9c89317          	auipc	t1,0xe9c89
    3ccc:	40865a1b          	sraiw	s4,a2,0x8
    3cd0:	02f24d3b          	divw	s10,tp,a5
    3cd4:	717d                	addi	sp,sp,-16
    3cd6:	02817933          	remu	s2,sp,s0
    3cda:	090e                	slli	s2,s2,0x3
    3cdc:	00f164b3          	or	s1,sp,a5
    3ce0:	8ec9                	or	a3,a3,a0
    3ce2:	e0a1059b          	addiw	a1,sp,-502
    3ce6:	00e1d23b          	srlw	tp,gp,a4
    3cea:	02e189bb          	mulw	s3,gp,a4
    3cee:	42686493          	ori	s1,a6,1062
    3cf2:	008643b3          	xor	t2,a2,s0
    3cf6:	0001                	nop
    3cf8:	4048dcbb          	sraw	s9,a7,tp
    3cfc:	004e5ab3          	srl	s5,t3,tp
    3d00:	01a3ba33          	sltu	s4,t2,s10
    3d04:	9ead                	addw	a3,a3,a1
    3d06:	029d29b3          	mulhsu	s3,s10,s1
    3d0a:	02817933          	remu	s2,sp,s0
    3d0e:	56fd                	li	a3,-1
    3d10:	fff00b1b          	addiw	s6,zero,-1
    3d14:	1b7e                	slli	s6,s6,0x3f
    3d16:	51fd                	li	gp,-1
    3d18:	fc066437          	lui	s0,0xfc066
    3d1c:	e974041b          	addiw	s0,s0,-361
    3d20:	0432                	slli	s0,s0,0xc
    3d22:	04d40413          	addi	s0,s0,77 # fffffffffc06604d <_end+0xfffffffffc04634d>
    3d26:	0436                	slli	s0,s0,0xd
    3d28:	64540413          	addi	s0,s0,1605
    3d2c:	0432                	slli	s0,s0,0xc
    3d2e:	1de40413          	addi	s0,s0,478
    3d32:	fff0089b          	addiw	a7,zero,-1
    3d36:	18fe                	slli	a7,a7,0x3f
    3d38:	4981                	li	s3,0
    3d3a:	4381                	li	t2,0
    3d3c:	fe0545b7          	lui	a1,0xfe054
    3d40:	bed5859b          	addiw	a1,a1,-1043
    3d44:	05b2                	slli	a1,a1,0xc
    3d46:	18958593          	addi	a1,a1,393 # fffffffffe054189 <_end+0xfffffffffe034489>
    3d4a:	05b2                	slli	a1,a1,0xc
    3d4c:	9c158593          	addi	a1,a1,-1599
    3d50:	05ba                	slli	a1,a1,0xe
    3d52:	a2d58593          	addi	a1,a1,-1491
    3d56:	fff0079b          	addiw	a5,zero,-1
    3d5a:	17fe                	slli	a5,a5,0x3f
    3d5c:	fff0021b          	addiw	tp,zero,-1
    3d60:	127e                	slli	tp,tp,0x3f
    3d62:	03645b3b          	divuw	s6,s0,s6
    3d66:	0001                	nop
    3d68:	5d328b37          	lui	s6,0x5d328
    3d6c:	e9c89217          	auipc	tp,0xe9c89
    3d70:	0001                	nop
    3d72:	0289eb33          	rem	s6,s3,s0
    3d76:	023211b3          	mulh	gp,tp,gp
    3d7a:	13a20893          	addi	a7,tp,314 # ffffffffe9c8cea6 <_end+0xffffffffe9c6d1a6>
    3d7e:	0361e3bb          	remw	t2,gp,s6
    3d82:	0361e3bb          	remw	t2,gp,s6
    3d86:	02d3f5b3          	remu	a1,t2,a3
    3d8a:	0001                	nop
    3d8c:	03144b33          	div	s6,s0,a7
    3d90:	03645b3b          	divuw	s6,s0,s6
    3d94:	02b988bb          	mulw	a7,s3,a1
    3d98:	41c7043b          	subw	s0,a4,t3
    3d9c:	004e5ab3          	srl	s5,t3,tp
    3da0:	8ec9                	or	a3,a3,a0
    3da2:	03e0c033          	div	zero,ra,t5
    3da6:	51fd                	li	gp,-1
    3da8:	40865a1b          	sraiw	s4,a2,0x8
    3dac:	02e8b633          	mulhu	a2,a7,a4
    3db0:	8ef1                	and	a3,a3,a2
    3db2:	808d                	srli	s1,s1,0x3
    3db4:	5d328737          	lui	a4,0x5d328
    3db8:	033fd793          	srli	a5,t6,0x33
    3dbc:	02dadfb3          	divu	t6,s5,a3
    3dc0:	01a3ba33          	sltu	s4,t2,s10
    3dc4:	38057713          	andi	a4,a0,896
    3dc8:	42686493          	ori	s1,a6,1062
    3dcc:	03e0c033          	div	zero,ra,t5
    3dd0:	38057713          	andi	a4,a0,896
    3dd4:	317d                	addiw	sp,sp,-1
    3dd6:	01320b3b          	addw	s6,tp,s3
    3dda:	02817933          	remu	s2,sp,s0
    3dde:	090e                	slli	s2,s2,0x3
    3de0:	717d                	addi	sp,sp,-16
    3de2:	54f6a993          	slti	s3,a3,1359
    3de6:	01a37233          	and	tp,t1,s10
    3dea:	004e5ab3          	srl	s5,t3,tp
    3dee:	e9c89317          	auipc	t1,0xe9c89
    3df2:	51fd                	li	gp,-1
    3df4:	51fd                	li	gp,-1
    3df6:	40675113          	srai	sp,a4,0x6
    3dfa:	9c8d                	subw	s1,s1,a1
    3dfc:	8439                	srai	s0,s0,0xe
    3dfe:	40dad233          	sra	tp,s5,a3
    3e02:	808d                	srli	s1,s1,0x3
    3e04:	8d3d                	xor	a0,a0,a5
    3e06:	03e0c033          	div	zero,ra,t5
    3e0a:	987d                	andi	s0,s0,-1
    3e0c:	6eed                	lui	t4,0x1b
    3e0e:	0a04                	addi	s1,sp,272
    3e10:	40675113          	srai	sp,a4,0x6
    3e14:	88d2                	mv	a7,s4
    3e16:	01182a33          	slt	s4,a6,a7
    3e1a:	03509613          	slli	a2,ra,0x35
    3e1e:	40865a1b          	sraiw	s4,a2,0x8
    3e22:	01a3ba33          	sltu	s4,t2,s10
    3e26:	987d                	andi	s0,s0,-1
    3e28:	01182a33          	slt	s4,a6,a7
    3e2c:	dfa53c93          	sltiu	s9,a0,-518
    3e30:	01f099b3          	sll	s3,ra,t6
    3e34:	9c8d                	subw	s1,s1,a1
    3e36:	00f48133          	add	sp,s1,a5
    3e3a:	00f31f9b          	slliw	t6,t1,0xf
    3e3e:	e0a1059b          	addiw	a1,sp,-502
    3e42:	40865a1b          	sraiw	s4,a2,0x8
    3e46:	01a3ba33          	sltu	s4,t2,s10
    3e4a:	e0a1059b          	addiw	a1,sp,-502
    3e4e:	02817933          	remu	s2,sp,s0
    3e52:	02dadfb3          	divu	t6,s5,a3
    3e56:	0001                	nop
    3e58:	88d2                	mv	a7,s4
    3e5a:	8d3d                	xor	a0,a0,a5
    3e5c:	41d98233          	sub	tp,s3,t4
    3e60:	03509613          	slli	a2,ra,0x35
    3e64:	02817933          	remu	s2,sp,s0
    3e68:	8d3d                	xor	a0,a0,a5
    3e6a:	02e189bb          	mulw	s3,gp,a4
    3e6e:	1f7d                	addi	t5,t5,-1
    3e70:	41d98233          	sub	tp,s3,t4
    3e74:	5d328737          	lui	a4,0x5d328
    3e78:	54f6a993          	slti	s3,a3,1359
    3e7c:	9ead                	addw	a3,a3,a1
    3e7e:	029d29b3          	mulhsu	s3,s10,s1
    3e82:	e9c89317          	auipc	t1,0xe9c89
    3e86:	8d3d                	xor	a0,a0,a5
    3e88:	41c7043b          	subw	s0,a4,t3
    3e8c:	02e964b3          	rem	s1,s2,a4
    3e90:	51fd                	li	gp,-1
    3e92:	004e5ab3          	srl	s5,t3,tp
    3e96:	e9c89317          	auipc	t1,0xe9c89
    3e9a:	01f099b3          	sll	s3,ra,t6
    3e9e:	808d                	srli	s1,s1,0x3
    3ea0:	037f9333          	mulh	t1,t6,s7
    3ea4:	e0a1059b          	addiw	a1,sp,-502
    3ea8:	717d                	addi	sp,sp,-16
    3eaa:	008643b3          	xor	t2,a2,s0
    3eae:	037f9333          	mulh	t1,t6,s7
    3eb2:	01a37233          	and	tp,t1,s10
    3eb6:	02e8b633          	mulhu	a2,a7,a4
    3eba:	808d                	srli	s1,s1,0x3
    3ebc:	dfa53c93          	sltiu	s9,a0,-518
    3ec0:	0001                	nop
    3ec2:	0313633b          	remw	t1,t1,a7
    3ec6:	039f7a3b          	remuw	s4,t5,s9
    3eca:	54f6a993          	slti	s3,a3,1359
    3ece:	808d                	srli	s1,s1,0x3
    3ed0:	808d                	srli	s1,s1,0x3
    3ed2:	039f7a3b          	remuw	s4,t5,s9
    3ed6:	02817933          	remu	s2,sp,s0
    3eda:	42686493          	ori	s1,a6,1062
    3ede:	317d                	addiw	sp,sp,-1
    3ee0:	40865a1b          	sraiw	s4,a2,0x8
    3ee4:	51fd                	li	gp,-1
    3ee6:	e9c89317          	auipc	t1,0xe9c89
    3eea:	02f24d3b          	divw	s10,tp,a5
    3eee:	0001                	nop
    3ef0:	00f31f9b          	slliw	t6,t1,0xf
    3ef4:	039f7a3b          	remuw	s4,t5,s9
    3ef8:	40675113          	srai	sp,a4,0x6
    3efc:	8ec9                	or	a3,a3,a0
    3efe:	88d2                	mv	a7,s4
    3f00:	00f48133          	add	sp,s1,a5
    3f04:	5d328737          	lui	a4,0x5d328
    3f08:	02e189bb          	mulw	s3,gp,a4
    3f0c:	9ead                	addw	a3,a3,a1
    3f0e:	00fed41b          	srliw	s0,t4,0xf
    3f12:	5d328737          	lui	a4,0x5d328
    3f16:	dfa53c93          	sltiu	s9,a0,-518
    3f1a:	03509613          	slli	a2,ra,0x35
    3f1e:	987d                	andi	s0,s0,-1
    3f20:	41c7043b          	subw	s0,a4,t3
    3f24:	0001                	nop
    3f26:	008643b3          	xor	t2,a2,s0
    3f2a:	01f099b3          	sll	s3,ra,t6
    3f2e:	808d                	srli	s1,s1,0x3
    3f30:	40865a1b          	sraiw	s4,a2,0x8
    3f34:	40675113          	srai	sp,a4,0x6
    3f38:	54f6a993          	slti	s3,a3,1359
    3f3c:	1f7d                	addi	t5,t5,-1
    3f3e:	0a04                	addi	s1,sp,272
    3f40:	41d98233          	sub	tp,s3,t4
    3f44:	016a92bb          	sllw	t0,s5,s6
    3f48:	38057713          	andi	a4,a0,896
    3f4c:	016a92bb          	sllw	t0,s5,s6
    3f50:	9abbcc93          	xori	s9,s7,-1621
    3f54:	0001                	nop
    3f56:	039f7a3b          	remuw	s4,t5,s9
    3f5a:	02e189bb          	mulw	s3,gp,a4
    3f5e:	961a                	add	a2,a2,t1
    3f60:	039f7a3b          	remuw	s4,t5,s9
    3f64:	00f31f9b          	slliw	t6,t1,0xf
    3f68:	0313633b          	remw	t1,t1,a7
    3f6c:	38057713          	andi	a4,a0,896
    3f70:	8d01                	sub	a0,a0,s0
    3f72:	717d                	addi	sp,sp,-16
    3f74:	02f24d3b          	divw	s10,tp,a5
    3f78:	00f31f9b          	slliw	t6,t1,0xf
    3f7c:	51fd                	li	gp,-1
    3f7e:	40dad233          	sra	tp,s5,a3
    3f82:	e0a1059b          	addiw	a1,sp,-502
    3f86:	5d328737          	lui	a4,0x5d328
    3f8a:	88d2                	mv	a7,s4
    3f8c:	5d328737          	lui	a4,0x5d328
    3f90:	717d                	addi	sp,sp,-16
    3f92:	4048dcbb          	sraw	s9,a7,tp
    3f96:	4048dcbb          	sraw	s9,a7,tp
    3f9a:	987d                	andi	s0,s0,-1
    3f9c:	029d29b3          	mulhsu	s3,s10,s1
    3fa0:	9ead                	addw	a3,a3,a1
    3fa2:	987d                	andi	s0,s0,-1
    3fa4:	9ead                	addw	a3,a3,a1
    3fa6:	0001                	nop
    3fa8:	00e1d23b          	srlw	tp,gp,a4
    3fac:	5d328737          	lui	a4,0x5d328
    3fb0:	88d2                	mv	a7,s4
    3fb2:	8ef1                	and	a3,a3,a2
    3fb4:	51fd                	li	gp,-1
    3fb6:	9c8d                	subw	s1,s1,a1
    3fb8:	51fd                	li	gp,-1
    3fba:	0001                	nop
    3fbc:	38057713          	andi	a4,a0,896
    3fc0:	808d                	srli	s1,s1,0x3
    3fc2:	0001                	nop
    3fc4:	033fd793          	srli	a5,t6,0x33
    3fc8:	51fd                	li	gp,-1
    3fca:	40675113          	srai	sp,a4,0x6
    3fce:	037f9333          	mulh	t1,t6,s7
    3fd2:	01a37233          	and	tp,t1,s10
    3fd6:	0313633b          	remw	t1,t1,a7
    3fda:	0001                	nop
    3fdc:	e9c89317          	auipc	t1,0xe9c89
    3fe0:	4048dcbb          	sraw	s9,a7,tp
    3fe4:	00e1d23b          	srlw	tp,gp,a4
    3fe8:	01a37233          	and	tp,t1,s10
    3fec:	e0a1059b          	addiw	a1,sp,-502
    3ff0:	0a04                	addi	s1,sp,272
    3ff2:	00fed41b          	srliw	s0,t4,0xf
    3ff6:	0001                	nop
    3ff8:	0001                	nop
    3ffa:	42686493          	ori	s1,a6,1062
    3ffe:	808d                	srli	s1,s1,0x3
    4000:	1f7d                	addi	t5,t5,-1
    4002:	42686493          	ori	s1,a6,1062
    4006:	039f7a3b          	remuw	s4,t5,s9
    400a:	40865a1b          	sraiw	s4,a2,0x8
    400e:	0001                	nop
    4010:	02e189bb          	mulw	s3,gp,a4
    4014:	00f31f9b          	slliw	t6,t1,0xf
    4018:	4048dcbb          	sraw	s9,a7,tp
    401c:	01a3ba33          	sltu	s4,t2,s10
    4020:	987d                	andi	s0,s0,-1
    4022:	039f7a3b          	remuw	s4,t5,s9
    4026:	0a04                	addi	s1,sp,272
    4028:	40865a1b          	sraiw	s4,a2,0x8
    402c:	03509613          	slli	a2,ra,0x35
    4030:	004e5ab3          	srl	s5,t3,tp
    4034:	090e                	slli	s2,s2,0x3
    4036:	033fd793          	srli	a5,t6,0x33
    403a:	039f7a3b          	remuw	s4,t5,s9
    403e:	5d328737          	lui	a4,0x5d328
    4042:	40dad233          	sra	tp,s5,a3
    4046:	01182a33          	slt	s4,a6,a7
    404a:	8ec9                	or	a3,a3,a0
    404c:	039f7a3b          	remuw	s4,t5,s9
    4050:	8ec9                	or	a3,a3,a0
    4052:	004e5ab3          	srl	s5,t3,tp
    4056:	01320b3b          	addw	s6,tp,s3
    405a:	808d                	srli	s1,s1,0x3
    405c:	9ead                	addw	a3,a3,a1
    405e:	02f24d3b          	divw	s10,tp,a5
    4062:	0001                	nop
    4064:	00fed41b          	srliw	s0,t4,0xf
    4068:	02f24d3b          	divw	s10,tp,a5
    406c:	9ead                	addw	a3,a3,a1
    406e:	987d                	andi	s0,s0,-1
    4070:	717d                	addi	sp,sp,-16
    4072:	037f9333          	mulh	t1,t6,s7
    4076:	808d                	srli	s1,s1,0x3
    4078:	13ad0213          	addi	tp,s10,314
    407c:	00f48133          	add	sp,s1,a5
    4080:	6eed                	lui	t4,0x1b
    4082:	004e5ab3          	srl	s5,t3,tp
    4086:	02817933          	remu	s2,sp,s0
    408a:	88d2                	mv	a7,s4
    408c:	40865a1b          	sraiw	s4,a2,0x8
    4090:	01a3ba33          	sltu	s4,t2,s10
    4094:	40865a1b          	sraiw	s4,a2,0x8
    4098:	00f48133          	add	sp,s1,a5
    409c:	317d                	addiw	sp,sp,-1
    409e:	e9c89317          	auipc	t1,0xe9c89
    40a2:	13ad0213          	addi	tp,s10,314
    40a6:	e9c89317          	auipc	t1,0xe9c89
    40aa:	dfa53c93          	sltiu	s9,a0,-518
    40ae:	004e5ab3          	srl	s5,t3,tp
    40b2:	00e1d23b          	srlw	tp,gp,a4
    40b6:	8439                	srai	s0,s0,0xe
    40b8:	51fd                	li	gp,-1
    40ba:	8ef1                	and	a3,a3,a2
    40bc:	02817933          	remu	s2,sp,s0
    40c0:	004e5ab3          	srl	s5,t3,tp
    40c4:	5d328737          	lui	a4,0x5d328
    40c8:	8d3d                	xor	a0,a0,a5
    40ca:	090e                	slli	s2,s2,0x3
    40cc:	8ec9                	or	a3,a3,a0
    40ce:	9c8d                	subw	s1,s1,a1
    40d0:	dfa53c93          	sltiu	s9,a0,-518
    40d4:	40dad233          	sra	tp,s5,a3
    40d8:	88d2                	mv	a7,s4
    40da:	54f6a993          	slti	s3,a3,1359
    40de:	41d98233          	sub	tp,s3,t4
    40e2:	090e                	slli	s2,s2,0x3
    40e4:	00f31f9b          	slliw	t6,t1,0xf
    40e8:	00fed41b          	srliw	s0,t4,0xf
    40ec:	1f7d                	addi	t5,t5,-1
    40ee:	02e964b3          	rem	s1,s2,a4
    40f2:	02817933          	remu	s2,sp,s0
    40f6:	0a04                	addi	s1,sp,272
    40f8:	03e0c033          	div	zero,ra,t5
    40fc:	4048dcbb          	sraw	s9,a7,tp
    4100:	41d98233          	sub	tp,s3,t4
    4104:	00f48133          	add	sp,s1,a5
    4108:	037f9333          	mulh	t1,t6,s7
    410c:	317d                	addiw	sp,sp,-1
    410e:	0313633b          	remw	t1,t1,a7
    4112:	00f48133          	add	sp,s1,a5
    4116:	1f7d                	addi	t5,t5,-1
    4118:	40865a1b          	sraiw	s4,a2,0x8
    411c:	008643b3          	xor	t2,a2,s0
    4120:	02e8b633          	mulhu	a2,a7,a4
    4124:	01f099b3          	sll	s3,ra,t6
    4128:	41d98233          	sub	tp,s3,t4
    412c:	01a37233          	and	tp,t1,s10
    4130:	88d2                	mv	a7,s4
    4132:	88d2                	mv	a7,s4
    4134:	00e1d23b          	srlw	tp,gp,a4
    4138:	42686493          	ori	s1,a6,1062
    413c:	00fed41b          	srliw	s0,t4,0xf
    4140:	00f164b3          	or	s1,sp,a5
    4144:	41c7043b          	subw	s0,a4,t3
    4148:	00f48133          	add	sp,s1,a5
    414c:	033fd793          	srli	a5,t6,0x33
    4150:	8d01                	sub	a0,a0,s0
    4152:	02f24d3b          	divw	s10,tp,a5
    4156:	808d                	srli	s1,s1,0x3
    4158:	0001                	nop
    415a:	090e                	slli	s2,s2,0x3
    415c:	dfa53c93          	sltiu	s9,a0,-518
    4160:	02dadfb3          	divu	t6,s5,a3
    4164:	01f099b3          	sll	s3,ra,t6
    4168:	54f6a993          	slti	s3,a3,1359
    416c:	41d98233          	sub	tp,s3,t4
    4170:	9c8d                	subw	s1,s1,a1
    4172:	03509613          	slli	a2,ra,0x35
    4176:	8ef1                	and	a3,a3,a2
    4178:	03509613          	slli	a2,ra,0x35
    417c:	717d                	addi	sp,sp,-16
    417e:	016a92bb          	sllw	t0,s5,s6
    4182:	808d                	srli	s1,s1,0x3
    4184:	8ef1                	and	a3,a3,a2
    4186:	033fd793          	srli	a5,t6,0x33
    418a:	037f9333          	mulh	t1,t6,s7
    418e:	004e5ab3          	srl	s5,t3,tp
    4192:	00f48133          	add	sp,s1,a5
    4196:	4048dcbb          	sraw	s9,a7,tp
    419a:	8439                	srai	s0,s0,0xe
    419c:	02dadfb3          	divu	t6,s5,a3
    41a0:	9c8d                	subw	s1,s1,a1
    41a2:	02e964b3          	rem	s1,s2,a4
    41a6:	0001                	nop
    41a8:	40675113          	srai	sp,a4,0x6
    41ac:	02817933          	remu	s2,sp,s0
    41b0:	40dad233          	sra	tp,s5,a3
    41b4:	0001                	nop
    41b6:	8ec9                	or	a3,a3,a0
    41b8:	40865a1b          	sraiw	s4,a2,0x8
    41bc:	00e1d23b          	srlw	tp,gp,a4
    41c0:	41c7043b          	subw	s0,a4,t3
    41c4:	e0a1059b          	addiw	a1,sp,-502
    41c8:	4048dcbb          	sraw	s9,a7,tp
    41cc:	090e                	slli	s2,s2,0x3
    41ce:	88d2                	mv	a7,s4
    41d0:	00f48133          	add	sp,s1,a5
    41d4:	51fd                	li	gp,-1
    41d6:	090e                	slli	s2,s2,0x3
    41d8:	03509613          	slli	a2,ra,0x35
    41dc:	51fd                	li	gp,-1
    41de:	e9c89317          	auipc	t1,0xe9c89
    41e2:	e9c89317          	auipc	t1,0xe9c89
    41e6:	0001                	nop
    41e8:	0398d53b          	divuw	a0,a7,s9
    41ec:	0001                	nop
    41ee:	02e964b3          	rem	s1,s2,a4
    41f2:	717d                	addi	sp,sp,-16
    41f4:	1f7d                	addi	t5,t5,-1
    41f6:	0313633b          	remw	t1,t1,a7
    41fa:	6eed                	lui	t4,0x1b
    41fc:	dfa53c93          	sltiu	s9,a0,-518
    4200:	9ead                	addw	a3,a3,a1
    4202:	01f099b3          	sll	s3,ra,t6
    4206:	02dadfb3          	divu	t6,s5,a3
    420a:	8d01                	sub	a0,a0,s0
    420c:	016a92bb          	sllw	t0,s5,s6
    4210:	008643b3          	xor	t2,a2,s0
    4214:	961a                	add	a2,a2,t1
    4216:	016a92bb          	sllw	t0,s5,s6
    421a:	8d01                	sub	a0,a0,s0
    421c:	0001                	nop
    421e:	6eed                	lui	t4,0x1b
    4220:	38057713          	andi	a4,a0,896
    4224:	8439                	srai	s0,s0,0xe
    4226:	4048dcbb          	sraw	s9,a7,tp
    422a:	0313633b          	remw	t1,t1,a7
    422e:	41c7043b          	subw	s0,a4,t3
    4232:	40675113          	srai	sp,a4,0x6
    4236:	090e                	slli	s2,s2,0x3
    4238:	029d29b3          	mulhsu	s3,s10,s1
    423c:	02e964b3          	rem	s1,s2,a4
    4240:	01f099b3          	sll	s3,ra,t6
    4244:	41c7043b          	subw	s0,a4,t3
    4248:	01a3ba33          	sltu	s4,t2,s10
    424c:	004e5ab3          	srl	s5,t3,tp
    4250:	00f31f9b          	slliw	t6,t1,0xf
    4254:	0a04                	addi	s1,sp,272
    4256:	6eed                	lui	t4,0x1b
    4258:	029d29b3          	mulhsu	s3,s10,s1
    425c:	00f48133          	add	sp,s1,a5
    4260:	40dad233          	sra	tp,s5,a3
    4264:	8d3d                	xor	a0,a0,a5
    4266:	40675113          	srai	sp,a4,0x6
    426a:	02c78bb3          	mul	s7,a5,a2
    426e:	e9c89317          	auipc	t1,0xe9c89
    4272:	02e8b633          	mulhu	a2,a7,a4
    4276:	40dad233          	sra	tp,s5,a3
    427a:	42686493          	ori	s1,a6,1062
    427e:	00f164b3          	or	s1,sp,a5
    4282:	9c8d                	subw	s1,s1,a1
    4284:	02e189bb          	mulw	s3,gp,a4
    4288:	e0a1059b          	addiw	a1,sp,-502
    428c:	00e1d23b          	srlw	tp,gp,a4
    4290:	13ad0213          	addi	tp,s10,314
    4294:	41c7043b          	subw	s0,a4,t3
    4298:	38057713          	andi	a4,a0,896
    429c:	00f31f9b          	slliw	t6,t1,0xf
    42a0:	987d                	andi	s0,s0,-1
    42a2:	01a37233          	and	tp,t1,s10
    42a6:	008643b3          	xor	t2,a2,s0
    42aa:	00f48133          	add	sp,s1,a5
    42ae:	42686493          	ori	s1,a6,1062
    42b2:	03e0c033          	div	zero,ra,t5
    42b6:	00f164b3          	or	s1,sp,a5
    42ba:	40dad233          	sra	tp,s5,a3
    42be:	0398d53b          	divuw	a0,a7,s9
    42c2:	037f9333          	mulh	t1,t6,s7
    42c6:	6eed                	lui	t4,0x1b
    42c8:	88d2                	mv	a7,s4
    42ca:	0001                	nop
    42cc:	88d2                	mv	a7,s4
    42ce:	9c8d                	subw	s1,s1,a1
    42d0:	016a92bb          	sllw	t0,s5,s6
    42d4:	e0a1059b          	addiw	a1,sp,-502
    42d8:	41c7043b          	subw	s0,a4,t3
    42dc:	9c8d                	subw	s1,s1,a1
    42de:	02e189bb          	mulw	s3,gp,a4
    42e2:	dfa53c93          	sltiu	s9,a0,-518
    42e6:	00fed41b          	srliw	s0,t4,0xf
    42ea:	6eed                	lui	t4,0x1b
    42ec:	6eed                	lui	t4,0x1b
    42ee:	008643b3          	xor	t2,a2,s0
    42f2:	9ead                	addw	a3,a3,a1
    42f4:	00e1d23b          	srlw	tp,gp,a4
    42f8:	9abbcc93          	xori	s9,s7,-1621
    42fc:	6eed                	lui	t4,0x1b
    42fe:	dfa53c93          	sltiu	s9,a0,-518
    4302:	033fd793          	srli	a5,t6,0x33
    4306:	40dad233          	sra	tp,s5,a3
    430a:	dfa53c93          	sltiu	s9,a0,-518
    430e:	88d2                	mv	a7,s4
    4310:	00f48133          	add	sp,s1,a5
    4314:	8ec9                	or	a3,a3,a0
    4316:	00e1d23b          	srlw	tp,gp,a4
    431a:	033fd793          	srli	a5,t6,0x33
    431e:	6eed                	lui	t4,0x1b
    4320:	54f6a993          	slti	s3,a3,1359
    4324:	037f9333          	mulh	t1,t6,s7
    4328:	961a                	add	a2,a2,t1
    432a:	0001                	nop
    432c:	40865a1b          	sraiw	s4,a2,0x8
    4330:	004e5ab3          	srl	s5,t3,tp
    4334:	88d2                	mv	a7,s4
    4336:	1f7d                	addi	t5,t5,-1
    4338:	38057713          	andi	a4,a0,896
    433c:	090e                	slli	s2,s2,0x3
    433e:	0001                	nop
    4340:	717d                	addi	sp,sp,-16
    4342:	9abbcc93          	xori	s9,s7,-1621
    4346:	9ead                	addw	a3,a3,a1
    4348:	01a37233          	and	tp,t1,s10
    434c:	00f48133          	add	sp,s1,a5
    4350:	02c78bb3          	mul	s7,a5,a2
    4354:	51fd                	li	gp,-1
    4356:	4048dcbb          	sraw	s9,a7,tp
    435a:	4048dcbb          	sraw	s9,a7,tp
    435e:	0001                	nop
    4360:	02e964b3          	rem	s1,s2,a4
    4364:	00f31f9b          	slliw	t6,t1,0xf
    4368:	02e964b3          	rem	s1,s2,a4
    436c:	090e                	slli	s2,s2,0x3
    436e:	02e8b633          	mulhu	a2,a7,a4
    4372:	016a92bb          	sllw	t0,s5,s6
    4376:	033fd793          	srli	a5,t6,0x33
    437a:	090e                	slli	s2,s2,0x3
    437c:	004e5ab3          	srl	s5,t3,tp
    4380:	02e964b3          	rem	s1,s2,a4
    4384:	01f099b3          	sll	s3,ra,t6
    4388:	5d328737          	lui	a4,0x5d328
    438c:	8439                	srai	s0,s0,0xe
    438e:	090e                	slli	s2,s2,0x3
    4390:	40dad233          	sra	tp,s5,a3
    4394:	40675113          	srai	sp,a4,0x6
    4398:	039f7a3b          	remuw	s4,t5,s9
    439c:	0398d53b          	divuw	a0,a7,s9
    43a0:	02f24d3b          	divw	s10,tp,a5
    43a4:	090e                	slli	s2,s2,0x3
    43a6:	01320b3b          	addw	s6,tp,s3
    43aa:	e0a1059b          	addiw	a1,sp,-502
    43ae:	717d                	addi	sp,sp,-16
    43b0:	029d29b3          	mulhsu	s3,s10,s1
    43b4:	02e964b3          	rem	s1,s2,a4
    43b8:	02f24d3b          	divw	s10,tp,a5
    43bc:	029d29b3          	mulhsu	s3,s10,s1
    43c0:	40675113          	srai	sp,a4,0x6
    43c4:	0001                	nop
    43c6:	008643b3          	xor	t2,a2,s0
    43ca:	808d                	srli	s1,s1,0x3
    43cc:	8d3d                	xor	a0,a0,a5
    43ce:	8439                	srai	s0,s0,0xe
    43d0:	40865a1b          	sraiw	s4,a2,0x8
    43d4:	88d2                	mv	a7,s4
    43d6:	88d2                	mv	a7,s4
    43d8:	9abbcc93          	xori	s9,s7,-1621
    43dc:	03e0c033          	div	zero,ra,t5
    43e0:	8d01                	sub	a0,a0,s0
    43e2:	037f9333          	mulh	t1,t6,s7
    43e6:	016a92bb          	sllw	t0,s5,s6
    43ea:	0001                	nop
    43ec:	961a                	add	a2,a2,t1
    43ee:	40865a1b          	sraiw	s4,a2,0x8
    43f2:	961a                	add	a2,a2,t1
    43f4:	01f099b3          	sll	s3,ra,t6
    43f8:	8439                	srai	s0,s0,0xe
    43fa:	e0a1059b          	addiw	a1,sp,-502
    43fe:	41d98233          	sub	tp,s3,t4
    4402:	e9c89317          	auipc	t1,0xe9c89
    4406:	01a3ba33          	sltu	s4,t2,s10
    440a:	0398d53b          	divuw	a0,a7,s9
    440e:	00e1d23b          	srlw	tp,gp,a4
    4412:	8439                	srai	s0,s0,0xe
    4414:	02c78bb3          	mul	s7,a5,a2
    4418:	0001                	nop
    441a:	41c7043b          	subw	s0,a4,t3
    441e:	004e5ab3          	srl	s5,t3,tp
    4422:	02f24d3b          	divw	s10,tp,a5
    4426:	987d                	andi	s0,s0,-1
    4428:	9c8d                	subw	s1,s1,a1
    442a:	01a37233          	and	tp,t1,s10
    442e:	00f164b3          	or	s1,sp,a5
    4432:	51fd                	li	gp,-1
    4434:	717d                	addi	sp,sp,-16
    4436:	00e1d23b          	srlw	tp,gp,a4
    443a:	029d29b3          	mulhsu	s3,s10,s1
    443e:	e0a1059b          	addiw	a1,sp,-502
    4442:	0001                	nop
    4444:	e0a1059b          	addiw	a1,sp,-502
    4448:	00f164b3          	or	s1,sp,a5
    444c:	02dadfb3          	divu	t6,s5,a3
    4450:	03509613          	slli	a2,ra,0x35
    4454:	40865a1b          	sraiw	s4,a2,0x8
    4458:	808d                	srli	s1,s1,0x3
    445a:	0001                	nop
    445c:	02dadfb3          	divu	t6,s5,a3
    4460:	41d98233          	sub	tp,s3,t4
    4464:	9abbcc93          	xori	s9,s7,-1621
    4468:	9ead                	addw	a3,a3,a1
    446a:	033fd793          	srli	a5,t6,0x33
    446e:	00f31f9b          	slliw	t6,t1,0xf
    4472:	0001                	nop
    4474:	9c8d                	subw	s1,s1,a1
    4476:	88d2                	mv	a7,s4
    4478:	00f164b3          	or	s1,sp,a5
    447c:	03e0c033          	div	zero,ra,t5
    4480:	0001                	nop
    4482:	38057713          	andi	a4,a0,896
    4486:	9ead                	addw	a3,a3,a1
    4488:	13ad0213          	addi	tp,s10,314
    448c:	03509613          	slli	a2,ra,0x35
    4490:	0001                	nop
    4492:	03e0c033          	div	zero,ra,t5
    4496:	9c8d                	subw	s1,s1,a1
    4498:	51fd                	li	gp,-1
    449a:	0001                	nop
    449c:	02c78bb3          	mul	s7,a5,a2
    44a0:	00e1d23b          	srlw	tp,gp,a4
    44a4:	dfa53c93          	sltiu	s9,a0,-518
    44a8:	dfa53c93          	sltiu	s9,a0,-518
    44ac:	961a                	add	a2,a2,t1
    44ae:	808d                	srli	s1,s1,0x3
    44b0:	e0a1059b          	addiw	a1,sp,-502
    44b4:	41d98233          	sub	tp,s3,t4
    44b8:	88d2                	mv	a7,s4
    44ba:	808d                	srli	s1,s1,0x3
    44bc:	40865a1b          	sraiw	s4,a2,0x8
    44c0:	033fd793          	srli	a5,t6,0x33
    44c4:	40865a1b          	sraiw	s4,a2,0x8
    44c8:	02e964b3          	rem	s1,s2,a4
    44cc:	008643b3          	xor	t2,a2,s0
    44d0:	02c78bb3          	mul	s7,a5,a2
    44d4:	40865a1b          	sraiw	s4,a2,0x8
    44d8:	02e189bb          	mulw	s3,gp,a4
    44dc:	00f31f9b          	slliw	t6,t1,0xf
    44e0:	0001                	nop
    44e2:	0a04                	addi	s1,sp,272
    44e4:	02e964b3          	rem	s1,s2,a4
    44e8:	00f164b3          	or	s1,sp,a5
    44ec:	9abbcc93          	xori	s9,s7,-1621
    44f0:	8d01                	sub	a0,a0,s0
    44f2:	02e8b633          	mulhu	a2,a7,a4
    44f6:	0313633b          	remw	t1,t1,a7
    44fa:	00f31f9b          	slliw	t6,t1,0xf
    44fe:	e0a1059b          	addiw	a1,sp,-502
    4502:	039f7a3b          	remuw	s4,t5,s9
    4506:	40675113          	srai	sp,a4,0x6
    450a:	987d                	andi	s0,s0,-1
    450c:	0001                	nop
    450e:	6eed                	lui	t4,0x1b
    4510:	01f099b3          	sll	s3,ra,t6
    4514:	03509613          	slli	a2,ra,0x35
    4518:	033fd793          	srli	a5,t6,0x33
    451c:	0001                	nop
    451e:	00f164b3          	or	s1,sp,a5
    4522:	717d                	addi	sp,sp,-16
    4524:	0313633b          	remw	t1,t1,a7
    4528:	41d98233          	sub	tp,s3,t4
    452c:	0313633b          	remw	t1,t1,a7
    4530:	00fed41b          	srliw	s0,t4,0xf
    4534:	51fd                	li	gp,-1
    4536:	9ead                	addw	a3,a3,a1
    4538:	01a37233          	and	tp,t1,s10
    453c:	008643b3          	xor	t2,a2,s0
    4540:	0398d53b          	divuw	a0,a7,s9
    4544:	8d01                	sub	a0,a0,s0
    4546:	961a                	add	a2,a2,t1
    4548:	8ec9                	or	a3,a3,a0
    454a:	039f7a3b          	remuw	s4,t5,s9
    454e:	004e5ab3          	srl	s5,t3,tp
    4552:	88d2                	mv	a7,s4
    4554:	40865a1b          	sraiw	s4,a2,0x8
    4558:	54f6a993          	slti	s3,a3,1359
    455c:	03e0c033          	div	zero,ra,t5
    4560:	039f7a3b          	remuw	s4,t5,s9
    4564:	88d2                	mv	a7,s4
    4566:	02dadfb3          	divu	t6,s5,a3
    456a:	38057713          	andi	a4,a0,896
    456e:	01182a33          	slt	s4,a6,a7
    4572:	01182a33          	slt	s4,a6,a7
    4576:	0a04                	addi	s1,sp,272
    4578:	02f24d3b          	divw	s10,tp,a5
    457c:	8ef1                	and	a3,a3,a2
    457e:	0313633b          	remw	t1,t1,a7
    4582:	1f7d                	addi	t5,t5,-1
    4584:	01a37233          	and	tp,t1,s10
    4588:	02f24d3b          	divw	s10,tp,a5
    458c:	717d                	addi	sp,sp,-16
    458e:	9c8d                	subw	s1,s1,a1
    4590:	016a92bb          	sllw	t0,s5,s6
    4594:	dfa53c93          	sltiu	s9,a0,-518
    4598:	02c78bb3          	mul	s7,a5,a2
    459c:	8ef1                	and	a3,a3,a2
    459e:	02dadfb3          	divu	t6,s5,a3
    45a2:	03509613          	slli	a2,ra,0x35
    45a6:	00e1d23b          	srlw	tp,gp,a4
    45aa:	41d98233          	sub	tp,s3,t4
    45ae:	033fd793          	srli	a5,t6,0x33
    45b2:	6eed                	lui	t4,0x1b
    45b4:	987d                	andi	s0,s0,-1
    45b6:	9abbcc93          	xori	s9,s7,-1621
    45ba:	8ef1                	and	a3,a3,a2
    45bc:	03e0c033          	div	zero,ra,t5
    45c0:	02817933          	remu	s2,sp,s0
    45c4:	88d2                	mv	a7,s4
    45c6:	01182a33          	slt	s4,a6,a7
    45ca:	4048dcbb          	sraw	s9,a7,tp
    45ce:	961a                	add	a2,a2,t1
    45d0:	00e1d23b          	srlw	tp,gp,a4
    45d4:	090e                	slli	s2,s2,0x3
    45d6:	0a04                	addi	s1,sp,272
    45d8:	808d                	srli	s1,s1,0x3
    45da:	8ec9                	or	a3,a3,a0
    45dc:	e9c89317          	auipc	t1,0xe9c89
    45e0:	9c8d                	subw	s1,s1,a1
    45e2:	00f31f9b          	slliw	t6,t1,0xf
    45e6:	1f7d                	addi	t5,t5,-1
    45e8:	02817933          	remu	s2,sp,s0
    45ec:	01320b3b          	addw	s6,tp,s3
    45f0:	8ec9                	or	a3,a3,a0
    45f2:	039f7a3b          	remuw	s4,t5,s9
    45f6:	029d29b3          	mulhsu	s3,s10,s1
    45fa:	1f7d                	addi	t5,t5,-1
    45fc:	41d98233          	sub	tp,s3,t4
    4600:	00e1d23b          	srlw	tp,gp,a4
    4604:	01a3ba33          	sltu	s4,t2,s10
    4608:	037f9333          	mulh	t1,t6,s7
    460c:	8ef1                	and	a3,a3,a2
    460e:	88d2                	mv	a7,s4
    4610:	40865a1b          	sraiw	s4,a2,0x8
    4614:	00f31f9b          	slliw	t6,t1,0xf
    4618:	e9c89317          	auipc	t1,0xe9c89
    461c:	039f7a3b          	remuw	s4,t5,s9
    4620:	717d                	addi	sp,sp,-16
    4622:	00f31f9b          	slliw	t6,t1,0xf
    4626:	029d29b3          	mulhsu	s3,s10,s1
    462a:	40675113          	srai	sp,a4,0x6
    462e:	9c8d                	subw	s1,s1,a1
    4630:	51fd                	li	gp,-1
    4632:	0001                	nop
    4634:	8ec9                	or	a3,a3,a0
    4636:	03e0c033          	div	zero,ra,t5
    463a:	dfa53c93          	sltiu	s9,a0,-518
    463e:	4048dcbb          	sraw	s9,a7,tp
    4642:	01a37233          	and	tp,t1,s10
    4646:	51fd                	li	gp,-1
    4648:	1f7d                	addi	t5,t5,-1
    464a:	02e964b3          	rem	s1,s2,a4
    464e:	00f31f9b          	slliw	t6,t1,0xf
    4652:	88d2                	mv	a7,s4
    4654:	4048dcbb          	sraw	s9,a7,tp
    4658:	40865a1b          	sraiw	s4,a2,0x8
    465c:	01182a33          	slt	s4,a6,a7
    4660:	01320b3b          	addw	s6,tp,s3
    4664:	0a04                	addi	s1,sp,272
    4666:	6eed                	lui	t4,0x1b
    4668:	02817933          	remu	s2,sp,s0
    466c:	00e1d23b          	srlw	tp,gp,a4
    4670:	01f099b3          	sll	s3,ra,t6
    4674:	9abbcc93          	xori	s9,s7,-1621
    4678:	9c8d                	subw	s1,s1,a1
    467a:	6eed                	lui	t4,0x1b
    467c:	016a92bb          	sllw	t0,s5,s6
    4680:	8d01                	sub	a0,a0,s0
    4682:	00f164b3          	or	s1,sp,a5
    4686:	42686493          	ori	s1,a6,1062
    468a:	8ef1                	and	a3,a3,a2
    468c:	039f7a3b          	remuw	s4,t5,s9
    4690:	00fed41b          	srliw	s0,t4,0xf
    4694:	00f48133          	add	sp,s1,a5
    4698:	8ef1                	and	a3,a3,a2
    469a:	039f7a3b          	remuw	s4,t5,s9
    469e:	0001                	nop
    46a0:	dfa53c93          	sltiu	s9,a0,-518
    46a4:	e9c89317          	auipc	t1,0xe9c89
    46a8:	01320b3b          	addw	s6,tp,s3
    46ac:	0a04                	addi	s1,sp,272
    46ae:	808d                	srli	s1,s1,0x3
    46b0:	717d                	addi	sp,sp,-16
    46b2:	004e5ab3          	srl	s5,t3,tp
    46b6:	13ad0213          	addi	tp,s10,314
    46ba:	8439                	srai	s0,s0,0xe
    46bc:	0398d53b          	divuw	a0,a7,s9
    46c0:	987d                	andi	s0,s0,-1
    46c2:	8439                	srai	s0,s0,0xe
    46c4:	02e8b633          	mulhu	a2,a7,a4
    46c8:	033fd793          	srli	a5,t6,0x33
    46cc:	01182a33          	slt	s4,a6,a7
    46d0:	8ec9                	or	a3,a3,a0
    46d2:	0313633b          	remw	t1,t1,a7
    46d6:	8439                	srai	s0,s0,0xe
    46d8:	02c78bb3          	mul	s7,a5,a2
    46dc:	717d                	addi	sp,sp,-16
    46de:	808d                	srli	s1,s1,0x3
    46e0:	54f6a993          	slti	s3,a3,1359
    46e4:	317d                	addiw	sp,sp,-1
    46e6:	987d                	andi	s0,s0,-1
    46e8:	40dad233          	sra	tp,s5,a3
    46ec:	033fd793          	srli	a5,t6,0x33
    46f0:	e0a1059b          	addiw	a1,sp,-502
    46f4:	40675113          	srai	sp,a4,0x6
    46f8:	13ad0213          	addi	tp,s10,314
    46fc:	13ad0213          	addi	tp,s10,314
    4700:	1f7d                	addi	t5,t5,-1
    4702:	987d                	andi	s0,s0,-1
    4704:	0313633b          	remw	t1,t1,a7
    4708:	0a04                	addi	s1,sp,272
    470a:	54f6a993          	slti	s3,a3,1359
    470e:	4048dcbb          	sraw	s9,a7,tp
    4712:	1f7d                	addi	t5,t5,-1
    4714:	dfa53c93          	sltiu	s9,a0,-518
    4718:	961a                	add	a2,a2,t1
    471a:	8439                	srai	s0,s0,0xe
    471c:	6eed                	lui	t4,0x1b
    471e:	717d                	addi	sp,sp,-16
    4720:	42686493          	ori	s1,a6,1062
    4724:	029d29b3          	mulhsu	s3,s10,s1
    4728:	02e964b3          	rem	s1,s2,a4
    472c:	40675113          	srai	sp,a4,0x6
    4730:	54f6a993          	slti	s3,a3,1359
    4734:	961a                	add	a2,a2,t1
    4736:	88d2                	mv	a7,s4
    4738:	01182a33          	slt	s4,a6,a7
    473c:	8439                	srai	s0,s0,0xe
    473e:	02f24d3b          	divw	s10,tp,a5
    4742:	029d29b3          	mulhsu	s3,s10,s1
    4746:	0a04                	addi	s1,sp,272
    4748:	01f099b3          	sll	s3,ra,t6
    474c:	9ead                	addw	a3,a3,a1
    474e:	40dad233          	sra	tp,s5,a3
    4752:	02f24d3b          	divw	s10,tp,a5
    4756:	40675113          	srai	sp,a4,0x6
    475a:	54f6a993          	slti	s3,a3,1359
    475e:	41d98233          	sub	tp,s3,t4
    4762:	9c8d                	subw	s1,s1,a1
    4764:	1f7d                	addi	t5,t5,-1
    4766:	029d29b3          	mulhsu	s3,s10,s1
    476a:	961a                	add	a2,a2,t1
    476c:	01f099b3          	sll	s3,ra,t6
    4770:	01182a33          	slt	s4,a6,a7
    4774:	9abbcc93          	xori	s9,s7,-1621
    4778:	02e189bb          	mulw	s3,gp,a4
    477c:	0001                	nop
    477e:	8d3d                	xor	a0,a0,a5
    4780:	40675113          	srai	sp,a4,0x6
    4784:	51fd                	li	gp,-1
    4786:	0001                	nop
    4788:	039f7a3b          	remuw	s4,t5,s9
    478c:	01320b3b          	addw	s6,tp,s3
    4790:	037f9333          	mulh	t1,t6,s7
    4794:	9ead                	addw	a3,a3,a1
    4796:	016a92bb          	sllw	t0,s5,s6
    479a:	8d3d                	xor	a0,a0,a5
    479c:	00f48133          	add	sp,s1,a5
    47a0:	02e189bb          	mulw	s3,gp,a4
    47a4:	40675113          	srai	sp,a4,0x6
    47a8:	02e8b633          	mulhu	a2,a7,a4
    47ac:	38057713          	andi	a4,a0,896
    47b0:	090e                	slli	s2,s2,0x3
    47b2:	41d98233          	sub	tp,s3,t4
    47b6:	0a04                	addi	s1,sp,272
    47b8:	02817933          	remu	s2,sp,s0
    47bc:	02817933          	remu	s2,sp,s0
    47c0:	717d                	addi	sp,sp,-16
    47c2:	dfa53c93          	sltiu	s9,a0,-518
    47c6:	033fd793          	srli	a5,t6,0x33
    47ca:	0398d53b          	divuw	a0,a7,s9
    47ce:	00e1d23b          	srlw	tp,gp,a4
    47d2:	02c78bb3          	mul	s7,a5,a2
    47d6:	016a92bb          	sllw	t0,s5,s6
    47da:	38057713          	andi	a4,a0,896
    47de:	e9c89317          	auipc	t1,0xe9c89
    47e2:	039f7a3b          	remuw	s4,t5,s9
    47e6:	02dadfb3          	divu	t6,s5,a3
    47ea:	03509613          	slli	a2,ra,0x35
    47ee:	02c78bb3          	mul	s7,a5,a2
    47f2:	8ec9                	or	a3,a3,a0
    47f4:	9ead                	addw	a3,a3,a1
    47f6:	008643b3          	xor	t2,a2,s0
    47fa:	8d01                	sub	a0,a0,s0
    47fc:	8ec9                	or	a3,a3,a0
    47fe:	9ead                	addw	a3,a3,a1
    4800:	0001                	nop
    4802:	090e                	slli	s2,s2,0x3
    4804:	8d01                	sub	a0,a0,s0
    4806:	dfa53c93          	sltiu	s9,a0,-518
    480a:	9abbcc93          	xori	s9,s7,-1621
    480e:	02817933          	remu	s2,sp,s0
    4812:	0398d53b          	divuw	a0,a7,s9
    4816:	00e1d23b          	srlw	tp,gp,a4
    481a:	01182a33          	slt	s4,a6,a7
    481e:	004e5ab3          	srl	s5,t3,tp
    4822:	0313633b          	remw	t1,t1,a7
    4826:	0001                	nop
    4828:	033fd793          	srli	a5,t6,0x33
    482c:	dfa53c93          	sltiu	s9,a0,-518
    4830:	808d                	srli	s1,s1,0x3
    4832:	40675113          	srai	sp,a4,0x6
    4836:	717d                	addi	sp,sp,-16
    4838:	8ec9                	or	a3,a3,a0
    483a:	8ec9                	or	a3,a3,a0
    483c:	02e189bb          	mulw	s3,gp,a4
    4840:	01a3ba33          	sltu	s4,t2,s10
    4844:	02e964b3          	rem	s1,s2,a4
    4848:	039f7a3b          	remuw	s4,t5,s9
    484c:	004e5ab3          	srl	s5,t3,tp
    4850:	01a3ba33          	sltu	s4,t2,s10
    4854:	1f7d                	addi	t5,t5,-1
    4856:	8ec9                	or	a3,a3,a0
    4858:	88d2                	mv	a7,s4
    485a:	00e1d23b          	srlw	tp,gp,a4
    485e:	00f164b3          	or	s1,sp,a5
    4862:	01320b3b          	addw	s6,tp,s3
    4866:	00f48133          	add	sp,s1,a5
    486a:	38057713          	andi	a4,a0,896
    486e:	42686493          	ori	s1,a6,1062
    4872:	00f31f9b          	slliw	t6,t1,0xf
    4876:	02c78bb3          	mul	s7,a5,a2
    487a:	40dad233          	sra	tp,s5,a3
    487e:	40675113          	srai	sp,a4,0x6
    4882:	8ec9                	or	a3,a3,a0
    4884:	40675113          	srai	sp,a4,0x6
    4888:	54f6a993          	slti	s3,a3,1359
    488c:	01a3ba33          	sltu	s4,t2,s10
    4890:	6eed                	lui	t4,0x1b
    4892:	961a                	add	a2,a2,t1
    4894:	029d29b3          	mulhsu	s3,s10,s1
    4898:	6eed                	lui	t4,0x1b
    489a:	9abbcc93          	xori	s9,s7,-1621
    489e:	01182a33          	slt	s4,a6,a7
    48a2:	13ad0213          	addi	tp,s10,314
    48a6:	02e189bb          	mulw	s3,gp,a4
    48aa:	5d328737          	lui	a4,0x5d328
    48ae:	00f48133          	add	sp,s1,a5
    48b2:	961a                	add	a2,a2,t1
    48b4:	00fed41b          	srliw	s0,t4,0xf
    48b8:	8ec9                	or	a3,a3,a0
    48ba:	01f099b3          	sll	s3,ra,t6
    48be:	9ead                	addw	a3,a3,a1
    48c0:	02c78bb3          	mul	s7,a5,a2
    48c4:	808d                	srli	s1,s1,0x3
    48c6:	03509613          	slli	a2,ra,0x35
    48ca:	42686493          	ori	s1,a6,1062
    48ce:	961a                	add	a2,a2,t1
    48d0:	51fd                	li	gp,-1
    48d2:	01320b3b          	addw	s6,tp,s3
    48d6:	03e0c033          	div	zero,ra,t5
    48da:	0398d53b          	divuw	a0,a7,s9
    48de:	037f9333          	mulh	t1,t6,s7
    48e2:	033fd793          	srli	a5,t6,0x33
    48e6:	02f24d3b          	divw	s10,tp,a5
    48ea:	02f24d3b          	divw	s10,tp,a5
    48ee:	9abbcc93          	xori	s9,s7,-1621
    48f2:	01f099b3          	sll	s3,ra,t6
    48f6:	00f48133          	add	sp,s1,a5
    48fa:	961a                	add	a2,a2,t1
    48fc:	00fed41b          	srliw	s0,t4,0xf
    4900:	008643b3          	xor	t2,a2,s0
    4904:	0a04                	addi	s1,sp,272
    4906:	0001                	nop
    4908:	00f164b3          	or	s1,sp,a5
    490c:	02e189bb          	mulw	s3,gp,a4
    4910:	41c7043b          	subw	s0,a4,t3
    4914:	02e189bb          	mulw	s3,gp,a4
    4918:	02817933          	remu	s2,sp,s0
    491c:	5d328737          	lui	a4,0x5d328
    4920:	01f099b3          	sll	s3,ra,t6
    4924:	54f6a993          	slti	s3,a3,1359
    4928:	42686493          	ori	s1,a6,1062
    492c:	01a3ba33          	sltu	s4,t2,s10
    4930:	02817933          	remu	s2,sp,s0
    4934:	016a92bb          	sllw	t0,s5,s6
    4938:	987d                	andi	s0,s0,-1
    493a:	029d29b3          	mulhsu	s3,s10,s1
    493e:	01a37233          	and	tp,t1,s10
    4942:	00f164b3          	or	s1,sp,a5
    4946:	090e                	slli	s2,s2,0x3
    4948:	4048dcbb          	sraw	s9,a7,tp
    494c:	808d                	srli	s1,s1,0x3
    494e:	54f6a993          	slti	s3,a3,1359
    4952:	e0a1059b          	addiw	a1,sp,-502
    4956:	6eed                	lui	t4,0x1b
    4958:	40dad233          	sra	tp,s5,a3
    495c:	037f9333          	mulh	t1,t6,s7
    4960:	090e                	slli	s2,s2,0x3
    4962:	008643b3          	xor	t2,a2,s0
    4966:	00fed41b          	srliw	s0,t4,0xf
    496a:	9abbcc93          	xori	s9,s7,-1621
    496e:	40675113          	srai	sp,a4,0x6
    4972:	008643b3          	xor	t2,a2,s0
    4976:	42686493          	ori	s1,a6,1062
    497a:	1f7d                	addi	t5,t5,-1
    497c:	039f7a3b          	remuw	s4,t5,s9
    4980:	40865a1b          	sraiw	s4,a2,0x8
    4984:	717d                	addi	sp,sp,-16
    4986:	0313633b          	remw	t1,t1,a7
    498a:	717d                	addi	sp,sp,-16
    498c:	dfa53c93          	sltiu	s9,a0,-518
    4990:	808d                	srli	s1,s1,0x3
    4992:	039f7a3b          	remuw	s4,t5,s9
    4996:	02c78bb3          	mul	s7,a5,a2
    499a:	039f7a3b          	remuw	s4,t5,s9
    499e:	808d                	srli	s1,s1,0x3
    49a0:	961a                	add	a2,a2,t1
    49a2:	00f31f9b          	slliw	t6,t1,0xf
    49a6:	03e0c033          	div	zero,ra,t5
    49aa:	0313633b          	remw	t1,t1,a7
    49ae:	8ec9                	or	a3,a3,a0
    49b0:	0398d53b          	divuw	a0,a7,s9
    49b4:	9abbcc93          	xori	s9,s7,-1621
    49b8:	41d98233          	sub	tp,s3,t4
    49bc:	9ead                	addw	a3,a3,a1
    49be:	0001                	nop
    49c0:	00f164b3          	or	s1,sp,a5
    49c4:	40675113          	srai	sp,a4,0x6
    49c8:	41d98233          	sub	tp,s3,t4
    49cc:	02e8b633          	mulhu	a2,a7,a4
    49d0:	033fd793          	srli	a5,t6,0x33
    49d4:	01320b3b          	addw	s6,tp,s3
    49d8:	8ef1                	and	a3,a3,a2
    49da:	01320b3b          	addw	s6,tp,s3
    49de:	41d98233          	sub	tp,s3,t4
    49e2:	016a92bb          	sllw	t0,s5,s6
    49e6:	00f31f9b          	slliw	t6,t1,0xf
    49ea:	8ec9                	or	a3,a3,a0
    49ec:	1f7d                	addi	t5,t5,-1
    49ee:	0a04                	addi	s1,sp,272
    49f0:	5d328737          	lui	a4,0x5d328
    49f4:	54f6a993          	slti	s3,a3,1359
    49f8:	40675113          	srai	sp,a4,0x6
    49fc:	5d328737          	lui	a4,0x5d328
    4a00:	0313633b          	remw	t1,t1,a7
    4a04:	51fd                	li	gp,-1
    4a06:	e9c89317          	auipc	t1,0xe9c89
    4a0a:	00f31f9b          	slliw	t6,t1,0xf
    4a0e:	41c7043b          	subw	s0,a4,t3
    4a12:	dfa53c93          	sltiu	s9,a0,-518
    4a16:	0001                	nop
    4a18:	008643b3          	xor	t2,a2,s0
    4a1c:	0313633b          	remw	t1,t1,a7
    4a20:	01320b3b          	addw	s6,tp,s3
    4a24:	033fd793          	srli	a5,t6,0x33
    4a28:	01a37233          	and	tp,t1,s10
    4a2c:	41c7043b          	subw	s0,a4,t3
    4a30:	4048dcbb          	sraw	s9,a7,tp
    4a34:	5d328737          	lui	a4,0x5d328
    4a38:	02e189bb          	mulw	s3,gp,a4
    4a3c:	dfa53c93          	sltiu	s9,a0,-518
    4a40:	02c78bb3          	mul	s7,a5,a2
    4a44:	8439                	srai	s0,s0,0xe
    4a46:	317d                	addiw	sp,sp,-1
    4a48:	0001                	nop
    4a4a:	9abbcc93          	xori	s9,s7,-1621
    4a4e:	01a37233          	and	tp,t1,s10
    4a52:	9c8d                	subw	s1,s1,a1
    4a54:	02e189bb          	mulw	s3,gp,a4
    4a58:	00e1d23b          	srlw	tp,gp,a4
    4a5c:	0398d53b          	divuw	a0,a7,s9
    4a60:	01320b3b          	addw	s6,tp,s3
    4a64:	00f48133          	add	sp,s1,a5
    4a68:	0398d53b          	divuw	a0,a7,s9
    4a6c:	016a92bb          	sllw	t0,s5,s6
    4a70:	02c78bb3          	mul	s7,a5,a2
    4a74:	0398d53b          	divuw	a0,a7,s9
    4a78:	9abbcc93          	xori	s9,s7,-1621
    4a7c:	008643b3          	xor	t2,a2,s0
    4a80:	0001                	nop
    4a82:	02dadfb3          	divu	t6,s5,a3
    4a86:	0a04                	addi	s1,sp,272
    4a88:	54f6a993          	slti	s3,a3,1359
    4a8c:	01182a33          	slt	s4,a6,a7
    4a90:	00f48133          	add	sp,s1,a5
    4a94:	039f7a3b          	remuw	s4,t5,s9
    4a98:	0398d53b          	divuw	a0,a7,s9
    4a9c:	033fd793          	srli	a5,t6,0x33
    4aa0:	03509613          	slli	a2,ra,0x35
    4aa4:	8d3d                	xor	a0,a0,a5
    4aa6:	02817933          	remu	s2,sp,s0
    4aaa:	02f24d3b          	divw	s10,tp,a5
    4aae:	8ef1                	and	a3,a3,a2
    4ab0:	5d328737          	lui	a4,0x5d328
    4ab4:	004e5ab3          	srl	s5,t3,tp
    4ab8:	9ead                	addw	a3,a3,a1
    4aba:	0001                	nop
    4abc:	00f164b3          	or	s1,sp,a5
    4ac0:	016a92bb          	sllw	t0,s5,s6
    4ac4:	0001                	nop
    4ac6:	0001                	nop
    4ac8:	03e0c033          	div	zero,ra,t5
    4acc:	02817933          	remu	s2,sp,s0
    4ad0:	8d01                	sub	a0,a0,s0
    4ad2:	13ad0213          	addi	tp,s10,314
    4ad6:	02dadfb3          	divu	t6,s5,a3
    4ada:	01a37233          	and	tp,t1,s10
    4ade:	41c7043b          	subw	s0,a4,t3
    4ae2:	00fed41b          	srliw	s0,t4,0xf
    4ae6:	01182a33          	slt	s4,a6,a7
    4aea:	01a37233          	and	tp,t1,s10
    4aee:	54f6a993          	slti	s3,a3,1359
    4af2:	00f164b3          	or	s1,sp,a5
    4af6:	00fed41b          	srliw	s0,t4,0xf
    4afa:	0001                	nop
    4afc:	01f099b3          	sll	s3,ra,t6
    4b00:	01a37233          	and	tp,t1,s10
    4b04:	e0a1059b          	addiw	a1,sp,-502
    4b08:	38057713          	andi	a4,a0,896
    4b0c:	987d                	andi	s0,s0,-1
    4b0e:	88d2                	mv	a7,s4
    4b10:	01f099b3          	sll	s3,ra,t6
    4b14:	00f31f9b          	slliw	t6,t1,0xf
    4b18:	090e                	slli	s2,s2,0x3
    4b1a:	01a37233          	and	tp,t1,s10
    4b1e:	090e                	slli	s2,s2,0x3
    4b20:	4048dcbb          	sraw	s9,a7,tp
    4b24:	0001                	nop
    4b26:	9c8d                	subw	s1,s1,a1
    4b28:	987d                	andi	s0,s0,-1
    4b2a:	9abbcc93          	xori	s9,s7,-1621
    4b2e:	4048dcbb          	sraw	s9,a7,tp
    4b32:	e9c89317          	auipc	t1,0xe9c89
    4b36:	317d                	addiw	sp,sp,-1
    4b38:	004e5ab3          	srl	s5,t3,tp
    4b3c:	40675113          	srai	sp,a4,0x6
    4b40:	38057713          	andi	a4,a0,896
    4b44:	008643b3          	xor	t2,a2,s0
    4b48:	00f164b3          	or	s1,sp,a5
    4b4c:	40dad233          	sra	tp,s5,a3
    4b50:	03509613          	slli	a2,ra,0x35
    4b54:	13ad0213          	addi	tp,s10,314
    4b58:	01182a33          	slt	s4,a6,a7
    4b5c:	40865a1b          	sraiw	s4,a2,0x8
    4b60:	0313633b          	remw	t1,t1,a7
    4b64:	88d2                	mv	a7,s4
    4b66:	717d                	addi	sp,sp,-16
    4b68:	808d                	srli	s1,s1,0x3
    4b6a:	00f164b3          	or	s1,sp,a5
    4b6e:	0001                	nop
    4b70:	6eed                	lui	t4,0x1b
    4b72:	01320b3b          	addw	s6,tp,s3
    4b76:	5d328737          	lui	a4,0x5d328
    4b7a:	9ead                	addw	a3,a3,a1
    4b7c:	38057713          	andi	a4,a0,896
    4b80:	42686493          	ori	s1,a6,1062
    4b84:	029d29b3          	mulhsu	s3,s10,s1
    4b88:	03e0c033          	div	zero,ra,t5
    4b8c:	808d                	srli	s1,s1,0x3
    4b8e:	8d3d                	xor	a0,a0,a5
    4b90:	5d328737          	lui	a4,0x5d328
    4b94:	03509613          	slli	a2,ra,0x35
    4b98:	02dadfb3          	divu	t6,s5,a3
    4b9c:	13ad0213          	addi	tp,s10,314
    4ba0:	54f6a993          	slti	s3,a3,1359
    4ba4:	13ad0213          	addi	tp,s10,314
    4ba8:	03509613          	slli	a2,ra,0x35
    4bac:	38057713          	andi	a4,a0,896
    4bb0:	e0a1059b          	addiw	a1,sp,-502
    4bb4:	01a37233          	and	tp,t1,s10
    4bb8:	0001                	nop
    4bba:	033fd793          	srli	a5,t6,0x33
    4bbe:	9abbcc93          	xori	s9,s7,-1621
    4bc2:	00f164b3          	or	s1,sp,a5
    4bc6:	9abbcc93          	xori	s9,s7,-1621
    4bca:	01a3ba33          	sltu	s4,t2,s10
    4bce:	03509613          	slli	a2,ra,0x35
    4bd2:	02e8b633          	mulhu	a2,a7,a4
    4bd6:	02c78bb3          	mul	s7,a5,a2
    4bda:	039f7a3b          	remuw	s4,t5,s9
    4bde:	987d                	andi	s0,s0,-1
    4be0:	4048dcbb          	sraw	s9,a7,tp
    4be4:	0a04                	addi	s1,sp,272
    4be6:	808d                	srli	s1,s1,0x3
    4be8:	00f48133          	add	sp,s1,a5
    4bec:	016a92bb          	sllw	t0,s5,s6
    4bf0:	090e                	slli	s2,s2,0x3
    4bf2:	029d29b3          	mulhsu	s3,s10,s1
    4bf6:	004e5ab3          	srl	s5,t3,tp
    4bfa:	8d3d                	xor	a0,a0,a5
    4bfc:	317d                	addiw	sp,sp,-1
    4bfe:	13ad0213          	addi	tp,s10,314
    4c02:	987d                	andi	s0,s0,-1
    4c04:	02c78bb3          	mul	s7,a5,a2
    4c08:	51fd                	li	gp,-1
    4c0a:	00fed41b          	srliw	s0,t4,0xf
    4c0e:	01a3ba33          	sltu	s4,t2,s10
    4c12:	808d                	srli	s1,s1,0x3
    4c14:	00f164b3          	or	s1,sp,a5
    4c18:	00f31f9b          	slliw	t6,t1,0xf
    4c1c:	004e5ab3          	srl	s5,t3,tp
    4c20:	717d                	addi	sp,sp,-16
    4c22:	004e5ab3          	srl	s5,t3,tp
    4c26:	02f24d3b          	divw	s10,tp,a5
    4c2a:	004e5ab3          	srl	s5,t3,tp
    4c2e:	42686493          	ori	s1,a6,1062
    4c32:	54f6a993          	slti	s3,a3,1359
    4c36:	6eed                	lui	t4,0x1b
    4c38:	dfa53c93          	sltiu	s9,a0,-518
    4c3c:	029d29b3          	mulhsu	s3,s10,s1
    4c40:	02e189bb          	mulw	s3,gp,a4
    4c44:	4048dcbb          	sraw	s9,a7,tp
    4c48:	0a04                	addi	s1,sp,272
    4c4a:	004e5ab3          	srl	s5,t3,tp
    4c4e:	e9c89317          	auipc	t1,0xe9c89
    4c52:	8ec9                	or	a3,a3,a0
    4c54:	02e189bb          	mulw	s3,gp,a4
    4c58:	037f9333          	mulh	t1,t6,s7
    4c5c:	dfa53c93          	sltiu	s9,a0,-518
    4c60:	03509613          	slli	a2,ra,0x35
    4c64:	1f7d                	addi	t5,t5,-1
    4c66:	008643b3          	xor	t2,a2,s0
    4c6a:	03e0c033          	div	zero,ra,t5
    4c6e:	01a3ba33          	sltu	s4,t2,s10
    4c72:	41d98233          	sub	tp,s3,t4
    4c76:	01a3ba33          	sltu	s4,t2,s10
    4c7a:	01f099b3          	sll	s3,ra,t6
    4c7e:	008643b3          	xor	t2,a2,s0
    4c82:	03509613          	slli	a2,ra,0x35
    4c86:	41c7043b          	subw	s0,a4,t3
    4c8a:	e9c89317          	auipc	t1,0xe9c89
    4c8e:	033fd793          	srli	a5,t6,0x33
    4c92:	40675113          	srai	sp,a4,0x6
    4c96:	00f48133          	add	sp,s1,a5
    4c9a:	41c7043b          	subw	s0,a4,t3
    4c9e:	1f7d                	addi	t5,t5,-1
    4ca0:	0398d53b          	divuw	a0,a7,s9
    4ca4:	13ad0213          	addi	tp,s10,314
    4ca8:	01f099b3          	sll	s3,ra,t6
    4cac:	8439                	srai	s0,s0,0xe
    4cae:	03509613          	slli	a2,ra,0x35
    4cb2:	9c8d                	subw	s1,s1,a1
    4cb4:	51fd                	li	gp,-1
    4cb6:	e9c89317          	auipc	t1,0xe9c89
    4cba:	0a04                	addi	s1,sp,272
    4cbc:	0398d53b          	divuw	a0,a7,s9
    4cc0:	41d98233          	sub	tp,s3,t4
    4cc4:	008643b3          	xor	t2,a2,s0
    4cc8:	02e8b633          	mulhu	a2,a7,a4
    4ccc:	02e189bb          	mulw	s3,gp,a4
    4cd0:	51fd                	li	gp,-1
    4cd2:	987d                	andi	s0,s0,-1
    4cd4:	0a04                	addi	s1,sp,272
    4cd6:	037f9333          	mulh	t1,t6,s7
    4cda:	00f164b3          	or	s1,sp,a5
    4cde:	808d                	srli	s1,s1,0x3
    4ce0:	40865a1b          	sraiw	s4,a2,0x8
    4ce4:	00fed41b          	srliw	s0,t4,0xf
    4ce8:	02c78bb3          	mul	s7,a5,a2
    4cec:	41c7043b          	subw	s0,a4,t3
    4cf0:	717d                	addi	sp,sp,-16
    4cf2:	41c7043b          	subw	s0,a4,t3
    4cf6:	008643b3          	xor	t2,a2,s0
    4cfa:	317d                	addiw	sp,sp,-1
    4cfc:	004e5ab3          	srl	s5,t3,tp
    4d00:	8ec9                	or	a3,a3,a0
    4d02:	38057713          	andi	a4,a0,896
    4d06:	0398d53b          	divuw	a0,a7,s9
    4d0a:	88d2                	mv	a7,s4
    4d0c:	029d29b3          	mulhsu	s3,s10,s1
    4d10:	9c8d                	subw	s1,s1,a1
    4d12:	008643b3          	xor	t2,a2,s0
    4d16:	0001                	nop
    4d18:	6eed                	lui	t4,0x1b
    4d1a:	02e964b3          	rem	s1,s2,a4
    4d1e:	8d3d                	xor	a0,a0,a5
    4d20:	0398d53b          	divuw	a0,a7,s9
    4d24:	41c7043b          	subw	s0,a4,t3
    4d28:	02c78bb3          	mul	s7,a5,a2
    4d2c:	40dad233          	sra	tp,s5,a3
    4d30:	88d2                	mv	a7,s4
    4d32:	6eed                	lui	t4,0x1b
    4d34:	01a37233          	and	tp,t1,s10
    4d38:	40dad233          	sra	tp,s5,a3
    4d3c:	717d                	addi	sp,sp,-16
    4d3e:	41c7043b          	subw	s0,a4,t3
    4d42:	961a                	add	a2,a2,t1
    4d44:	033fd793          	srli	a5,t6,0x33
    4d48:	01a3ba33          	sltu	s4,t2,s10
    4d4c:	008643b3          	xor	t2,a2,s0
    4d50:	00f31f9b          	slliw	t6,t1,0xf
    4d54:	02dadfb3          	divu	t6,s5,a3
    4d58:	0398d53b          	divuw	a0,a7,s9
    4d5c:	00f48133          	add	sp,s1,a5
    4d60:	090e                	slli	s2,s2,0x3
    4d62:	41d98233          	sub	tp,s3,t4
    4d66:	9abbcc93          	xori	s9,s7,-1621
    4d6a:	88d2                	mv	a7,s4
    4d6c:	02817933          	remu	s2,sp,s0
    4d70:	41d98233          	sub	tp,s3,t4
    4d74:	e9c89317          	auipc	t1,0xe9c89
    4d78:	090e                	slli	s2,s2,0x3
    4d7a:	6eed                	lui	t4,0x1b
    4d7c:	717d                	addi	sp,sp,-16
    4d7e:	987d                	andi	s0,s0,-1
    4d80:	808d                	srli	s1,s1,0x3
    4d82:	e0a1059b          	addiw	a1,sp,-502
    4d86:	5d328737          	lui	a4,0x5d328
    4d8a:	dfa53c93          	sltiu	s9,a0,-518
    4d8e:	02e189bb          	mulw	s3,gp,a4
    4d92:	01182a33          	slt	s4,a6,a7
    4d96:	9abbcc93          	xori	s9,s7,-1621
    4d9a:	dfa53c93          	sltiu	s9,a0,-518
    4d9e:	03509613          	slli	a2,ra,0x35
    4da2:	00f48133          	add	sp,s1,a5
    4da6:	0001                	nop
    4da8:	03e0c033          	div	zero,ra,t5
    4dac:	1f7d                	addi	t5,t5,-1
    4dae:	01320b3b          	addw	s6,tp,s3
    4db2:	41c7043b          	subw	s0,a4,t3
    4db6:	0313633b          	remw	t1,t1,a7
    4dba:	e9c89317          	auipc	t1,0xe9c89
    4dbe:	54f6a993          	slti	s3,a3,1359
    4dc2:	0313633b          	remw	t1,t1,a7
    4dc6:	8439                	srai	s0,s0,0xe
    4dc8:	00f164b3          	or	s1,sp,a5
    4dcc:	40675113          	srai	sp,a4,0x6
    4dd0:	8ec9                	or	a3,a3,a0
    4dd2:	42686493          	ori	s1,a6,1062
    4dd6:	8d01                	sub	a0,a0,s0
    4dd8:	40dad233          	sra	tp,s5,a3
    4ddc:	40865a1b          	sraiw	s4,a2,0x8
    4de0:	00f164b3          	or	s1,sp,a5
    4de4:	dfa53c93          	sltiu	s9,a0,-518
    4de8:	02e8b633          	mulhu	a2,a7,a4
    4dec:	317d                	addiw	sp,sp,-1
    4dee:	dfa53c93          	sltiu	s9,a0,-518
    4df2:	039f7a3b          	remuw	s4,t5,s9
    4df6:	01320b3b          	addw	s6,tp,s3
    4dfa:	02e8b633          	mulhu	a2,a7,a4
    4dfe:	0a04                	addi	s1,sp,272
    4e00:	5d328737          	lui	a4,0x5d328
    4e04:	01a37233          	and	tp,t1,s10
    4e08:	004e5ab3          	srl	s5,t3,tp
    4e0c:	987d                	andi	s0,s0,-1
    4e0e:	88d2                	mv	a7,s4
    4e10:	e0a1059b          	addiw	a1,sp,-502
    4e14:	01f099b3          	sll	s3,ra,t6
    4e18:	02f24d3b          	divw	s10,tp,a5
    4e1c:	0a04                	addi	s1,sp,272
    4e1e:	004e5ab3          	srl	s5,t3,tp
    4e22:	01a3ba33          	sltu	s4,t2,s10
    4e26:	41d98233          	sub	tp,s3,t4
    4e2a:	039f7a3b          	remuw	s4,t5,s9
    4e2e:	e0a1059b          	addiw	a1,sp,-502
    4e32:	01a3ba33          	sltu	s4,t2,s10
    4e36:	03e0c033          	div	zero,ra,t5
    4e3a:	03e0c033          	div	zero,ra,t5
    4e3e:	8d3d                	xor	a0,a0,a5
    4e40:	6eed                	lui	t4,0x1b
    4e42:	9ead                	addw	a3,a3,a1
    4e44:	40675113          	srai	sp,a4,0x6
    4e48:	037f9333          	mulh	t1,t6,s7
    4e4c:	40865a1b          	sraiw	s4,a2,0x8
    4e50:	40dad233          	sra	tp,s5,a3
    4e54:	0001                	nop
    4e56:	41c7043b          	subw	s0,a4,t3
    4e5a:	5d328737          	lui	a4,0x5d328
    4e5e:	51fd                	li	gp,-1
    4e60:	9ead                	addw	a3,a3,a1
    4e62:	00f31f9b          	slliw	t6,t1,0xf
    4e66:	02f24d3b          	divw	s10,tp,a5
    4e6a:	03509613          	slli	a2,ra,0x35
    4e6e:	40dad233          	sra	tp,s5,a3
    4e72:	1f7d                	addi	t5,t5,-1
    4e74:	01f099b3          	sll	s3,ra,t6
    4e78:	40675113          	srai	sp,a4,0x6
    4e7c:	0001                	nop
    4e7e:	090e                	slli	s2,s2,0x3
    4e80:	40675113          	srai	sp,a4,0x6
    4e84:	0313633b          	remw	t1,t1,a7
    4e88:	717d                	addi	sp,sp,-16
    4e8a:	00f164b3          	or	s1,sp,a5
    4e8e:	03e0c033          	div	zero,ra,t5
    4e92:	01a3ba33          	sltu	s4,t2,s10
    4e96:	9c8d                	subw	s1,s1,a1
    4e98:	02e189bb          	mulw	s3,gp,a4
    4e9c:	01182a33          	slt	s4,a6,a7
    4ea0:	0001                	nop
    4ea2:	01f099b3          	sll	s3,ra,t6
    4ea6:	02817933          	remu	s2,sp,s0
    4eaa:	8d01                	sub	a0,a0,s0
    4eac:	13ad0213          	addi	tp,s10,314
    4eb0:	8d3d                	xor	a0,a0,a5
    4eb2:	01a37233          	and	tp,t1,s10
    4eb6:	02dadfb3          	divu	t6,s5,a3
    4eba:	41c7043b          	subw	s0,a4,t3
    4ebe:	1f7d                	addi	t5,t5,-1
    4ec0:	00f164b3          	or	s1,sp,a5
    4ec4:	0001                	nop
    4ec6:	0398d53b          	divuw	a0,a7,s9
    4eca:	03509613          	slli	a2,ra,0x35
    4ece:	38057713          	andi	a4,a0,896
    4ed2:	51fd                	li	gp,-1
    4ed4:	00f164b3          	or	s1,sp,a5
    4ed8:	40dad233          	sra	tp,s5,a3
    4edc:	00f164b3          	or	s1,sp,a5
    4ee0:	01a37233          	and	tp,t1,s10
    4ee4:	004e5ab3          	srl	s5,t3,tp
    4ee8:	02e964b3          	rem	s1,s2,a4
    4eec:	01182a33          	slt	s4,a6,a7
    4ef0:	987d                	andi	s0,s0,-1
    4ef2:	00f31f9b          	slliw	t6,t1,0xf
    4ef6:	987d                	andi	s0,s0,-1
    4ef8:	039f7a3b          	remuw	s4,t5,s9
    4efc:	8d3d                	xor	a0,a0,a5
    4efe:	8439                	srai	s0,s0,0xe
    4f00:	01f099b3          	sll	s3,ra,t6
    4f04:	029d29b3          	mulhsu	s3,s10,s1
    4f08:	41c7043b          	subw	s0,a4,t3
    4f0c:	9c8d                	subw	s1,s1,a1
    4f0e:	8ef1                	and	a3,a3,a2
    4f10:	13ad0213          	addi	tp,s10,314
    4f14:	01f099b3          	sll	s3,ra,t6
    4f18:	01182a33          	slt	s4,a6,a7
    4f1c:	029d29b3          	mulhsu	s3,s10,s1
    4f20:	13ad0213          	addi	tp,s10,314
    4f24:	00f31f9b          	slliw	t6,t1,0xf
    4f28:	54f6a993          	slti	s3,a3,1359
    4f2c:	9c8d                	subw	s1,s1,a1
    4f2e:	008643b3          	xor	t2,a2,s0
    4f32:	01f099b3          	sll	s3,ra,t6
    4f36:	8439                	srai	s0,s0,0xe
    4f38:	02dadfb3          	divu	t6,s5,a3
    4f3c:	41d98233          	sub	tp,s3,t4
    4f40:	dfa53c93          	sltiu	s9,a0,-518
    4f44:	317d                	addiw	sp,sp,-1
    4f46:	029d29b3          	mulhsu	s3,s10,s1
    4f4a:	808d                	srli	s1,s1,0x3
    4f4c:	717d                	addi	sp,sp,-16
    4f4e:	1f7d                	addi	t5,t5,-1
    4f50:	9ead                	addw	a3,a3,a1
    4f52:	02e964b3          	rem	s1,s2,a4
    4f56:	961a                	add	a2,a2,t1
    4f58:	8ec9                	or	a3,a3,a0
    4f5a:	02817933          	remu	s2,sp,s0
    4f5e:	317d                	addiw	sp,sp,-1
    4f60:	6eed                	lui	t4,0x1b
    4f62:	0a04                	addi	s1,sp,272
    4f64:	0a04                	addi	s1,sp,272
    4f66:	01a37233          	and	tp,t1,s10
    4f6a:	8ef1                	and	a3,a3,a2
    4f6c:	40865a1b          	sraiw	s4,a2,0x8
    4f70:	00e1d23b          	srlw	tp,gp,a4
    4f74:	01f099b3          	sll	s3,ra,t6
    4f78:	01182a33          	slt	s4,a6,a7
    4f7c:	0398d53b          	divuw	a0,a7,s9
    4f80:	0a04                	addi	s1,sp,272
    4f82:	00e1d23b          	srlw	tp,gp,a4
    4f86:	0001                	nop
    4f88:	008643b3          	xor	t2,a2,s0
    4f8c:	e9c89317          	auipc	t1,0xe9c89
    4f90:	016a92bb          	sllw	t0,s5,s6
    4f94:	0a04                	addi	s1,sp,272
    4f96:	03e0c033          	div	zero,ra,t5
    4f9a:	40dad233          	sra	tp,s5,a3
    4f9e:	090e                	slli	s2,s2,0x3
    4fa0:	51fd                	li	gp,-1
    4fa2:	00f48133          	add	sp,s1,a5
    4fa6:	004e5ab3          	srl	s5,t3,tp
    4faa:	00f48133          	add	sp,s1,a5
    4fae:	0398d53b          	divuw	a0,a7,s9
    4fb2:	5a7d                	li	s4,-1
    4fb4:	4301                	li	t1,0
    4fb6:	03c91cb7          	lui	s9,0x3c91
    4fba:	6ffc8c9b          	addiw	s9,s9,1791
    4fbe:	0cb2                	slli	s9,s9,0xc
    4fc0:	d6fc8c93          	addi	s9,s9,-657 # 3c90d6f <_end+0x3c7106f>
    4fc4:	0cb2                	slli	s9,s9,0xc
    4fc6:	7a7c8c93          	addi	s9,s9,1959
    4fca:	0cb2                	slli	s9,s9,0xc
    4fcc:	ae6c8c93          	addi	s9,s9,-1306
    4fd0:	52fd                	li	t0,-1
    4fd2:	4781                	li	a5,0
    4fd4:	fff00d1b          	addiw	s10,zero,-1
    4fd8:	1d7e                	slli	s10,s10,0x3f
    4fda:	53fd                	li	t2,-1
    4fdc:	fff0089b          	addiw	a7,zero,-1
    4fe0:	18fe                	slli	a7,a7,0x3f
    4fe2:	fce9e6b7          	lui	a3,0xfce9e
    4fe6:	a196869b          	addiw	a3,a3,-1511
    4fea:	06b6                	slli	a3,a3,0xd
    4fec:	18768693          	addi	a3,a3,391 # fffffffffce9e187 <_end+0xfffffffffce7e487>
    4ff0:	06b2                	slli	a3,a3,0xc
    4ff2:	e4f68693          	addi	a3,a3,-433
    4ff6:	06b2                	slli	a3,a3,0xc
    4ff8:	a0468693          	addi	a3,a3,-1532
    4ffc:	4201                	li	tp,0
    4ffe:	0001                	nop
    5000:	0256c6bb          	divw	a3,a3,t0
    5004:	e0ac869b          	addiw	a3,s9,-502
    5008:	407203bb          	subw	t2,tp,t2
    500c:	024d67bb          	remw	a5,s10,tp
    5010:	03aa4a33          	div	s4,s4,s10
    5014:	98ea                	add	a7,a7,s10
    5016:	039278bb          	remuw	a7,tp,s9
    501a:	5d328d37          	lui	s10,0x5d328
    501e:	0316bd33          	mulhu	s10,a3,a7
    5022:	039278bb          	remuw	a7,tp,s9
    5026:	0316bd33          	mulhu	s10,a3,a7
    502a:	0001                	nop
    502c:	5d328d37          	lui	s10,0x5d328
    5030:	40620233          	sub	tp,tp,t1
    5034:	039278bb          	remuw	a7,tp,s9
    5038:	039276b3          	remu	a3,tp,s9
    503c:	039a12b3          	mulh	t0,s4,s9
    5040:	98ea                	add	a7,a7,s10
    5042:	5d328737          	lui	a4,0x5d328
    5046:	8d3d                	xor	a0,a0,a5
    5048:	808d                	srli	s1,s1,0x3
    504a:	1f7d                	addi	t5,t5,-1
    504c:	e0a1059b          	addiw	a1,sp,-502
    5050:	02e189bb          	mulw	s3,gp,a4
    5054:	01f099b3          	sll	s3,ra,t6
    5058:	9ead                	addw	a3,a3,a1
    505a:	9c8d                	subw	s1,s1,a1
    505c:	02817933          	remu	s2,sp,s0
    5060:	0a04                	addi	s1,sp,272
    5062:	00e1d23b          	srlw	tp,gp,a4
    5066:	0313633b          	remw	t1,t1,a7
    506a:	01a37233          	and	tp,t1,s10
    506e:	029d29b3          	mulhsu	s3,s10,s1
    5072:	e0a1059b          	addiw	a1,sp,-502
    5076:	02e964b3          	rem	s1,s2,a4
    507a:	88d2                	mv	a7,s4
    507c:	8439                	srai	s0,s0,0xe
    507e:	808d                	srli	s1,s1,0x3
    5080:	01a37233          	and	tp,t1,s10
    5084:	00f48133          	add	sp,s1,a5
    5088:	02dadfb3          	divu	t6,s5,a3
    508c:	40675113          	srai	sp,a4,0x6
    5090:	88d2                	mv	a7,s4
    5092:	00e1d23b          	srlw	tp,gp,a4
    5096:	00e1d23b          	srlw	tp,gp,a4
    509a:	0001                	nop
    509c:	40865a1b          	sraiw	s4,a2,0x8
    50a0:	0001                	nop
    50a2:	9c8d                	subw	s1,s1,a1
    50a4:	e0a1059b          	addiw	a1,sp,-502
    50a8:	6eed                	lui	t4,0x1b
    50aa:	dfa53c93          	sltiu	s9,a0,-518
    50ae:	8d3d                	xor	a0,a0,a5
    50b0:	317d                	addiw	sp,sp,-1
    50b2:	717d                	addi	sp,sp,-16
    50b4:	40675113          	srai	sp,a4,0x6
    50b8:	4048dcbb          	sraw	s9,a7,tp
    50bc:	037f9333          	mulh	t1,t6,s7
    50c0:	41d98233          	sub	tp,s3,t4
    50c4:	9ead                	addw	a3,a3,a1
    50c6:	00e1d23b          	srlw	tp,gp,a4
    50ca:	02e8b633          	mulhu	a2,a7,a4
    50ce:	02f24d3b          	divw	s10,tp,a5
    50d2:	4048dcbb          	sraw	s9,a7,tp
    50d6:	01a37233          	and	tp,t1,s10
    50da:	01a37233          	and	tp,t1,s10
    50de:	02817933          	remu	s2,sp,s0
    50e2:	9ead                	addw	a3,a3,a1
    50e4:	01a3ba33          	sltu	s4,t2,s10
    50e8:	00f164b3          	or	s1,sp,a5
    50ec:	6eed                	lui	t4,0x1b
    50ee:	dfa53c93          	sltiu	s9,a0,-518
    50f2:	13ad0213          	addi	tp,s10,314 # 5d32813a <_end+0x5d30843a>
    50f6:	01320b3b          	addw	s6,tp,s3
    50fa:	88d2                	mv	a7,s4
    50fc:	9ead                	addw	a3,a3,a1
    50fe:	0001                	nop
    5100:	037f9333          	mulh	t1,t6,s7
    5104:	8d3d                	xor	a0,a0,a5
    5106:	090e                	slli	s2,s2,0x3
    5108:	4048dcbb          	sraw	s9,a7,tp
    510c:	8ec9                	or	a3,a3,a0
    510e:	02dadfb3          	divu	t6,s5,a3
    5112:	40dad233          	sra	tp,s5,a3
    5116:	4048dcbb          	sraw	s9,a7,tp
    511a:	808d                	srli	s1,s1,0x3
    511c:	9abbcc93          	xori	s9,s7,-1621
    5120:	0001                	nop
    5122:	88d2                	mv	a7,s4
    5124:	01320b3b          	addw	s6,tp,s3
    5128:	987d                	andi	s0,s0,-1
    512a:	8d01                	sub	a0,a0,s0
    512c:	8439                	srai	s0,s0,0xe
    512e:	9c8d                	subw	s1,s1,a1
    5130:	961a                	add	a2,a2,t1
    5132:	8439                	srai	s0,s0,0xe
    5134:	00e1d23b          	srlw	tp,gp,a4
    5138:	40dad233          	sra	tp,s5,a3
    513c:	40865a1b          	sraiw	s4,a2,0x8
    5140:	dfa53c93          	sltiu	s9,a0,-518
    5144:	00e1d23b          	srlw	tp,gp,a4
    5148:	02dadfb3          	divu	t6,s5,a3
    514c:	008643b3          	xor	t2,a2,s0
    5150:	02e8b633          	mulhu	a2,a7,a4
    5154:	02c78bb3          	mul	s7,a5,a2
    5158:	090e                	slli	s2,s2,0x3
    515a:	03509613          	slli	a2,ra,0x35
    515e:	03509613          	slli	a2,ra,0x35
    5162:	8d01                	sub	a0,a0,s0
    5164:	961a                	add	a2,a2,t1
    5166:	8439                	srai	s0,s0,0xe
    5168:	8ec9                	or	a3,a3,a0
    516a:	5d328737          	lui	a4,0x5d328
    516e:	9ead                	addw	a3,a3,a1
    5170:	4048dcbb          	sraw	s9,a7,tp
    5174:	03e0c033          	div	zero,ra,t5
    5178:	6eed                	lui	t4,0x1b
    517a:	016a92bb          	sllw	t0,s5,s6
    517e:	717d                	addi	sp,sp,-16
    5180:	02e964b3          	rem	s1,s2,a4
    5184:	8439                	srai	s0,s0,0xe
    5186:	0398d53b          	divuw	a0,a7,s9
    518a:	00fed41b          	srliw	s0,t4,0xf
    518e:	00f48133          	add	sp,s1,a5
    5192:	037f9333          	mulh	t1,t6,s7
    5196:	037f9333          	mulh	t1,t6,s7
    519a:	9ead                	addw	a3,a3,a1
    519c:	00f31f9b          	slliw	t6,t1,0xf
    51a0:	987d                	andi	s0,s0,-1
    51a2:	0001                	nop
    51a4:	40865a1b          	sraiw	s4,a2,0x8
    51a8:	03e0c033          	div	zero,ra,t5
    51ac:	02c78bb3          	mul	s7,a5,a2
    51b0:	03509613          	slli	a2,ra,0x35
    51b4:	033fd793          	srli	a5,t6,0x33
    51b8:	961a                	add	a2,a2,t1
    51ba:	5d328737          	lui	a4,0x5d328
    51be:	8439                	srai	s0,s0,0xe
    51c0:	41d98233          	sub	tp,s3,t4
    51c4:	033fd793          	srli	a5,t6,0x33
    51c8:	02f24d3b          	divw	s10,tp,a5
    51cc:	00f164b3          	or	s1,sp,a5
    51d0:	88d2                	mv	a7,s4
    51d2:	e0a1059b          	addiw	a1,sp,-502
    51d6:	e0a1059b          	addiw	a1,sp,-502
    51da:	00e1d23b          	srlw	tp,gp,a4
    51de:	41c7043b          	subw	s0,a4,t3
    51e2:	03509613          	slli	a2,ra,0x35
    51e6:	8ef1                	and	a3,a3,a2
    51e8:	88d2                	mv	a7,s4
    51ea:	38057713          	andi	a4,a0,896
    51ee:	02f24d3b          	divw	s10,tp,a5
    51f2:	02e8b633          	mulhu	a2,a7,a4
    51f6:	00f48133          	add	sp,s1,a5
    51fa:	717d                	addi	sp,sp,-16
    51fc:	9c8d                	subw	s1,s1,a1
    51fe:	090e                	slli	s2,s2,0x3
    5200:	02c78bb3          	mul	s7,a5,a2
    5204:	41d98233          	sub	tp,s3,t4
    5208:	01182a33          	slt	s4,a6,a7
    520c:	8d01                	sub	a0,a0,s0
    520e:	961a                	add	a2,a2,t1
    5210:	01f099b3          	sll	s3,ra,t6
    5214:	8439                	srai	s0,s0,0xe
    5216:	016a92bb          	sllw	t0,s5,s6
    521a:	0001                	nop
    521c:	00f164b3          	or	s1,sp,a5
    5220:	033fd793          	srli	a5,t6,0x33
    5224:	1f7d                	addi	t5,t5,-1
    5226:	1f7d                	addi	t5,t5,-1
    5228:	808d                	srli	s1,s1,0x3
    522a:	54f6a993          	slti	s3,a3,1359
    522e:	42686493          	ori	s1,a6,1062
    5232:	54f6a993          	slti	s3,a3,1359
    5236:	dfa53c93          	sltiu	s9,a0,-518
    523a:	4048dcbb          	sraw	s9,a7,tp
    523e:	0001                	nop
    5240:	00f48133          	add	sp,s1,a5
    5244:	808d                	srli	s1,s1,0x3
    5246:	01f099b3          	sll	s3,ra,t6
    524a:	8d01                	sub	a0,a0,s0
    524c:	8ef1                	and	a3,a3,a2
    524e:	54f6a993          	slti	s3,a3,1359
    5252:	1f7d                	addi	t5,t5,-1
    5254:	008643b3          	xor	t2,a2,s0
    5258:	004e5ab3          	srl	s5,t3,tp
    525c:	01f099b3          	sll	s3,ra,t6
    5260:	00e1d23b          	srlw	tp,gp,a4
    5264:	02817933          	remu	s2,sp,s0
    5268:	38057713          	andi	a4,a0,896
    526c:	dfa53c93          	sltiu	s9,a0,-518
    5270:	54f6a993          	slti	s3,a3,1359
    5274:	00fed41b          	srliw	s0,t4,0xf
    5278:	02c78bb3          	mul	s7,a5,a2
    527c:	01320b3b          	addw	s6,tp,s3
    5280:	039f7a3b          	remuw	s4,t5,s9
    5284:	808d                	srli	s1,s1,0x3
    5286:	42686493          	ori	s1,a6,1062
    528a:	54f6a993          	slti	s3,a3,1359
    528e:	02f24d3b          	divw	s10,tp,a5
    5292:	40675113          	srai	sp,a4,0x6
    5296:	01320b3b          	addw	s6,tp,s3
    529a:	41d98233          	sub	tp,s3,t4
    529e:	8d3d                	xor	a0,a0,a5
    52a0:	41d98233          	sub	tp,s3,t4
    52a4:	00f31f9b          	slliw	t6,t1,0xf
    52a8:	6eed                	lui	t4,0x1b
    52aa:	03509613          	slli	a2,ra,0x35
    52ae:	037f9333          	mulh	t1,t6,s7
    52b2:	5d328737          	lui	a4,0x5d328
    52b6:	0001                	nop
    52b8:	6eed                	lui	t4,0x1b
    52ba:	02e189bb          	mulw	s3,gp,a4
    52be:	40675113          	srai	sp,a4,0x6
    52c2:	8d01                	sub	a0,a0,s0
    52c4:	8ec9                	or	a3,a3,a0
    52c6:	00e1d23b          	srlw	tp,gp,a4
    52ca:	dfa53c93          	sltiu	s9,a0,-518
    52ce:	03509613          	slli	a2,ra,0x35
    52d2:	8d01                	sub	a0,a0,s0
    52d4:	717d                	addi	sp,sp,-16
    52d6:	8ef1                	and	a3,a3,a2
    52d8:	037f9333          	mulh	t1,t6,s7
    52dc:	40865a1b          	sraiw	s4,a2,0x8
    52e0:	01a37233          	and	tp,t1,s10
    52e4:	029d29b3          	mulhsu	s3,s10,s1
    52e8:	090e                	slli	s2,s2,0x3
    52ea:	02817933          	remu	s2,sp,s0
    52ee:	40865a1b          	sraiw	s4,a2,0x8
    52f2:	5d328737          	lui	a4,0x5d328
    52f6:	8ef1                	and	a3,a3,a2
    52f8:	4048dcbb          	sraw	s9,a7,tp
    52fc:	4048dcbb          	sraw	s9,a7,tp
    5300:	4048dcbb          	sraw	s9,a7,tp
    5304:	5d328737          	lui	a4,0x5d328
    5308:	01a3ba33          	sltu	s4,t2,s10
    530c:	1f7d                	addi	t5,t5,-1
    530e:	02e189bb          	mulw	s3,gp,a4
    5312:	02e8b633          	mulhu	a2,a7,a4
    5316:	00fed41b          	srliw	s0,t4,0xf
    531a:	00fed41b          	srliw	s0,t4,0xf
    531e:	40865a1b          	sraiw	s4,a2,0x8
    5322:	0001                	nop
    5324:	8ef1                	and	a3,a3,a2
    5326:	54f6a993          	slti	s3,a3,1359
    532a:	00f31f9b          	slliw	t6,t1,0xf
    532e:	41c7043b          	subw	s0,a4,t3
    5332:	01320b3b          	addw	s6,tp,s3
    5336:	033fd793          	srli	a5,t6,0x33
    533a:	40dad233          	sra	tp,s5,a3
    533e:	00f31f9b          	slliw	t6,t1,0xf
    5342:	02e8b633          	mulhu	a2,a7,a4
    5346:	02dadfb3          	divu	t6,s5,a3
    534a:	42686493          	ori	s1,a6,1062
    534e:	40dad233          	sra	tp,s5,a3
    5352:	961a                	add	a2,a2,t1
    5354:	01320b3b          	addw	s6,tp,s3
    5358:	8ef1                	and	a3,a3,a2
    535a:	317d                	addiw	sp,sp,-1
    535c:	00fed41b          	srliw	s0,t4,0xf
    5360:	0a04                	addi	s1,sp,272
    5362:	090e                	slli	s2,s2,0x3
    5364:	02dadfb3          	divu	t6,s5,a3
    5368:	13ad0213          	addi	tp,s10,314
    536c:	8d01                	sub	a0,a0,s0
    536e:	1f7d                	addi	t5,t5,-1
    5370:	8d01                	sub	a0,a0,s0
    5372:	029d29b3          	mulhsu	s3,s10,s1
    5376:	41d98233          	sub	tp,s3,t4
    537a:	00fed41b          	srliw	s0,t4,0xf
    537e:	9abbcc93          	xori	s9,s7,-1621
    5382:	717d                	addi	sp,sp,-16
    5384:	717d                	addi	sp,sp,-16
    5386:	00fed41b          	srliw	s0,t4,0xf
    538a:	008643b3          	xor	t2,a2,s0
    538e:	03509613          	slli	a2,ra,0x35
    5392:	9ead                	addw	a3,a3,a1
    5394:	e9c89317          	auipc	t1,0xe9c89
    5398:	41d98233          	sub	tp,s3,t4
    539c:	717d                	addi	sp,sp,-16
    539e:	40675113          	srai	sp,a4,0x6
    53a2:	0a04                	addi	s1,sp,272
    53a4:	01182a33          	slt	s4,a6,a7
    53a8:	02817933          	remu	s2,sp,s0
    53ac:	02e964b3          	rem	s1,s2,a4
    53b0:	e0a1059b          	addiw	a1,sp,-502
    53b4:	38057713          	andi	a4,a0,896
    53b8:	0001                	nop
    53ba:	9abbcc93          	xori	s9,s7,-1621
    53be:	00fed41b          	srliw	s0,t4,0xf
    53c2:	6eed                	lui	t4,0x1b
    53c4:	6eed                	lui	t4,0x1b
    53c6:	016a92bb          	sllw	t0,s5,s6
    53ca:	00f164b3          	or	s1,sp,a5
    53ce:	40675113          	srai	sp,a4,0x6
    53d2:	987d                	andi	s0,s0,-1
    53d4:	00f31f9b          	slliw	t6,t1,0xf
    53d8:	8ef1                	and	a3,a3,a2
    53da:	00e1d23b          	srlw	tp,gp,a4
    53de:	40865a1b          	sraiw	s4,a2,0x8
    53e2:	40675113          	srai	sp,a4,0x6
    53e6:	8439                	srai	s0,s0,0xe
    53e8:	0398d53b          	divuw	a0,a7,s9
    53ec:	961a                	add	a2,a2,t1
    53ee:	0398d53b          	divuw	a0,a7,s9
    53f2:	41d98233          	sub	tp,s3,t4
    53f6:	0001                	nop
    53f8:	033fd793          	srli	a5,t6,0x33
    53fc:	0398d53b          	divuw	a0,a7,s9
    5400:	6eed                	lui	t4,0x1b
    5402:	02f24d3b          	divw	s10,tp,a5
    5406:	00f48133          	add	sp,s1,a5
    540a:	42686493          	ori	s1,a6,1062
    540e:	01320b3b          	addw	s6,tp,s3
    5412:	13ad0213          	addi	tp,s10,314
    5416:	dfa53c93          	sltiu	s9,a0,-518
    541a:	00f48133          	add	sp,s1,a5
    541e:	13ad0213          	addi	tp,s10,314
    5422:	016a92bb          	sllw	t0,s5,s6
    5426:	037f9333          	mulh	t1,t6,s7
    542a:	808d                	srli	s1,s1,0x3
    542c:	004e5ab3          	srl	s5,t3,tp
    5430:	51fd                	li	gp,-1
    5432:	00e1d23b          	srlw	tp,gp,a4
    5436:	02f24d3b          	divw	s10,tp,a5
    543a:	13ad0213          	addi	tp,s10,314
    543e:	02e964b3          	rem	s1,s2,a4
    5442:	00fed41b          	srliw	s0,t4,0xf
    5446:	00fed41b          	srliw	s0,t4,0xf
    544a:	0001                	nop
    544c:	02e8b633          	mulhu	a2,a7,a4
    5450:	02e964b3          	rem	s1,s2,a4
    5454:	02e964b3          	rem	s1,s2,a4
    5458:	01a37233          	and	tp,t1,s10
    545c:	00fed41b          	srliw	s0,t4,0xf
    5460:	02e964b3          	rem	s1,s2,a4
    5464:	fff0029b          	addiw	t0,zero,-1
    5468:	12fe                	slli	t0,t0,0x3f
    546a:	56fd                	li	a3,-1
    546c:	fcf1f637          	lui	a2,0xfcf1f
    5470:	8896061b          	addiw	a2,a2,-1911
    5474:	0632                	slli	a2,a2,0xc
    5476:	0625                	addi	a2,a2,9
    5478:	0636                	slli	a2,a2,0xd
    547a:	fd760613          	addi	a2,a2,-41 # fffffffffcf1efd7 <_end+0xfffffffffceff2d7>
    547e:	0632                	slli	a2,a2,0xc
    5480:	03760613          	addi	a2,a2,55
    5484:	58fd                	li	a7,-1
    5486:	4501                	li	a0,0
    5488:	4381                	li	t2,0
    548a:	fff0021b          	addiw	tp,zero,-1
    548e:	127e                	slli	tp,tp,0x3f
    5490:	fff0071b          	addiw	a4,zero,-1
    5494:	177e                	slli	a4,a4,0x3f
    5496:	fff00f1b          	addiw	t5,zero,-1
    549a:	1f7e                	slli	t5,t5,0x3f
    549c:	fff00d1b          	addiw	s10,zero,-1
    54a0:	1d7e                	slli	s10,s10,0x3f
    54a2:	5d328f37          	lui	t5,0x5d328
    54a6:	0001                	nop
    54a8:	e9c89717          	auipc	a4,0xe9c89
    54ac:	03e643b3          	div	t2,a2,t5
    54b0:	0252a233          	mulhsu	tp,t0,t0
    54b4:	03123733          	mulhu	a4,tp,a7
    54b8:	02c56633          	rem	a2,a0,a2
    54bc:	411202bb          	subw	t0,tp,a7
    54c0:	025d5d3b          	divuw	s10,s10,t0
    54c4:	41a20633          	sub	a2,tp,s10
    54c8:	e0a7069b          	addiw	a3,a4,-502
    54cc:	0001                	nop
    54ce:	03af53b3          	divu	t2,t5,s10
    54d2:	02e38f3b          	mulw	t5,t2,a4
    54d6:	03e643b3          	div	t2,a2,t5
    54da:	411202bb          	subw	t0,tp,a7
    54de:	02c56633          	rem	a2,a0,a2
    54e2:	01a702bb          	addw	t0,a4,s10
    54e6:	411202bb          	subw	t0,tp,a7
    54ea:	031278bb          	remuw	a7,tp,a7
    54ee:	024d43bb          	divw	t2,s10,tp
    54f2:	e9c89717          	auipc	a4,0xe9c89
    54f6:	037f9333          	mulh	t1,t6,s7
    54fa:	38057713          	andi	a4,a0,896
    54fe:	dfa53c93          	sltiu	s9,a0,-518
    5502:	00f31f9b          	slliw	t6,t1,0xf
    5506:	38057713          	andi	a4,a0,896
    550a:	02e8b633          	mulhu	a2,a7,a4
    550e:	9c8d                	subw	s1,s1,a1
    5510:	6eed                	lui	t4,0x1b
    5512:	01182a33          	slt	s4,a6,a7
    5516:	40865a1b          	sraiw	s4,a2,0x8
    551a:	0a04                	addi	s1,sp,272
    551c:	004e5ab3          	srl	s5,t3,tp
    5520:	717d                	addi	sp,sp,-16
    5522:	016a92bb          	sllw	t0,s5,s6
    5526:	0001                	nop
    5528:	0001                	nop
    552a:	02dadfb3          	divu	t6,s5,a3
    552e:	8ef1                	and	a3,a3,a2
    5530:	00f48133          	add	sp,s1,a5
    5534:	38057713          	andi	a4,a0,896
    5538:	808d                	srli	s1,s1,0x3
    553a:	1f7d                	addi	t5,t5,-1
    553c:	8439                	srai	s0,s0,0xe
    553e:	00fed41b          	srliw	s0,t4,0xf
    5542:	037f9333          	mulh	t1,t6,s7
    5546:	987d                	andi	s0,s0,-1
    5548:	54f6a993          	slti	s3,a3,1359
    554c:	02e8b633          	mulhu	a2,a7,a4
    5550:	00fed41b          	srliw	s0,t4,0xf
    5554:	090e                	slli	s2,s2,0x3
    5556:	13ad0213          	addi	tp,s10,314
    555a:	54f6a993          	slti	s3,a3,1359
    555e:	38057713          	andi	a4,a0,896
    5562:	9abbcc93          	xori	s9,s7,-1621
    5566:	808d                	srli	s1,s1,0x3
    5568:	037f9333          	mulh	t1,t6,s7
    556c:	0001                	nop
    556e:	41c7043b          	subw	s0,a4,t3
    5572:	961a                	add	a2,a2,t1
    5574:	38057713          	andi	a4,a0,896
    5578:	4048dcbb          	sraw	s9,a7,tp
    557c:	02e189bb          	mulw	s3,gp,a4
    5580:	e0a1059b          	addiw	a1,sp,-502
    5584:	987d                	andi	s0,s0,-1
    5586:	004e5ab3          	srl	s5,t3,tp
    558a:	e9c89317          	auipc	t1,0xe9c89
    558e:	40865a1b          	sraiw	s4,a2,0x8
    5592:	8ec9                	or	a3,a3,a0
    5594:	01f099b3          	sll	s3,ra,t6
    5598:	9abbcc93          	xori	s9,s7,-1621
    559c:	e9c89317          	auipc	t1,0xe9c89
    55a0:	0001                	nop
    55a2:	8d3d                	xor	a0,a0,a5
    55a4:	54f6a993          	slti	s3,a3,1359
    55a8:	03509613          	slli	a2,ra,0x35
    55ac:	01a3ba33          	sltu	s4,t2,s10
    55b0:	02dadfb3          	divu	t6,s5,a3
    55b4:	9c8d                	subw	s1,s1,a1
    55b6:	02e189bb          	mulw	s3,gp,a4
    55ba:	00f31f9b          	slliw	t6,t1,0xf
    55be:	961a                	add	a2,a2,t1
    55c0:	02e8b633          	mulhu	a2,a7,a4
    55c4:	1f7d                	addi	t5,t5,-1
    55c6:	02e8b633          	mulhu	a2,a7,a4
    55ca:	e0a1059b          	addiw	a1,sp,-502
    55ce:	02c78bb3          	mul	s7,a5,a2
    55d2:	004e5ab3          	srl	s5,t3,tp
    55d6:	8d3d                	xor	a0,a0,a5
    55d8:	6eed                	lui	t4,0x1b
    55da:	029d29b3          	mulhsu	s3,s10,s1
    55de:	01182a33          	slt	s4,a6,a7
    55e2:	8ef1                	and	a3,a3,a2
    55e4:	03509613          	slli	a2,ra,0x35
    55e8:	6eed                	lui	t4,0x1b
    55ea:	9abbcc93          	xori	s9,s7,-1621
    55ee:	e0a1059b          	addiw	a1,sp,-502
    55f2:	090e                	slli	s2,s2,0x3
    55f4:	9ead                	addw	a3,a3,a1
    55f6:	033fd793          	srli	a5,t6,0x33
    55fa:	00f31f9b          	slliw	t6,t1,0xf
    55fe:	9c8d                	subw	s1,s1,a1
    5600:	42686493          	ori	s1,a6,1062
    5604:	4048dcbb          	sraw	s9,a7,tp
    5608:	dfa53c93          	sltiu	s9,a0,-518
    560c:	5d328737          	lui	a4,0x5d328
    5610:	02e189bb          	mulw	s3,gp,a4
    5614:	02817933          	remu	s2,sp,s0
    5618:	987d                	andi	s0,s0,-1
    561a:	8ef1                	and	a3,a3,a2
    561c:	033fd793          	srli	a5,t6,0x33
    5620:	0a04                	addi	s1,sp,272
    5622:	0001                	nop
    5624:	008643b3          	xor	t2,a2,s0
    5628:	0398d53b          	divuw	a0,a7,s9
    562c:	317d                	addiw	sp,sp,-1
    562e:	00f164b3          	or	s1,sp,a5
    5632:	00fed41b          	srliw	s0,t4,0xf
    5636:	0a04                	addi	s1,sp,272
    5638:	4048dcbb          	sraw	s9,a7,tp
    563c:	987d                	andi	s0,s0,-1
    563e:	02dadfb3          	divu	t6,s5,a3
    5642:	987d                	andi	s0,s0,-1
    5644:	8439                	srai	s0,s0,0xe
    5646:	40865a1b          	sraiw	s4,a2,0x8
    564a:	00fed41b          	srliw	s0,t4,0xf
    564e:	42686493          	ori	s1,a6,1062
    5652:	8ef1                	and	a3,a3,a2
    5654:	016a92bb          	sllw	t0,s5,s6
    5658:	317d                	addiw	sp,sp,-1
    565a:	9c8d                	subw	s1,s1,a1
    565c:	40675113          	srai	sp,a4,0x6
    5660:	03e0c033          	div	zero,ra,t5
    5664:	00f31f9b          	slliw	t6,t1,0xf
    5668:	40dad233          	sra	tp,s5,a3
    566c:	6eed                	lui	t4,0x1b
    566e:	0001                	nop
    5670:	00f164b3          	or	s1,sp,a5
    5674:	e9c89317          	auipc	t1,0xe9c89
    5678:	40865a1b          	sraiw	s4,a2,0x8
    567c:	8ec9                	or	a3,a3,a0
    567e:	e0a1059b          	addiw	a1,sp,-502
    5682:	01a37233          	and	tp,t1,s10
    5686:	8ec9                	or	a3,a3,a0
    5688:	037f9333          	mulh	t1,t6,s7
    568c:	00fed41b          	srliw	s0,t4,0xf
    5690:	8d01                	sub	a0,a0,s0
    5692:	13ad0213          	addi	tp,s10,314
    5696:	0398d53b          	divuw	a0,a7,s9
    569a:	4048dcbb          	sraw	s9,a7,tp
    569e:	8d01                	sub	a0,a0,s0
    56a0:	00e1d23b          	srlw	tp,gp,a4
    56a4:	02e964b3          	rem	s1,s2,a4
    56a8:	5d328737          	lui	a4,0x5d328
    56ac:	5d328737          	lui	a4,0x5d328
    56b0:	033fd793          	srli	a5,t6,0x33
    56b4:	0313633b          	remw	t1,t1,a7
    56b8:	40865a1b          	sraiw	s4,a2,0x8
    56bc:	40dad233          	sra	tp,s5,a3
    56c0:	1f7d                	addi	t5,t5,-1
    56c2:	00f164b3          	or	s1,sp,a5
    56c6:	8439                	srai	s0,s0,0xe
    56c8:	029d29b3          	mulhsu	s3,s10,s1
    56cc:	0001                	nop
    56ce:	8ec9                	or	a3,a3,a0
    56d0:	0001                	nop
    56d2:	9c8d                	subw	s1,s1,a1
    56d4:	41d98233          	sub	tp,s3,t4
    56d8:	004e5ab3          	srl	s5,t3,tp
    56dc:	0001                	nop
    56de:	02e189bb          	mulw	s3,gp,a4
    56e2:	0001                	nop
    56e4:	808d                	srli	s1,s1,0x3
    56e6:	00f164b3          	or	s1,sp,a5
    56ea:	029d29b3          	mulhsu	s3,s10,s1
    56ee:	40dad233          	sra	tp,s5,a3
    56f2:	016a92bb          	sllw	t0,s5,s6
    56f6:	808d                	srli	s1,s1,0x3
    56f8:	03509613          	slli	a2,ra,0x35
    56fc:	00f164b3          	or	s1,sp,a5
    5700:	02dadfb3          	divu	t6,s5,a3
    5704:	037f9333          	mulh	t1,t6,s7
    5708:	0001                	nop
    570a:	717d                	addi	sp,sp,-16
    570c:	8d01                	sub	a0,a0,s0
    570e:	0001                	nop
    5710:	41c7043b          	subw	s0,a4,t3
    5714:	033fd793          	srli	a5,t6,0x33
    5718:	090e                	slli	s2,s2,0x3
    571a:	6eed                	lui	t4,0x1b
    571c:	1f7d                	addi	t5,t5,-1
    571e:	02e964b3          	rem	s1,s2,a4
    5722:	9ead                	addw	a3,a3,a1
    5724:	00f48133          	add	sp,s1,a5
    5728:	9c8d                	subw	s1,s1,a1
    572a:	01a37233          	and	tp,t1,s10
    572e:	9abbcc93          	xori	s9,s7,-1621
    5732:	029d29b3          	mulhsu	s3,s10,s1
    5736:	8ef1                	and	a3,a3,a2
    5738:	9ead                	addw	a3,a3,a1
    573a:	808d                	srli	s1,s1,0x3
    573c:	41d98233          	sub	tp,s3,t4
    5740:	808d                	srli	s1,s1,0x3
    5742:	42686493          	ori	s1,a6,1062
    5746:	01a37233          	and	tp,t1,s10
    574a:	0398d53b          	divuw	a0,a7,s9
    574e:	8d01                	sub	a0,a0,s0
    5750:	317d                	addiw	sp,sp,-1
    5752:	8439                	srai	s0,s0,0xe
    5754:	88d2                	mv	a7,s4
    5756:	88d2                	mv	a7,s4
    5758:	00fed41b          	srliw	s0,t4,0xf
    575c:	9ead                	addw	a3,a3,a1
    575e:	13ad0213          	addi	tp,s10,314
    5762:	38057713          	andi	a4,a0,896
    5766:	5d328737          	lui	a4,0x5d328
    576a:	88d2                	mv	a7,s4
    576c:	51fd                	li	gp,-1
    576e:	01a3ba33          	sltu	s4,t2,s10
    5772:	01a37233          	and	tp,t1,s10
    5776:	02e8b633          	mulhu	a2,a7,a4
    577a:	0001                	nop
    577c:	02e189bb          	mulw	s3,gp,a4
    5780:	40675113          	srai	sp,a4,0x6
    5784:	03509613          	slli	a2,ra,0x35
    5788:	0a04                	addi	s1,sp,272
    578a:	01182a33          	slt	s4,a6,a7
    578e:	54f6a993          	slti	s3,a3,1359
    5792:	40865a1b          	sraiw	s4,a2,0x8
    5796:	039f7a3b          	remuw	s4,t5,s9
    579a:	9ead                	addw	a3,a3,a1
    579c:	8d01                	sub	a0,a0,s0
    579e:	00e1d23b          	srlw	tp,gp,a4
    57a2:	02dadfb3          	divu	t6,s5,a3
    57a6:	0a04                	addi	s1,sp,272
    57a8:	40675113          	srai	sp,a4,0x6
    57ac:	40675113          	srai	sp,a4,0x6
    57b0:	00f31f9b          	slliw	t6,t1,0xf
    57b4:	987d                	andi	s0,s0,-1
    57b6:	02e189bb          	mulw	s3,gp,a4
    57ba:	5a7d                	li	s4,-1
    57bc:	fff0019b          	addiw	gp,zero,-1
    57c0:	11fe                	slli	gp,gp,0x3f
    57c2:	ffc82d37          	lui	s10,0xffc82
    57c6:	725d0d1b          	addiw	s10,s10,1829
    57ca:	0d32                	slli	s10,s10,0xc
    57cc:	20fd0d13          	addi	s10,s10,527 # ffffffffffc8220f <_end+0xffffffffffc6250f>
    57d0:	0d32                	slli	s10,s10,0xc
    57d2:	8cfd0d13          	addi	s10,s10,-1841
    57d6:	0d42                	slli	s10,s10,0x10
    57d8:	54fd0d13          	addi	s10,s10,1359
    57dc:	fff0041b          	addiw	s0,zero,-1
    57e0:	147e                	slli	s0,s0,0x3f
    57e2:	f88077b7          	lui	a5,0xf8807
    57e6:	59d7879b          	addiw	a5,a5,1437
    57ea:	07b2                	slli	a5,a5,0xc
    57ec:	5a778793          	addi	a5,a5,1447 # fffffffff88075a7 <_end+0xfffffffff87e78a7>
    57f0:	07b2                	slli	a5,a5,0xc
    57f2:	8eb78793          	addi	a5,a5,-1813
    57f6:	07b2                	slli	a5,a5,0xc
    57f8:	44c78793          	addi	a5,a5,1100
    57fc:	f798c337          	lui	t1,0xf798c
    5800:	6053031b          	addiw	t1,t1,1541
    5804:	0346                	slli	t1,t1,0x11
    5806:	8af30313          	addi	t1,t1,-1873 # fffffffff798b8af <_end+0xfffffffff796bbaf>
    580a:	034a                	slli	t1,t1,0x12
    580c:	8b930313          	addi	t1,t1,-1863
    5810:	4101                	li	sp,0
    5812:	fc2806b7          	lui	a3,0xfc280
    5816:	2536869b          	addiw	a3,a3,595
    581a:	06b2                	slli	a3,a3,0xc
    581c:	23568693          	addi	a3,a3,565 # fffffffffc280235 <_end+0xfffffffffc260535>
    5820:	06b2                	slli	a3,a3,0xc
    5822:	c0368693          	addi	a3,a3,-1021
    5826:	06b2                	slli	a3,a3,0xc
    5828:	51168693          	addi	a3,a3,1297
    582c:	fe1088b7          	lui	a7,0xfe108
    5830:	6bf8889b          	addiw	a7,a7,1727
    5834:	08b6                	slli	a7,a7,0xd
    5836:	dbd88893          	addi	a7,a7,-579 # fffffffffe107dbd <_end+0xfffffffffe0e80bd>
    583a:	08b2                	slli	a7,a7,0xc
    583c:	62188893          	addi	a7,a7,1569
    5840:	08b2                	slli	a7,a7,0xc
    5842:	62e88893          	addi	a7,a7,1582
    5846:	fff0051b          	addiw	a0,zero,-1
    584a:	157e                	slli	a0,a0,0x3f
    584c:	4144033b          	subw	t1,s0,s4
    5850:	0001                	nop
    5852:	02844133          	div	sp,s0,s0
    5856:	02844133          	div	sp,s0,s0
    585a:	03468d33          	mul	s10,a3,s4
    585e:	031a3133          	mulhu	sp,s4,a7
    5862:	02844133          	div	sp,s0,s0
    5866:	13aa0413          	addi	s0,s4,314
    586a:	00dd0a3b          	addw	s4,s10,a3
    586e:	026d47bb          	divw	a5,s10,t1
    5872:	03468d33          	mul	s10,a3,s4
    5876:	02d1533b          	divuw	t1,sp,a3
    587a:	03468d33          	mul	s10,a3,s4
    587e:	03a168bb          	remw	a7,sp,s10
    5882:	41aa0a33          	sub	s4,s4,s10
    5886:	88d2                	mv	a7,s4
    5888:	8439                	srai	s0,s0,0xe
    588a:	9abbcc93          	xori	s9,s7,-1621
    588e:	8d01                	sub	a0,a0,s0
    5890:	6eed                	lui	t4,0x1b
    5892:	01320b3b          	addw	s6,tp,s3
    5896:	40865a1b          	sraiw	s4,a2,0x8
    589a:	0a04                	addi	s1,sp,272
    589c:	6eed                	lui	t4,0x1b
    589e:	03e0c033          	div	zero,ra,t5
    58a2:	717d                	addi	sp,sp,-16
    58a4:	016a92bb          	sllw	t0,s5,s6
    58a8:	00f31f9b          	slliw	t6,t1,0xf
    58ac:	9ead                	addw	a3,a3,a1
    58ae:	38057713          	andi	a4,a0,896
    58b2:	01f099b3          	sll	s3,ra,t6
    58b6:	317d                	addiw	sp,sp,-1
    58b8:	9c8d                	subw	s1,s1,a1
    58ba:	090e                	slli	s2,s2,0x3
    58bc:	51fd                	li	gp,-1
    58be:	40dad233          	sra	tp,s5,a3
    58c2:	00f164b3          	or	s1,sp,a5
    58c6:	037f9333          	mulh	t1,t6,s7
    58ca:	51fd                	li	gp,-1
    58cc:	40865a1b          	sraiw	s4,a2,0x8
    58d0:	00f48133          	add	sp,s1,a5
    58d4:	9ead                	addw	a3,a3,a1
    58d6:	033fd793          	srli	a5,t6,0x33
    58da:	008643b3          	xor	t2,a2,s0
    58de:	13ad0213          	addi	tp,s10,314
    58e2:	00e1d23b          	srlw	tp,gp,a4
    58e6:	8d3d                	xor	a0,a0,a5
    58e8:	8d01                	sub	a0,a0,s0
    58ea:	03e0c033          	div	zero,ra,t5
    58ee:	02e189bb          	mulw	s3,gp,a4
    58f2:	40865a1b          	sraiw	s4,a2,0x8
    58f6:	808d                	srli	s1,s1,0x3
    58f8:	008643b3          	xor	t2,a2,s0
    58fc:	9abbcc93          	xori	s9,s7,-1621
    5900:	0001                	nop
    5902:	8d01                	sub	a0,a0,s0
    5904:	9ead                	addw	a3,a3,a1
    5906:	51fd                	li	gp,-1
    5908:	0313633b          	remw	t1,t1,a7
    590c:	039f7a3b          	remuw	s4,t5,s9
    5910:	1f7d                	addi	t5,t5,-1
    5912:	9abbcc93          	xori	s9,s7,-1621
    5916:	40dad233          	sra	tp,s5,a3
    591a:	033fd793          	srli	a5,t6,0x33
    591e:	029d29b3          	mulhsu	s3,s10,s1
    5922:	1f7d                	addi	t5,t5,-1
    5924:	e0a1059b          	addiw	a1,sp,-502
    5928:	9ead                	addw	a3,a3,a1
    592a:	01182a33          	slt	s4,a6,a7
    592e:	008643b3          	xor	t2,a2,s0
    5932:	e9c89317          	auipc	t1,0xe9c89
    5936:	090e                	slli	s2,s2,0x3
    5938:	039f7a3b          	remuw	s4,t5,s9
    593c:	008643b3          	xor	t2,a2,s0
    5940:	02dadfb3          	divu	t6,s5,a3
    5944:	02dadfb3          	divu	t6,s5,a3
    5948:	88d2                	mv	a7,s4
    594a:	1f7d                	addi	t5,t5,-1
    594c:	88d2                	mv	a7,s4
    594e:	41d98233          	sub	tp,s3,t4
    5952:	01a37233          	and	tp,t1,s10
    5956:	42686493          	ori	s1,a6,1062
    595a:	016a92bb          	sllw	t0,s5,s6
    595e:	e0a1059b          	addiw	a1,sp,-502
    5962:	317d                	addiw	sp,sp,-1
    5964:	987d                	andi	s0,s0,-1
    5966:	40675113          	srai	sp,a4,0x6
    596a:	00f164b3          	or	s1,sp,a5
    596e:	41d98233          	sub	tp,s3,t4
    5972:	004e5ab3          	srl	s5,t3,tp
    5976:	41c7043b          	subw	s0,a4,t3
    597a:	0001                	nop
    597c:	02e189bb          	mulw	s3,gp,a4
    5980:	0398d53b          	divuw	a0,a7,s9
    5984:	0001                	nop
    5986:	40675113          	srai	sp,a4,0x6
    598a:	40dad233          	sra	tp,s5,a3
    598e:	090e                	slli	s2,s2,0x3
    5990:	41d98233          	sub	tp,s3,t4
    5994:	00f48133          	add	sp,s1,a5
    5998:	039f7a3b          	remuw	s4,t5,s9
    599c:	02c78bb3          	mul	s7,a5,a2
    59a0:	8439                	srai	s0,s0,0xe
    59a2:	41c7043b          	subw	s0,a4,t3
    59a6:	9abbcc93          	xori	s9,s7,-1621
    59aa:	54f6a993          	slti	s3,a3,1359
    59ae:	42686493          	ori	s1,a6,1062
    59b2:	01a37233          	and	tp,t1,s10
    59b6:	8d3d                	xor	a0,a0,a5
    59b8:	037f9333          	mulh	t1,t6,s7
    59bc:	02817933          	remu	s2,sp,s0
    59c0:	317d                	addiw	sp,sp,-1
    59c2:	5d328737          	lui	a4,0x5d328
    59c6:	01182a33          	slt	s4,a6,a7
    59ca:	02c78bb3          	mul	s7,a5,a2
    59ce:	9abbcc93          	xori	s9,s7,-1621
    59d2:	00f164b3          	or	s1,sp,a5
    59d6:	41c7043b          	subw	s0,a4,t3
    59da:	02e8b633          	mulhu	a2,a7,a4
    59de:	029d29b3          	mulhsu	s3,s10,s1
    59e2:	8d01                	sub	a0,a0,s0
    59e4:	00fed41b          	srliw	s0,t4,0xf
    59e8:	54f6a993          	slti	s3,a3,1359
    59ec:	dfa53c93          	sltiu	s9,a0,-518
    59f0:	dfa53c93          	sltiu	s9,a0,-518
    59f4:	01f099b3          	sll	s3,ra,t6
    59f8:	9c8d                	subw	s1,s1,a1
    59fa:	987d                	andi	s0,s0,-1
    59fc:	e0a1059b          	addiw	a1,sp,-502
    5a00:	090e                	slli	s2,s2,0x3
    5a02:	01320b3b          	addw	s6,tp,s3
    5a06:	42686493          	ori	s1,a6,1062
    5a0a:	40865a1b          	sraiw	s4,a2,0x8
    5a0e:	01182a33          	slt	s4,a6,a7
    5a12:	00f31f9b          	slliw	t6,t1,0xf
    5a16:	13ad0213          	addi	tp,s10,314
    5a1a:	8d01                	sub	a0,a0,s0
    5a1c:	090e                	slli	s2,s2,0x3
    5a1e:	008643b3          	xor	t2,a2,s0
    5a22:	0001                	nop
    5a24:	0a04                	addi	s1,sp,272
    5a26:	0313633b          	remw	t1,t1,a7
    5a2a:	9abbcc93          	xori	s9,s7,-1621
    5a2e:	40675113          	srai	sp,a4,0x6
    5a32:	00e1d23b          	srlw	tp,gp,a4
    5a36:	00f31f9b          	slliw	t6,t1,0xf
    5a3a:	41d98233          	sub	tp,s3,t4
    5a3e:	40dad233          	sra	tp,s5,a3
    5a42:	008643b3          	xor	t2,a2,s0
    5a46:	54f6a993          	slti	s3,a3,1359
    5a4a:	dfa53c93          	sltiu	s9,a0,-518
    5a4e:	00f48133          	add	sp,s1,a5
    5a52:	02f24d3b          	divw	s10,tp,a5
    5a56:	8d3d                	xor	a0,a0,a5
    5a58:	00f48133          	add	sp,s1,a5
    5a5c:	8439                	srai	s0,s0,0xe
    5a5e:	317d                	addiw	sp,sp,-1
    5a60:	1f7d                	addi	t5,t5,-1
    5a62:	51fd                	li	gp,-1
    5a64:	961a                	add	a2,a2,t1
    5a66:	02c78bb3          	mul	s7,a5,a2
    5a6a:	317d                	addiw	sp,sp,-1
    5a6c:	8ec9                	or	a3,a3,a0
    5a6e:	02dadfb3          	divu	t6,s5,a3
    5a72:	02dadfb3          	divu	t6,s5,a3
    5a76:	987d                	andi	s0,s0,-1
    5a78:	e0a1059b          	addiw	a1,sp,-502
    5a7c:	02e189bb          	mulw	s3,gp,a4
    5a80:	42686493          	ori	s1,a6,1062
    5a84:	0001                	nop
    5a86:	40865a1b          	sraiw	s4,a2,0x8
    5a8a:	8ec9                	or	a3,a3,a0
    5a8c:	037f9333          	mulh	t1,t6,s7
    5a90:	090e                	slli	s2,s2,0x3
    5a92:	02c78bb3          	mul	s7,a5,a2
    5a96:	029d29b3          	mulhsu	s3,s10,s1
    5a9a:	5d328737          	lui	a4,0x5d328
    5a9e:	13ad0213          	addi	tp,s10,314
    5aa2:	961a                	add	a2,a2,t1
    5aa4:	e0a1059b          	addiw	a1,sp,-502
    5aa8:	0001                	nop
    5aaa:	00e1d23b          	srlw	tp,gp,a4
    5aae:	02e964b3          	rem	s1,s2,a4
    5ab2:	9abbcc93          	xori	s9,s7,-1621
    5ab6:	037f9333          	mulh	t1,t6,s7
    5aba:	0313633b          	remw	t1,t1,a7
    5abe:	808d                	srli	s1,s1,0x3
    5ac0:	88d2                	mv	a7,s4
    5ac2:	03e0c033          	div	zero,ra,t5
    5ac6:	13ad0213          	addi	tp,s10,314
    5aca:	033fd793          	srli	a5,t6,0x33
    5ace:	0a04                	addi	s1,sp,272
    5ad0:	00f31f9b          	slliw	t6,t1,0xf
    5ad4:	00f164b3          	or	s1,sp,a5
    5ad8:	03509613          	slli	a2,ra,0x35
    5adc:	5d328737          	lui	a4,0x5d328
    5ae0:	01a3ba33          	sltu	s4,t2,s10
    5ae4:	4048dcbb          	sraw	s9,a7,tp
    5ae8:	4048dcbb          	sraw	s9,a7,tp
    5aec:	13ad0213          	addi	tp,s10,314
    5af0:	38057713          	andi	a4,a0,896
    5af4:	317d                	addiw	sp,sp,-1
    5af6:	0001                	nop
    5af8:	0001                	nop
    5afa:	38057713          	andi	a4,a0,896
    5afe:	51fd                	li	gp,-1
    5b00:	9c8d                	subw	s1,s1,a1
    5b02:	01a37233          	and	tp,t1,s10
    5b06:	00fed41b          	srliw	s0,t4,0xf
    5b0a:	717d                	addi	sp,sp,-16
    5b0c:	016a92bb          	sllw	t0,s5,s6
    5b10:	00f48133          	add	sp,s1,a5
    5b14:	8ec9                	or	a3,a3,a0
    5b16:	02c78bb3          	mul	s7,a5,a2
    5b1a:	02e8b633          	mulhu	a2,a7,a4
    5b1e:	54f6a993          	slti	s3,a3,1359
    5b22:	8ec9                	or	a3,a3,a0
    5b24:	40dad233          	sra	tp,s5,a3
    5b28:	41d98233          	sub	tp,s3,t4
    5b2c:	02e189bb          	mulw	s3,gp,a4
    5b30:	0a04                	addi	s1,sp,272
    5b32:	00e1d23b          	srlw	tp,gp,a4
    5b36:	41c7043b          	subw	s0,a4,t3
    5b3a:	961a                	add	a2,a2,t1
    5b3c:	02f24d3b          	divw	s10,tp,a5
    5b40:	317d                	addiw	sp,sp,-1
    5b42:	02817933          	remu	s2,sp,s0
    5b46:	02817933          	remu	s2,sp,s0
    5b4a:	0313633b          	remw	t1,t1,a7
    5b4e:	01a3ba33          	sltu	s4,t2,s10
    5b52:	51fd                	li	gp,-1
    5b54:	008643b3          	xor	t2,a2,s0
    5b58:	02c78bb3          	mul	s7,a5,a2
    5b5c:	090e                	slli	s2,s2,0x3
    5b5e:	03509613          	slli	a2,ra,0x35
    5b62:	03509613          	slli	a2,ra,0x35
    5b66:	717d                	addi	sp,sp,-16
    5b68:	42686493          	ori	s1,a6,1062
    5b6c:	1f7d                	addi	t5,t5,-1
    5b6e:	51fd                	li	gp,-1
    5b70:	02e8b633          	mulhu	a2,a7,a4
    5b74:	41d98233          	sub	tp,s3,t4
    5b78:	e9c89317          	auipc	t1,0xe9c89
    5b7c:	02e189bb          	mulw	s3,gp,a4
    5b80:	5d328737          	lui	a4,0x5d328
    5b84:	0a04                	addi	s1,sp,272
    5b86:	02e189bb          	mulw	s3,gp,a4
    5b8a:	8ef1                	and	a3,a3,a2
    5b8c:	9abbcc93          	xori	s9,s7,-1621
    5b90:	0001                	nop
    5b92:	5d328737          	lui	a4,0x5d328
    5b96:	88d2                	mv	a7,s4
    5b98:	8ec9                	or	a3,a3,a0
    5b9a:	02dadfb3          	divu	t6,s5,a3
    5b9e:	8ec9                	or	a3,a3,a0
    5ba0:	016a92bb          	sllw	t0,s5,s6
    5ba4:	01f099b3          	sll	s3,ra,t6
    5ba8:	0398d53b          	divuw	a0,a7,s9
    5bac:	987d                	andi	s0,s0,-1
    5bae:	00f31f9b          	slliw	t6,t1,0xf
    5bb2:	41c7043b          	subw	s0,a4,t3
    5bb6:	02e189bb          	mulw	s3,gp,a4
    5bba:	0398d53b          	divuw	a0,a7,s9
    5bbe:	e9c89317          	auipc	t1,0xe9c89
    5bc2:	01a3ba33          	sltu	s4,t2,s10
    5bc6:	029d29b3          	mulhsu	s3,s10,s1
    5bca:	008643b3          	xor	t2,a2,s0
    5bce:	9c8d                	subw	s1,s1,a1
    5bd0:	03e0c033          	div	zero,ra,t5
    5bd4:	8d3d                	xor	a0,a0,a5
    5bd6:	01320b3b          	addw	s6,tp,s3
    5bda:	9abbcc93          	xori	s9,s7,-1621
    5bde:	961a                	add	a2,a2,t1
    5be0:	02dadfb3          	divu	t6,s5,a3
    5be4:	6eed                	lui	t4,0x1b
    5be6:	00e1d23b          	srlw	tp,gp,a4
    5bea:	54f6a993          	slti	s3,a3,1359
    5bee:	033fd793          	srli	a5,t6,0x33
    5bf2:	00f48133          	add	sp,s1,a5
    5bf6:	008643b3          	xor	t2,a2,s0
    5bfa:	51fd                	li	gp,-1
    5bfc:	8d01                	sub	a0,a0,s0
    5bfe:	717d                	addi	sp,sp,-16
    5c00:	02f24d3b          	divw	s10,tp,a5
    5c04:	033fd793          	srli	a5,t6,0x33
    5c08:	00e1d23b          	srlw	tp,gp,a4
    5c0c:	6eed                	lui	t4,0x1b
    5c0e:	01f099b3          	sll	s3,ra,t6
    5c12:	0313633b          	remw	t1,t1,a7
    5c16:	5d328737          	lui	a4,0x5d328
    5c1a:	8ec9                	or	a3,a3,a0
    5c1c:	02e8b633          	mulhu	a2,a7,a4
    5c20:	42686493          	ori	s1,a6,1062
    5c24:	88d2                	mv	a7,s4
    5c26:	02e964b3          	rem	s1,s2,a4
    5c2a:	88d2                	mv	a7,s4
    5c2c:	03e0c033          	div	zero,ra,t5
    5c30:	41d98233          	sub	tp,s3,t4
    5c34:	02e964b3          	rem	s1,s2,a4
    5c38:	40865a1b          	sraiw	s4,a2,0x8
    5c3c:	9c8d                	subw	s1,s1,a1
    5c3e:	01f099b3          	sll	s3,ra,t6
    5c42:	090e                	slli	s2,s2,0x3
    5c44:	02f24d3b          	divw	s10,tp,a5
    5c48:	88d2                	mv	a7,s4
    5c4a:	00f31f9b          	slliw	t6,t1,0xf
    5c4e:	01182a33          	slt	s4,a6,a7
    5c52:	039f7a3b          	remuw	s4,t5,s9
    5c56:	717d                	addi	sp,sp,-16
    5c58:	42686493          	ori	s1,a6,1062
    5c5c:	0398d53b          	divuw	a0,a7,s9
    5c60:	9abbcc93          	xori	s9,s7,-1621
    5c64:	03509613          	slli	a2,ra,0x35
    5c68:	8ec9                	or	a3,a3,a0
    5c6a:	40dad233          	sra	tp,s5,a3
    5c6e:	dfa53c93          	sltiu	s9,a0,-518
    5c72:	039f7a3b          	remuw	s4,t5,s9
    5c76:	0313633b          	remw	t1,t1,a7
    5c7a:	02dadfb3          	divu	t6,s5,a3
    5c7e:	01320b3b          	addw	s6,tp,s3
    5c82:	02dadfb3          	divu	t6,s5,a3
    5c86:	00fed41b          	srliw	s0,t4,0xf
    5c8a:	4048dcbb          	sraw	s9,a7,tp
    5c8e:	02e8b633          	mulhu	a2,a7,a4
    5c92:	00f164b3          	or	s1,sp,a5
    5c96:	42686493          	ori	s1,a6,1062
    5c9a:	40675113          	srai	sp,a4,0x6
    5c9e:	8439                	srai	s0,s0,0xe
    5ca0:	4048dcbb          	sraw	s9,a7,tp
    5ca4:	016a92bb          	sllw	t0,s5,s6
    5ca8:	02dadfb3          	divu	t6,s5,a3
    5cac:	e9c89317          	auipc	t1,0xe9c89
    5cb0:	41d98233          	sub	tp,s3,t4
    5cb4:	02e8b633          	mulhu	a2,a7,a4
    5cb8:	5d328737          	lui	a4,0x5d328
    5cbc:	42686493          	ori	s1,a6,1062
    5cc0:	8ef1                	and	a3,a3,a2
    5cc2:	02e189bb          	mulw	s3,gp,a4
    5cc6:	008643b3          	xor	t2,a2,s0
    5cca:	961a                	add	a2,a2,t1
    5ccc:	8ef1                	and	a3,a3,a2
    5cce:	40675113          	srai	sp,a4,0x6
    5cd2:	88d2                	mv	a7,s4
    5cd4:	8ef1                	and	a3,a3,a2
    5cd6:	1f7d                	addi	t5,t5,-1
    5cd8:	717d                	addi	sp,sp,-16
    5cda:	e9c89317          	auipc	t1,0xe9c89
    5cde:	13ad0213          	addi	tp,s10,314
    5ce2:	40675113          	srai	sp,a4,0x6
    5ce6:	1f7d                	addi	t5,t5,-1
    5ce8:	38057713          	andi	a4,a0,896
    5cec:	9ead                	addw	a3,a3,a1
    5cee:	02e964b3          	rem	s1,s2,a4
    5cf2:	e9c89317          	auipc	t1,0xe9c89
    5cf6:	00f48133          	add	sp,s1,a5
    5cfa:	090e                	slli	s2,s2,0x3
    5cfc:	0001                	nop
    5cfe:	8ef1                	and	a3,a3,a2
    5d00:	01182a33          	slt	s4,a6,a7
    5d04:	01a3ba33          	sltu	s4,t2,s10
    5d08:	01182a33          	slt	s4,a6,a7
    5d0c:	03509613          	slli	a2,ra,0x35
    5d10:	02dadfb3          	divu	t6,s5,a3
    5d14:	00f48133          	add	sp,s1,a5
    5d18:	961a                	add	a2,a2,t1
    5d1a:	03509613          	slli	a2,ra,0x35
    5d1e:	090e                	slli	s2,s2,0x3
    5d20:	8ec9                	or	a3,a3,a0
    5d22:	00f31f9b          	slliw	t6,t1,0xf
    5d26:	6eed                	lui	t4,0x1b
    5d28:	01a37233          	and	tp,t1,s10
    5d2c:	9ead                	addw	a3,a3,a1
    5d2e:	02e189bb          	mulw	s3,gp,a4
    5d32:	00f164b3          	or	s1,sp,a5
    5d36:	0398d53b          	divuw	a0,a7,s9
    5d3a:	02e8b633          	mulhu	a2,a7,a4
    5d3e:	03509613          	slli	a2,ra,0x35
    5d42:	54f6a993          	slti	s3,a3,1359
    5d46:	9c8d                	subw	s1,s1,a1
    5d48:	e0a1059b          	addiw	a1,sp,-502
    5d4c:	8439                	srai	s0,s0,0xe
    5d4e:	e0a1059b          	addiw	a1,sp,-502
    5d52:	039f7a3b          	remuw	s4,t5,s9
    5d56:	42686493          	ori	s1,a6,1062
    5d5a:	00e1d23b          	srlw	tp,gp,a4
    5d5e:	9ead                	addw	a3,a3,a1
    5d60:	8d3d                	xor	a0,a0,a5
    5d62:	01f099b3          	sll	s3,ra,t6
    5d66:	008643b3          	xor	t2,a2,s0
    5d6a:	8439                	srai	s0,s0,0xe
    5d6c:	008643b3          	xor	t2,a2,s0
    5d70:	40865a1b          	sraiw	s4,a2,0x8
    5d74:	03e0c033          	div	zero,ra,t5
    5d78:	40675113          	srai	sp,a4,0x6
    5d7c:	01f099b3          	sll	s3,ra,t6
    5d80:	0001                	nop
    5d82:	e0a1059b          	addiw	a1,sp,-502
    5d86:	004e5ab3          	srl	s5,t3,tp
    5d8a:	9abbcc93          	xori	s9,s7,-1621
    5d8e:	8ef1                	and	a3,a3,a2
    5d90:	42686493          	ori	s1,a6,1062
    5d94:	9ead                	addw	a3,a3,a1
    5d96:	961a                	add	a2,a2,t1
    5d98:	987d                	andi	s0,s0,-1
    5d9a:	01a37233          	and	tp,t1,s10
    5d9e:	029d29b3          	mulhsu	s3,s10,s1
    5da2:	41c7043b          	subw	s0,a4,t3
    5da6:	e9c89317          	auipc	t1,0xe9c89
    5daa:	00f164b3          	or	s1,sp,a5
    5dae:	dfa53c93          	sltiu	s9,a0,-518
    5db2:	4048dcbb          	sraw	s9,a7,tp
    5db6:	01a37233          	and	tp,t1,s10
    5dba:	6eed                	lui	t4,0x1b
    5dbc:	02f24d3b          	divw	s10,tp,a5
    5dc0:	00fed41b          	srliw	s0,t4,0xf
    5dc4:	42686493          	ori	s1,a6,1062
    5dc8:	5d328737          	lui	a4,0x5d328
    5dcc:	0001                	nop
    5dce:	1f7d                	addi	t5,t5,-1
    5dd0:	01a3ba33          	sltu	s4,t2,s10
    5dd4:	033fd793          	srli	a5,t6,0x33
    5dd8:	9c8d                	subw	s1,s1,a1
    5dda:	e9c89317          	auipc	t1,0xe9c89
    5dde:	0001                	nop
    5de0:	004e5ab3          	srl	s5,t3,tp
    5de4:	037f9333          	mulh	t1,t6,s7
    5de8:	54f6a993          	slti	s3,a3,1359
    5dec:	02f24d3b          	divw	s10,tp,a5
    5df0:	02f24d3b          	divw	s10,tp,a5
    5df4:	8d01                	sub	a0,a0,s0
    5df6:	0a04                	addi	s1,sp,272
    5df8:	dfa53c93          	sltiu	s9,a0,-518
    5dfc:	88d2                	mv	a7,s4
    5dfe:	54f6a993          	slti	s3,a3,1359
    5e02:	54f6a993          	slti	s3,a3,1359
    5e06:	00e1d23b          	srlw	tp,gp,a4
    5e0a:	9ead                	addw	a3,a3,a1
    5e0c:	317d                	addiw	sp,sp,-1
    5e0e:	0313633b          	remw	t1,t1,a7
    5e12:	961a                	add	a2,a2,t1
    5e14:	9ead                	addw	a3,a3,a1
    5e16:	008643b3          	xor	t2,a2,s0
    5e1a:	4048dcbb          	sraw	s9,a7,tp
    5e1e:	03e0c033          	div	zero,ra,t5
    5e22:	01182a33          	slt	s4,a6,a7
    5e26:	0313633b          	remw	t1,t1,a7
    5e2a:	5d328737          	lui	a4,0x5d328
    5e2e:	8d3d                	xor	a0,a0,a5
    5e30:	41d98233          	sub	tp,s3,t4
    5e34:	02dadfb3          	divu	t6,s5,a3
    5e38:	01f099b3          	sll	s3,ra,t6
    5e3c:	016a92bb          	sllw	t0,s5,s6
    5e40:	039f7a3b          	remuw	s4,t5,s9
    5e44:	88d2                	mv	a7,s4
    5e46:	01a37233          	and	tp,t1,s10
    5e4a:	40675113          	srai	sp,a4,0x6
    5e4e:	717d                	addi	sp,sp,-16
    5e50:	004e5ab3          	srl	s5,t3,tp
    5e54:	317d                	addiw	sp,sp,-1
    5e56:	8d3d                	xor	a0,a0,a5
    5e58:	00fed41b          	srliw	s0,t4,0xf
    5e5c:	8ef1                	and	a3,a3,a2
    5e5e:	8439                	srai	s0,s0,0xe
    5e60:	40865a1b          	sraiw	s4,a2,0x8
    5e64:	02c78bb3          	mul	s7,a5,a2
    5e68:	41d98233          	sub	tp,s3,t4
    5e6c:	5d328737          	lui	a4,0x5d328
    5e70:	317d                	addiw	sp,sp,-1
    5e72:	0001                	nop
    5e74:	033fd793          	srli	a5,t6,0x33
    5e78:	8ef1                	and	a3,a3,a2
    5e7a:	42686493          	ori	s1,a6,1062
    5e7e:	029d29b3          	mulhsu	s3,s10,s1
    5e82:	88d2                	mv	a7,s4
    5e84:	03e0c033          	div	zero,ra,t5
    5e88:	5d328737          	lui	a4,0x5d328
    5e8c:	008643b3          	xor	t2,a2,s0
    5e90:	9abbcc93          	xori	s9,s7,-1621
    5e94:	039f7a3b          	remuw	s4,t5,s9
    5e98:	808d                	srli	s1,s1,0x3
    5e9a:	dfa53c93          	sltiu	s9,a0,-518
    5e9e:	9abbcc93          	xori	s9,s7,-1621
    5ea2:	00f164b3          	or	s1,sp,a5
    5ea6:	8d01                	sub	a0,a0,s0
    5ea8:	54f6a993          	slti	s3,a3,1359
    5eac:	40865a1b          	sraiw	s4,a2,0x8
    5eb0:	00f48133          	add	sp,s1,a5
    5eb4:	40675113          	srai	sp,a4,0x6
    5eb8:	88d2                	mv	a7,s4
    5eba:	0001                	nop
    5ebc:	033fd793          	srli	a5,t6,0x33
    5ec0:	0001                	nop
    5ec2:	40dad233          	sra	tp,s5,a3
    5ec6:	01a3ba33          	sltu	s4,t2,s10
    5eca:	41d98233          	sub	tp,s3,t4
    5ece:	1f7d                	addi	t5,t5,-1
    5ed0:	03e0c033          	div	zero,ra,t5
    5ed4:	01a3ba33          	sltu	s4,t2,s10
    5ed8:	808d                	srli	s1,s1,0x3
    5eda:	0001                	nop
    5edc:	039f7a3b          	remuw	s4,t5,s9
    5ee0:	03e0c033          	div	zero,ra,t5
    5ee4:	0398d53b          	divuw	a0,a7,s9
    5ee8:	317d                	addiw	sp,sp,-1
    5eea:	00f48133          	add	sp,s1,a5
    5eee:	51fd                	li	gp,-1
    5ef0:	02e964b3          	rem	s1,s2,a4
    5ef4:	e0a1059b          	addiw	a1,sp,-502
    5ef8:	008643b3          	xor	t2,a2,s0
    5efc:	02e964b3          	rem	s1,s2,a4
    5f00:	0a04                	addi	s1,sp,272
    5f02:	008643b3          	xor	t2,a2,s0
    5f06:	00f164b3          	or	s1,sp,a5
    5f0a:	01f099b3          	sll	s3,ra,t6
    5f0e:	51fd                	li	gp,-1
    5f10:	6eed                	lui	t4,0x1b
    5f12:	8ef1                	and	a3,a3,a2
    5f14:	090e                	slli	s2,s2,0x3
    5f16:	40865a1b          	sraiw	s4,a2,0x8
    5f1a:	8d3d                	xor	a0,a0,a5
    5f1c:	987d                	andi	s0,s0,-1
    5f1e:	090e                	slli	s2,s2,0x3
    5f20:	02e189bb          	mulw	s3,gp,a4
    5f24:	033fd793          	srli	a5,t6,0x33
    5f28:	033fd793          	srli	a5,t6,0x33
    5f2c:	01a3ba33          	sltu	s4,t2,s10
    5f30:	02f24d3b          	divw	s10,tp,a5
    5f34:	02817933          	remu	s2,sp,s0
    5f38:	0313633b          	remw	t1,t1,a7
    5f3c:	00fed41b          	srliw	s0,t4,0xf
    5f40:	02817933          	remu	s2,sp,s0
    5f44:	5d328737          	lui	a4,0x5d328
    5f48:	717d                	addi	sp,sp,-16
    5f4a:	01a3ba33          	sltu	s4,t2,s10
    5f4e:	9abbcc93          	xori	s9,s7,-1621
    5f52:	0a04                	addi	s1,sp,272
    5f54:	016a92bb          	sllw	t0,s5,s6
    5f58:	0001                	nop
    5f5a:	8ef1                	and	a3,a3,a2
    5f5c:	02dadfb3          	divu	t6,s5,a3
    5f60:	1f7d                	addi	t5,t5,-1
    5f62:	01320b3b          	addw	s6,tp,s3
    5f66:	01f099b3          	sll	s3,ra,t6
    5f6a:	54f6a993          	slti	s3,a3,1359
    5f6e:	41c7043b          	subw	s0,a4,t3
    5f72:	0001                	nop
    5f74:	03509613          	slli	a2,ra,0x35
    5f78:	5d328737          	lui	a4,0x5d328
    5f7c:	40dad233          	sra	tp,s5,a3
    5f80:	40dad233          	sra	tp,s5,a3
    5f84:	40675113          	srai	sp,a4,0x6
    5f88:	0001                	nop
    5f8a:	38057713          	andi	a4,a0,896
    5f8e:	8ec9                	or	a3,a3,a0
    5f90:	6eed                	lui	t4,0x1b
    5f92:	01182a33          	slt	s4,a6,a7
    5f96:	039f7a3b          	remuw	s4,t5,s9
    5f9a:	033fd793          	srli	a5,t6,0x33
    5f9e:	02e8b633          	mulhu	a2,a7,a4
    5fa2:	008643b3          	xor	t2,a2,s0
    5fa6:	e9c89317          	auipc	t1,0xe9c89
    5faa:	42686493          	ori	s1,a6,1062
    5fae:	51fd                	li	gp,-1
    5fb0:	02e964b3          	rem	s1,s2,a4
    5fb4:	317d                	addiw	sp,sp,-1
    5fb6:	8d3d                	xor	a0,a0,a5
    5fb8:	02f24d3b          	divw	s10,tp,a5
    5fbc:	0398d53b          	divuw	a0,a7,s9
    5fc0:	0a04                	addi	s1,sp,272
    5fc2:	13ad0213          	addi	tp,s10,314
    5fc6:	0398d53b          	divuw	a0,a7,s9
    5fca:	01182a33          	slt	s4,a6,a7
    5fce:	9ead                	addw	a3,a3,a1
    5fd0:	00f48133          	add	sp,s1,a5
    5fd4:	e0a1059b          	addiw	a1,sp,-502
    5fd8:	717d                	addi	sp,sp,-16
    5fda:	0001                	nop
    5fdc:	0001                	nop
    5fde:	717d                	addi	sp,sp,-16
    5fe0:	01320b3b          	addw	s6,tp,s3
    5fe4:	40675113          	srai	sp,a4,0x6
    5fe8:	008643b3          	xor	t2,a2,s0
    5fec:	6eed                	lui	t4,0x1b
    5fee:	9c8d                	subw	s1,s1,a1
    5ff0:	016a92bb          	sllw	t0,s5,s6
    5ff4:	0313633b          	remw	t1,t1,a7
    5ff8:	5d328737          	lui	a4,0x5d328
    5ffc:	88d2                	mv	a7,s4
    5ffe:	e9c89317          	auipc	t1,0xe9c89
    6002:	090e                	slli	s2,s2,0x3
    6004:	51fd                	li	gp,-1
    6006:	01a37233          	and	tp,t1,s10
    600a:	0001                	nop
    600c:	4048dcbb          	sraw	s9,a7,tp
    6010:	02c78bb3          	mul	s7,a5,a2
    6014:	03e0c033          	div	zero,ra,t5
    6018:	02817933          	remu	s2,sp,s0
    601c:	e9c89317          	auipc	t1,0xe9c89
    6020:	016a92bb          	sllw	t0,s5,s6
    6024:	41c7043b          	subw	s0,a4,t3
    6028:	8439                	srai	s0,s0,0xe
    602a:	5d328737          	lui	a4,0x5d328
    602e:	9c8d                	subw	s1,s1,a1
    6030:	037f9333          	mulh	t1,t6,s7
    6034:	54f6a993          	slti	s3,a3,1359
    6038:	9ead                	addw	a3,a3,a1
    603a:	88d2                	mv	a7,s4
    603c:	40675113          	srai	sp,a4,0x6
    6040:	40dad233          	sra	tp,s5,a3
    6044:	037f9333          	mulh	t1,t6,s7
    6048:	00f31f9b          	slliw	t6,t1,0xf
    604c:	317d                	addiw	sp,sp,-1
    604e:	02dadfb3          	divu	t6,s5,a3
    6052:	1f7d                	addi	t5,t5,-1
    6054:	01320b3b          	addw	s6,tp,s3
    6058:	01182a33          	slt	s4,a6,a7
    605c:	02f24d3b          	divw	s10,tp,a5
    6060:	40865a1b          	sraiw	s4,a2,0x8
    6064:	008643b3          	xor	t2,a2,s0
    6068:	13ad0213          	addi	tp,s10,314
    606c:	42686493          	ori	s1,a6,1062
    6070:	9c8d                	subw	s1,s1,a1
    6072:	38057713          	andi	a4,a0,896
    6076:	8d01                	sub	a0,a0,s0
    6078:	13ad0213          	addi	tp,s10,314
    607c:	029d29b3          	mulhsu	s3,s10,s1
    6080:	090e                	slli	s2,s2,0x3
    6082:	41d98233          	sub	tp,s3,t4
    6086:	03e0c033          	div	zero,ra,t5
    608a:	8439                	srai	s0,s0,0xe
    608c:	02e964b3          	rem	s1,s2,a4
    6090:	dfa53c93          	sltiu	s9,a0,-518
    6094:	6eed                	lui	t4,0x1b
    6096:	38057713          	andi	a4,a0,896
    609a:	02c78bb3          	mul	s7,a5,a2
    609e:	961a                	add	a2,a2,t1
    60a0:	0001                	nop
    60a2:	40dad233          	sra	tp,s5,a3
    60a6:	00fed41b          	srliw	s0,t4,0xf
    60aa:	13ad0213          	addi	tp,s10,314
    60ae:	00f31f9b          	slliw	t6,t1,0xf
    60b2:	029d29b3          	mulhsu	s3,s10,s1
    60b6:	01f099b3          	sll	s3,ra,t6
    60ba:	987d                	andi	s0,s0,-1
    60bc:	00f164b3          	or	s1,sp,a5
    60c0:	0313633b          	remw	t1,t1,a7
    60c4:	02e8b633          	mulhu	a2,a7,a4
    60c8:	41c7043b          	subw	s0,a4,t3
    60cc:	02e964b3          	rem	s1,s2,a4
    60d0:	8ef1                	and	a3,a3,a2
    60d2:	004e5ab3          	srl	s5,t3,tp
    60d6:	01a37233          	and	tp,t1,s10
    60da:	38057713          	andi	a4,a0,896
    60de:	88d2                	mv	a7,s4
    60e0:	51fd                	li	gp,-1
    60e2:	029d29b3          	mulhsu	s3,s10,s1
    60e6:	0001                	nop
    60e8:	0398d53b          	divuw	a0,a7,s9
    60ec:	8d3d                	xor	a0,a0,a5
    60ee:	090e                	slli	s2,s2,0x3
    60f0:	8439                	srai	s0,s0,0xe
    60f2:	01a37233          	and	tp,t1,s10
    60f6:	01182a33          	slt	s4,a6,a7
    60fa:	9abbcc93          	xori	s9,s7,-1621
    60fe:	e0a1059b          	addiw	a1,sp,-502
    6102:	00f31f9b          	slliw	t6,t1,0xf
    6106:	01a37233          	and	tp,t1,s10
    610a:	40dad233          	sra	tp,s5,a3
    610e:	987d                	andi	s0,s0,-1
    6110:	03e0c033          	div	zero,ra,t5
    6114:	02e964b3          	rem	s1,s2,a4
    6118:	02f24d3b          	divw	s10,tp,a5
    611c:	02f24d3b          	divw	s10,tp,a5
    6120:	987d                	andi	s0,s0,-1
    6122:	00fed41b          	srliw	s0,t4,0xf
    6126:	40865a1b          	sraiw	s4,a2,0x8
    612a:	dfa53c93          	sltiu	s9,a0,-518
    612e:	88d2                	mv	a7,s4
    6130:	9abbcc93          	xori	s9,s7,-1621
    6134:	6eed                	lui	t4,0x1b
    6136:	6eed                	lui	t4,0x1b
    6138:	01a3ba33          	sltu	s4,t2,s10
    613c:	41c7043b          	subw	s0,a4,t3
    6140:	1f7d                	addi	t5,t5,-1
    6142:	8ec9                	or	a3,a3,a0
    6144:	016a92bb          	sllw	t0,s5,s6
    6148:	717d                	addi	sp,sp,-16
    614a:	00f31f9b          	slliw	t6,t1,0xf
    614e:	02e964b3          	rem	s1,s2,a4
    6152:	88d2                	mv	a7,s4
    6154:	03509613          	slli	a2,ra,0x35
    6158:	02c78bb3          	mul	s7,a5,a2
    615c:	039f7a3b          	remuw	s4,t5,s9
    6160:	02c78bb3          	mul	s7,a5,a2
    6164:	03e0c033          	div	zero,ra,t5
    6168:	00e1d23b          	srlw	tp,gp,a4
    616c:	0398d53b          	divuw	a0,a7,s9
    6170:	090e                	slli	s2,s2,0x3
    6172:	01a3ba33          	sltu	s4,t2,s10
    6176:	88d2                	mv	a7,s4
    6178:	987d                	andi	s0,s0,-1
    617a:	38057713          	andi	a4,a0,896
    617e:	007bb7b7          	lui	a5,0x7bb
    6182:	92d7879b          	addiw	a5,a5,-1747
    6186:	07ba                	slli	a5,a5,0xe
    6188:	64f78793          	addi	a5,a5,1615 # 7bb64f <_end+0x79b94f>
    618c:	07b2                	slli	a5,a5,0xc
    618e:	d3978793          	addi	a5,a5,-711
    6192:	07b6                	slli	a5,a5,0xd
    6194:	de278793          	addi	a5,a5,-542
    6198:	4a01                	li	s4,0
    619a:	002209b7          	lui	s3,0x220
    619e:	5ef9899b          	addiw	s3,s3,1519
    61a2:	09b6                	slli	s3,s3,0xd
    61a4:	71f98993          	addi	s3,s3,1823 # 22071f <_end+0x200a1f>
    61a8:	09b2                	slli	s3,s3,0xc
    61aa:	7cf98993          	addi	s3,s3,1999
    61ae:	09b6                	slli	s3,s3,0xd
    61b0:	69b98993          	addi	s3,s3,1691
    61b4:	5efd                	li	t4,-1
    61b6:	58fd                	li	a7,-1
    61b8:	4d01                	li	s10,0
    61ba:	4a81                	li	s5,0
    61bc:	fff00d9b          	addiw	s11,zero,-1
    61c0:	1dfe                	slli	s11,s11,0x3f
    61c2:	5ffd                	li	t6,-1
    61c4:	ff566937          	lui	s2,0xff566
    61c8:	e679091b          	addiw	s2,s2,-409
    61cc:	0932                	slli	s2,s2,0xc
    61ce:	4e990913          	addi	s2,s2,1257 # ffffffffff5664e9 <_end+0xffffffffff5467e9>
    61d2:	0936                	slli	s2,s2,0xd
    61d4:	ce190913          	addi	s2,s2,-799
    61d8:	0936                	slli	s2,s2,0xd
    61da:	f5390913          	addi	s2,s2,-173
    61de:	01fd07bb          	addw	a5,s10,t6
    61e2:	03ba78bb          	remuw	a7,s4,s11
    61e6:	0359aa33          	mulhsu	s4,s3,s5
    61ea:	02f9593b          	divuw	s2,s2,a5
    61ee:	03ba78bb          	remuw	a7,s4,s11
    61f2:	e9c89d17          	auipc	s10,0xe9c89
    61f6:	01390d33          	add	s10,s2,s3
    61fa:	031ebdb3          	mulhu	s11,t4,a7
    61fe:	03aa4db3          	div	s11,s4,s10
    6202:	03dd17b3          	mulh	a5,s10,t4
    6206:	031de933          	rem	s2,s11,a7
    620a:	0349edbb          	remw	s11,s3,s4
    620e:	03dd17b3          	mulh	a5,s10,t4
    6212:	033d87bb          	mulw	a5,s11,s3
    6216:	031de933          	rem	s2,s11,a7
    621a:	13aa0d13          	addi	s10,s4,314
    621e:	033d87bb          	mulw	a5,s11,s3
    6222:	5d328d37          	lui	s10,0x5d328
    6226:	02f9593b          	divuw	s2,s2,a5
    622a:	02f9593b          	divuw	s2,s2,a5
    622e:	03da8db3          	mul	s11,s5,t4
    6232:	033d87bb          	mulw	a5,s11,s3
    6236:	03aa4db3          	div	s11,s4,s10
    623a:	41ba8933          	sub	s2,s5,s11
    623e:	0001                	nop
    6240:	00f48133          	add	sp,s1,a5
    6244:	9ead                	addw	a3,a3,a1
    6246:	38057713          	andi	a4,a0,896
    624a:	033fd793          	srli	a5,t6,0x33
    624e:	8d3d                	xor	a0,a0,a5
    6250:	1f7d                	addi	t5,t5,-1
    6252:	029d29b3          	mulhsu	s3,s10,s1
    6256:	5d328737          	lui	a4,0x5d328
    625a:	029d29b3          	mulhsu	s3,s10,s1
    625e:	037f9333          	mulh	t1,t6,s7
    6262:	9c8d                	subw	s1,s1,a1
    6264:	02e189bb          	mulw	s3,gp,a4
    6268:	dfa53c93          	sltiu	s9,a0,-518
    626c:	1f7d                	addi	t5,t5,-1
    626e:	0001                	nop
    6270:	41d98233          	sub	tp,s3,t4
    6274:	0398d53b          	divuw	a0,a7,s9
    6278:	01182a33          	slt	s4,a6,a7
    627c:	01a37233          	and	tp,t1,s10
    6280:	01f099b3          	sll	s3,ra,t6
    6284:	016a92bb          	sllw	t0,s5,s6
    6288:	317d                	addiw	sp,sp,-1
    628a:	54f6a993          	slti	s3,a3,1359
    628e:	0001                	nop
    6290:	41d98233          	sub	tp,s3,t4
    6294:	090e                	slli	s2,s2,0x3
    6296:	40865a1b          	sraiw	s4,a2,0x8
    629a:	02c78bb3          	mul	s7,a5,a2
    629e:	41d98233          	sub	tp,s3,t4
    62a2:	1f7d                	addi	t5,t5,-1
    62a4:	03e0c033          	div	zero,ra,t5
    62a8:	02f24d3b          	divw	s10,tp,a5
    62ac:	41d98233          	sub	tp,s3,t4
    62b0:	e9c89317          	auipc	t1,0xe9c89
    62b4:	0001                	nop
    62b6:	8ec9                	or	a3,a3,a0
    62b8:	01f099b3          	sll	s3,ra,t6
    62bc:	02817933          	remu	s2,sp,s0
    62c0:	0001                	nop
    62c2:	0001                	nop
    62c4:	9ead                	addw	a3,a3,a1
    62c6:	42686493          	ori	s1,a6,1062
    62ca:	037f9333          	mulh	t1,t6,s7
    62ce:	02f24d3b          	divw	s10,tp,a5
    62d2:	00f164b3          	or	s1,sp,a5
    62d6:	01182a33          	slt	s4,a6,a7
    62da:	00f164b3          	or	s1,sp,a5
    62de:	e9c89317          	auipc	t1,0xe9c89
    62e2:	42686493          	ori	s1,a6,1062
    62e6:	40865a1b          	sraiw	s4,a2,0x8
    62ea:	317d                	addiw	sp,sp,-1
    62ec:	9c8d                	subw	s1,s1,a1
    62ee:	dfa53c93          	sltiu	s9,a0,-518
    62f2:	039f7a3b          	remuw	s4,t5,s9
    62f6:	00f31f9b          	slliw	t6,t1,0xf
    62fa:	00f48133          	add	sp,s1,a5
    62fe:	02c78bb3          	mul	s7,a5,a2
    6302:	40dad233          	sra	tp,s5,a3
    6306:	40dad233          	sra	tp,s5,a3
    630a:	039f7a3b          	remuw	s4,t5,s9
    630e:	02817933          	remu	s2,sp,s0
    6312:	01182a33          	slt	s4,a6,a7
    6316:	01f099b3          	sll	s3,ra,t6
    631a:	0313633b          	remw	t1,t1,a7
    631e:	40dad233          	sra	tp,s5,a3
    6322:	00f31f9b          	slliw	t6,t1,0xf
    6326:	54f6a993          	slti	s3,a3,1359
    632a:	88d2                	mv	a7,s4
    632c:	4048dcbb          	sraw	s9,a7,tp
    6330:	9c8d                	subw	s1,s1,a1
    6332:	1f7d                	addi	t5,t5,-1
    6334:	01f099b3          	sll	s3,ra,t6
    6338:	0a04                	addi	s1,sp,272
    633a:	00fed41b          	srliw	s0,t4,0xf
    633e:	004e5ab3          	srl	s5,t3,tp
    6342:	40865a1b          	sraiw	s4,a2,0x8
    6346:	987d                	andi	s0,s0,-1
    6348:	01a37233          	and	tp,t1,s10
    634c:	54f6a993          	slti	s3,a3,1359
    6350:	40865a1b          	sraiw	s4,a2,0x8
    6354:	8439                	srai	s0,s0,0xe
    6356:	88d2                	mv	a7,s4
    6358:	51fd                	li	gp,-1
    635a:	987d                	andi	s0,s0,-1
    635c:	004e5ab3          	srl	s5,t3,tp
    6360:	01a37233          	and	tp,t1,s10
    6364:	717d                	addi	sp,sp,-16
    6366:	03509613          	slli	a2,ra,0x35
    636a:	00fed41b          	srliw	s0,t4,0xf
    636e:	987d                	andi	s0,s0,-1
    6370:	01a3ba33          	sltu	s4,t2,s10
    6374:	54f6a993          	slti	s3,a3,1359
    6378:	033fd793          	srli	a5,t6,0x33
    637c:	8ec9                	or	a3,a3,a0
    637e:	0398d53b          	divuw	a0,a7,s9
    6382:	03509613          	slli	a2,ra,0x35
    6386:	13ad0213          	addi	tp,s10,314 # 5d32813a <_end+0x5d30843a>
    638a:	03e0c033          	div	zero,ra,t5
    638e:	dfa53c93          	sltiu	s9,a0,-518
    6392:	02e189bb          	mulw	s3,gp,a4
    6396:	8ec9                	or	a3,a3,a0
    6398:	8d01                	sub	a0,a0,s0
    639a:	8d01                	sub	a0,a0,s0
    639c:	e0a1059b          	addiw	a1,sp,-502
    63a0:	02f24d3b          	divw	s10,tp,a5
    63a4:	02e964b3          	rem	s1,s2,a4
    63a8:	01320b3b          	addw	s6,tp,s3
    63ac:	0a04                	addi	s1,sp,272
    63ae:	961a                	add	a2,a2,t1
    63b0:	02e8b633          	mulhu	a2,a7,a4
    63b4:	717d                	addi	sp,sp,-16
    63b6:	40675113          	srai	sp,a4,0x6
    63ba:	02c78bb3          	mul	s7,a5,a2
    63be:	9ead                	addw	a3,a3,a1
    63c0:	00e1d23b          	srlw	tp,gp,a4
    63c4:	41c7043b          	subw	s0,a4,t3
    63c8:	40dad233          	sra	tp,s5,a3
    63cc:	987d                	andi	s0,s0,-1
    63ce:	016a92bb          	sllw	t0,s5,s6
    63d2:	01f099b3          	sll	s3,ra,t6
    63d6:	13ad0213          	addi	tp,s10,314
    63da:	9c8d                	subw	s1,s1,a1
    63dc:	02e189bb          	mulw	s3,gp,a4
    63e0:	0001                	nop
    63e2:	961a                	add	a2,a2,t1
    63e4:	e0a1059b          	addiw	a1,sp,-502
    63e8:	0001                	nop
    63ea:	40865a1b          	sraiw	s4,a2,0x8
    63ee:	0398d53b          	divuw	a0,a7,s9
    63f2:	13ad0213          	addi	tp,s10,314
    63f6:	02817933          	remu	s2,sp,s0
    63fa:	037f9333          	mulh	t1,t6,s7
    63fe:	987d                	andi	s0,s0,-1
    6400:	41d98233          	sub	tp,s3,t4
    6404:	e0a1059b          	addiw	a1,sp,-502
    6408:	8ec9                	or	a3,a3,a0
    640a:	01f099b3          	sll	s3,ra,t6
    640e:	00f164b3          	or	s1,sp,a5
    6412:	02e964b3          	rem	s1,s2,a4
    6416:	54f6a993          	slti	s3,a3,1359
    641a:	01a37233          	and	tp,t1,s10
    641e:	8d01                	sub	a0,a0,s0
    6420:	0313633b          	remw	t1,t1,a7
    6424:	40865a1b          	sraiw	s4,a2,0x8
    6428:	42686493          	ori	s1,a6,1062
    642c:	02f24d3b          	divw	s10,tp,a5
    6430:	03509613          	slli	a2,ra,0x35
    6434:	54f6a993          	slti	s3,a3,1359
    6438:	6eed                	lui	t4,0x1b
    643a:	88d2                	mv	a7,s4
    643c:	13ad0213          	addi	tp,s10,314
    6440:	01320b3b          	addw	s6,tp,s3
    6444:	02dadfb3          	divu	t6,s5,a3
    6448:	0001                	nop
    644a:	40865a1b          	sraiw	s4,a2,0x8
    644e:	8ef1                	and	a3,a3,a2
    6450:	01f099b3          	sll	s3,ra,t6
    6454:	01a3ba33          	sltu	s4,t2,s10
    6458:	00e1d23b          	srlw	tp,gp,a4
    645c:	01182a33          	slt	s4,a6,a7
    6460:	029d29b3          	mulhsu	s3,s10,s1
    6464:	987d                	andi	s0,s0,-1
    6466:	40675113          	srai	sp,a4,0x6
    646a:	0313633b          	remw	t1,t1,a7
    646e:	0001                	nop
    6470:	9abbcc93          	xori	s9,s7,-1621
    6474:	38057713          	andi	a4,a0,896
    6478:	0001                	nop
    647a:	8ef1                	and	a3,a3,a2
    647c:	039f7a3b          	remuw	s4,t5,s9
    6480:	00f48133          	add	sp,s1,a5
    6484:	0001                	nop
    6486:	004e5ab3          	srl	s5,t3,tp
    648a:	38057713          	andi	a4,a0,896
    648e:	090e                	slli	s2,s2,0x3
    6490:	039f7a3b          	remuw	s4,t5,s9
    6494:	5d328737          	lui	a4,0x5d328
    6498:	01182a33          	slt	s4,a6,a7
    649c:	9ead                	addw	a3,a3,a1
    649e:	016a92bb          	sllw	t0,s5,s6
    64a2:	03e0c033          	div	zero,ra,t5
    64a6:	03e0c033          	div	zero,ra,t5
    64aa:	6eed                	lui	t4,0x1b
    64ac:	717d                	addi	sp,sp,-16
    64ae:	4048dcbb          	sraw	s9,a7,tp
    64b2:	00fed41b          	srliw	s0,t4,0xf
    64b6:	51fd                	li	gp,-1
    64b8:	9ead                	addw	a3,a3,a1
    64ba:	9c8d                	subw	s1,s1,a1
    64bc:	03e0c033          	div	zero,ra,t5
    64c0:	8d01                	sub	a0,a0,s0
    64c2:	961a                	add	a2,a2,t1
    64c4:	0313633b          	remw	t1,t1,a7
    64c8:	41d98233          	sub	tp,s3,t4
    64cc:	037f9333          	mulh	t1,t6,s7
    64d0:	033fd793          	srli	a5,t6,0x33
    64d4:	033fd793          	srli	a5,t6,0x33
    64d8:	e9c89317          	auipc	t1,0xe9c89
    64dc:	4048dcbb          	sraw	s9,a7,tp
    64e0:	01a37233          	and	tp,t1,s10
    64e4:	9c8d                	subw	s1,s1,a1
    64e6:	01320b3b          	addw	s6,tp,s3
    64ea:	9abbcc93          	xori	s9,s7,-1621
    64ee:	01a37233          	and	tp,t1,s10
    64f2:	8ec9                	or	a3,a3,a0
    64f4:	01a3ba33          	sltu	s4,t2,s10
    64f8:	03e0c033          	div	zero,ra,t5
    64fc:	037f9333          	mulh	t1,t6,s7
    6500:	e9c89317          	auipc	t1,0xe9c89
    6504:	02e8b633          	mulhu	a2,a7,a4
    6508:	40675113          	srai	sp,a4,0x6
    650c:	13ad0213          	addi	tp,s10,314
    6510:	8ef1                	and	a3,a3,a2
    6512:	016a92bb          	sllw	t0,s5,s6
    6516:	987d                	andi	s0,s0,-1
    6518:	02dadfb3          	divu	t6,s5,a3
    651c:	8439                	srai	s0,s0,0xe
    651e:	987d                	andi	s0,s0,-1
    6520:	e0a1059b          	addiw	a1,sp,-502
    6524:	41d98233          	sub	tp,s3,t4
    6528:	02e8b633          	mulhu	a2,a7,a4
    652c:	01a37233          	and	tp,t1,s10
    6530:	02e964b3          	rem	s1,s2,a4
    6534:	02e8b633          	mulhu	a2,a7,a4
    6538:	01320b3b          	addw	s6,tp,s3
    653c:	0001                	nop
    653e:	033fd793          	srli	a5,t6,0x33
    6542:	01f099b3          	sll	s3,ra,t6
    6546:	02e964b3          	rem	s1,s2,a4
    654a:	008643b3          	xor	t2,a2,s0
    654e:	808d                	srli	s1,s1,0x3
    6550:	8d01                	sub	a0,a0,s0
    6552:	40865a1b          	sraiw	s4,a2,0x8
    6556:	40dad233          	sra	tp,s5,a3
    655a:	e0a1059b          	addiw	a1,sp,-502
    655e:	961a                	add	a2,a2,t1
    6560:	03509613          	slli	a2,ra,0x35
    6564:	00f48133          	add	sp,s1,a5
    6568:	8d01                	sub	a0,a0,s0
    656a:	0001                	nop
    656c:	0398d53b          	divuw	a0,a7,s9
    6570:	42686493          	ori	s1,a6,1062
    6574:	0398d53b          	divuw	a0,a7,s9
    6578:	02f24d3b          	divw	s10,tp,a5
    657c:	01a37233          	and	tp,t1,s10
    6580:	004e5ab3          	srl	s5,t3,tp
    6584:	1f7d                	addi	t5,t5,-1
    6586:	033fd793          	srli	a5,t6,0x33
    658a:	40dad233          	sra	tp,s5,a3
    658e:	8439                	srai	s0,s0,0xe
    6590:	039f7a3b          	remuw	s4,t5,s9
    6594:	961a                	add	a2,a2,t1
    6596:	1f7d                	addi	t5,t5,-1
    6598:	e0a1059b          	addiw	a1,sp,-502
    659c:	40dad233          	sra	tp,s5,a3
    65a0:	808d                	srli	s1,s1,0x3
    65a2:	016a92bb          	sllw	t0,s5,s6
    65a6:	808d                	srli	s1,s1,0x3
    65a8:	6eed                	lui	t4,0x1b
    65aa:	961a                	add	a2,a2,t1
    65ac:	41c7043b          	subw	s0,a4,t3
    65b0:	717d                	addi	sp,sp,-16
    65b2:	039f7a3b          	remuw	s4,t5,s9
    65b6:	01a37233          	and	tp,t1,s10
    65ba:	88d2                	mv	a7,s4
    65bc:	5d328737          	lui	a4,0x5d328
    65c0:	4048dcbb          	sraw	s9,a7,tp
    65c4:	8ef1                	and	a3,a3,a2
    65c6:	01a3ba33          	sltu	s4,t2,s10
    65ca:	00f164b3          	or	s1,sp,a5
    65ce:	717d                	addi	sp,sp,-16
    65d0:	9c8d                	subw	s1,s1,a1
    65d2:	41c7043b          	subw	s0,a4,t3
    65d6:	02e8b633          	mulhu	a2,a7,a4
    65da:	317d                	addiw	sp,sp,-1
    65dc:	01a37233          	and	tp,t1,s10
    65e0:	01a37233          	and	tp,t1,s10
    65e4:	13ad0213          	addi	tp,s10,314
    65e8:	02e964b3          	rem	s1,s2,a4
    65ec:	0a04                	addi	s1,sp,272
    65ee:	02f24d3b          	divw	s10,tp,a5
    65f2:	8439                	srai	s0,s0,0xe
    65f4:	8439                	srai	s0,s0,0xe
    65f6:	01f099b3          	sll	s3,ra,t6
    65fa:	033fd793          	srli	a5,t6,0x33
    65fe:	039f7a3b          	remuw	s4,t5,s9
    6602:	e9c89317          	auipc	t1,0xe9c89
    6606:	5d328737          	lui	a4,0x5d328
    660a:	987d                	andi	s0,s0,-1
    660c:	987d                	andi	s0,s0,-1
    660e:	987d                	andi	s0,s0,-1
    6610:	00f31f9b          	slliw	t6,t1,0xf
    6614:	004e5ab3          	srl	s5,t3,tp
    6618:	9abbcc93          	xori	s9,s7,-1621
    661c:	0001                	nop
    661e:	0a04                	addi	s1,sp,272
    6620:	01f099b3          	sll	s3,ra,t6
    6624:	40865a1b          	sraiw	s4,a2,0x8
    6628:	0001                	nop
    662a:	961a                	add	a2,a2,t1
    662c:	0398d53b          	divuw	a0,a7,s9
    6630:	42686493          	ori	s1,a6,1062
    6634:	8ef1                	and	a3,a3,a2
    6636:	41c7043b          	subw	s0,a4,t3
    663a:	00fed41b          	srliw	s0,t4,0xf
    663e:	090e                	slli	s2,s2,0x3
    6640:	029d29b3          	mulhsu	s3,s10,s1
    6644:	01320b3b          	addw	s6,tp,s3
    6648:	039f7a3b          	remuw	s4,t5,s9
    664c:	8d3d                	xor	a0,a0,a5
    664e:	03509613          	slli	a2,ra,0x35
    6652:	090e                	slli	s2,s2,0x3
    6654:	01a3ba33          	sltu	s4,t2,s10
    6658:	033fd793          	srli	a5,t6,0x33
    665c:	8439                	srai	s0,s0,0xe
    665e:	0313633b          	remw	t1,t1,a7
    6662:	e9c89317          	auipc	t1,0xe9c89
    6666:	dfa53c93          	sltiu	s9,a0,-518
    666a:	0a04                	addi	s1,sp,272
    666c:	6eed                	lui	t4,0x1b
    666e:	02e8b633          	mulhu	a2,a7,a4
    6672:	8ec9                	or	a3,a3,a0
    6674:	037f9333          	mulh	t1,t6,s7
    6678:	02e8b633          	mulhu	a2,a7,a4
    667c:	01320b3b          	addw	s6,tp,s3
    6680:	02dadfb3          	divu	t6,s5,a3
    6684:	0a04                	addi	s1,sp,272
    6686:	54f6a993          	slti	s3,a3,1359
    668a:	01a37233          	and	tp,t1,s10
    668e:	987d                	andi	s0,s0,-1
    6690:	0a04                	addi	s1,sp,272
    6692:	00fed41b          	srliw	s0,t4,0xf
    6696:	40865a1b          	sraiw	s4,a2,0x8
    669a:	e9c89317          	auipc	t1,0xe9c89
    669e:	808d                	srli	s1,s1,0x3
    66a0:	02c78bb3          	mul	s7,a5,a2
    66a4:	9ead                	addw	a3,a3,a1
    66a6:	02f24d3b          	divw	s10,tp,a5
    66aa:	40675113          	srai	sp,a4,0x6
    66ae:	961a                	add	a2,a2,t1
    66b0:	0398d53b          	divuw	a0,a7,s9
    66b4:	004e5ab3          	srl	s5,t3,tp
    66b8:	54f6a993          	slti	s3,a3,1359
    66bc:	40dad233          	sra	tp,s5,a3
    66c0:	5d328737          	lui	a4,0x5d328
    66c4:	9ead                	addw	a3,a3,a1
    66c6:	016a92bb          	sllw	t0,s5,s6
    66ca:	4048dcbb          	sraw	s9,a7,tp
    66ce:	54f6a993          	slti	s3,a3,1359
    66d2:	01182a33          	slt	s4,a6,a7
    66d6:	88d2                	mv	a7,s4
    66d8:	039f7a3b          	remuw	s4,t5,s9
    66dc:	41d98233          	sub	tp,s3,t4
    66e0:	02dadfb3          	divu	t6,s5,a3
    66e4:	6eed                	lui	t4,0x1b
    66e6:	8d01                	sub	a0,a0,s0
    66e8:	6eed                	lui	t4,0x1b
    66ea:	6eed                	lui	t4,0x1b
    66ec:	01320b3b          	addw	s6,tp,s3
    66f0:	01f099b3          	sll	s3,ra,t6
    66f4:	317d                	addiw	sp,sp,-1
    66f6:	6eed                	lui	t4,0x1b
    66f8:	51fd                	li	gp,-1
    66fa:	0001                	nop
    66fc:	e0a1059b          	addiw	a1,sp,-502
    6700:	037f9333          	mulh	t1,t6,s7
    6704:	40675113          	srai	sp,a4,0x6
    6708:	40865a1b          	sraiw	s4,a2,0x8
    670c:	00f31f9b          	slliw	t6,t1,0xf
    6710:	5d328737          	lui	a4,0x5d328
    6714:	02e8b633          	mulhu	a2,a7,a4
    6718:	03e0c033          	div	zero,ra,t5
    671c:	029d29b3          	mulhsu	s3,s10,s1
    6720:	8d3d                	xor	a0,a0,a5
    6722:	987d                	andi	s0,s0,-1
    6724:	e9c89317          	auipc	t1,0xe9c89
    6728:	01a37233          	and	tp,t1,s10
    672c:	01320b3b          	addw	s6,tp,s3
    6730:	8d01                	sub	a0,a0,s0
    6732:	808d                	srli	s1,s1,0x3
    6734:	0001                	nop
    6736:	88d2                	mv	a7,s4
    6738:	4048dcbb          	sraw	s9,a7,tp
    673c:	033fd793          	srli	a5,t6,0x33
    6740:	5d328737          	lui	a4,0x5d328
    6744:	0398d53b          	divuw	a0,a7,s9
    6748:	02e964b3          	rem	s1,s2,a4
    674c:	01f099b3          	sll	s3,ra,t6
    6750:	dfa53c93          	sltiu	s9,a0,-518
    6754:	1f7d                	addi	t5,t5,-1
    6756:	02c78bb3          	mul	s7,a5,a2
    675a:	004e5ab3          	srl	s5,t3,tp
    675e:	13ad0213          	addi	tp,s10,314
    6762:	039f7a3b          	remuw	s4,t5,s9
    6766:	03509613          	slli	a2,ra,0x35
    676a:	02e964b3          	rem	s1,s2,a4
    676e:	0001                	nop
    6770:	808d                	srli	s1,s1,0x3
    6772:	40dad233          	sra	tp,s5,a3
    6776:	00f31f9b          	slliw	t6,t1,0xf
    677a:	42686493          	ori	s1,a6,1062
    677e:	8d01                	sub	a0,a0,s0
    6780:	03509613          	slli	a2,ra,0x35
    6784:	9abbcc93          	xori	s9,s7,-1621
    6788:	9abbcc93          	xori	s9,s7,-1621
    678c:	039f7a3b          	remuw	s4,t5,s9
    6790:	02dadfb3          	divu	t6,s5,a3
    6794:	8d3d                	xor	a0,a0,a5
    6796:	0398d53b          	divuw	a0,a7,s9
    679a:	e0a1059b          	addiw	a1,sp,-502
    679e:	029d29b3          	mulhsu	s3,s10,s1
    67a2:	88d2                	mv	a7,s4
    67a4:	4048dcbb          	sraw	s9,a7,tp
    67a8:	808d                	srli	s1,s1,0x3
    67aa:	961a                	add	a2,a2,t1
    67ac:	e9c89317          	auipc	t1,0xe9c89
    67b0:	00f164b3          	or	s1,sp,a5
    67b4:	00f48133          	add	sp,s1,a5
    67b8:	0001                	nop
    67ba:	0001                	nop
    67bc:	016a92bb          	sllw	t0,s5,s6
    67c0:	02dadfb3          	divu	t6,s5,a3
    67c4:	01320b3b          	addw	s6,tp,s3
    67c8:	00f31f9b          	slliw	t6,t1,0xf
    67cc:	40865a1b          	sraiw	s4,a2,0x8
    67d0:	717d                	addi	sp,sp,-16
    67d2:	02e964b3          	rem	s1,s2,a4
    67d6:	41c7043b          	subw	s0,a4,t3
    67da:	00fed41b          	srliw	s0,t4,0xf
    67de:	8ef1                	and	a3,a3,a2
    67e0:	dfa53c93          	sltiu	s9,a0,-518
    67e4:	02e8b633          	mulhu	a2,a7,a4
    67e8:	02e189bb          	mulw	s3,gp,a4
    67ec:	01a37233          	and	tp,t1,s10
    67f0:	01320b3b          	addw	s6,tp,s3
    67f4:	01a3ba33          	sltu	s4,t2,s10
    67f8:	029d29b3          	mulhsu	s3,s10,s1
    67fc:	01f099b3          	sll	s3,ra,t6
    6800:	808d                	srli	s1,s1,0x3
    6802:	00f31f9b          	slliw	t6,t1,0xf
    6806:	9c8d                	subw	s1,s1,a1
    6808:	38057713          	andi	a4,a0,896
    680c:	987d                	andi	s0,s0,-1
    680e:	9ead                	addw	a3,a3,a1
    6810:	01182a33          	slt	s4,a6,a7
    6814:	8d01                	sub	a0,a0,s0
    6816:	00f164b3          	or	s1,sp,a5
    681a:	037f9333          	mulh	t1,t6,s7
    681e:	317d                	addiw	sp,sp,-1
    6820:	8ec9                	or	a3,a3,a0
    6822:	8ec9                	or	a3,a3,a0
    6824:	9c8d                	subw	s1,s1,a1
    6826:	42686493          	ori	s1,a6,1062
    682a:	8439                	srai	s0,s0,0xe
    682c:	38057713          	andi	a4,a0,896
    6830:	13ad0213          	addi	tp,s10,314
    6834:	8ef1                	and	a3,a3,a2
    6836:	00fed41b          	srliw	s0,t4,0xf
    683a:	02e189bb          	mulw	s3,gp,a4
    683e:	987d                	andi	s0,s0,-1
    6840:	01320b3b          	addw	s6,tp,s3
    6844:	88d2                	mv	a7,s4
    6846:	41d98233          	sub	tp,s3,t4
    684a:	40dad233          	sra	tp,s5,a3
    684e:	0001                	nop
    6850:	dfa53c93          	sltiu	s9,a0,-518
    6854:	717d                	addi	sp,sp,-16
    6856:	40865a1b          	sraiw	s4,a2,0x8
    685a:	9ead                	addw	a3,a3,a1
    685c:	717d                	addi	sp,sp,-16
    685e:	00f164b3          	or	s1,sp,a5
    6862:	033fd793          	srli	a5,t6,0x33
    6866:	5d328737          	lui	a4,0x5d328
    686a:	e0a1059b          	addiw	a1,sp,-502
    686e:	00f164b3          	or	s1,sp,a5
    6872:	01320b3b          	addw	s6,tp,s3
    6876:	0001                	nop
    6878:	8439                	srai	s0,s0,0xe
    687a:	13ad0213          	addi	tp,s10,314
    687e:	02817933          	remu	s2,sp,s0
    6882:	0313633b          	remw	t1,t1,a7
    6886:	0313633b          	remw	t1,t1,a7
    688a:	01a37233          	and	tp,t1,s10
    688e:	13ad0213          	addi	tp,s10,314
    6892:	41c7043b          	subw	s0,a4,t3
    6896:	00f31f9b          	slliw	t6,t1,0xf
    689a:	9ead                	addw	a3,a3,a1
    689c:	317d                	addiw	sp,sp,-1
    689e:	13ad0213          	addi	tp,s10,314
    68a2:	40dad233          	sra	tp,s5,a3
    68a6:	9ead                	addw	a3,a3,a1
    68a8:	02e189bb          	mulw	s3,gp,a4
    68ac:	e9c89317          	auipc	t1,0xe9c89
    68b0:	01320b3b          	addw	s6,tp,s3
    68b4:	317d                	addiw	sp,sp,-1
    68b6:	0001                	nop
    68b8:	4048dcbb          	sraw	s9,a7,tp
    68bc:	004e5ab3          	srl	s5,t3,tp
    68c0:	01a37233          	and	tp,t1,s10
    68c4:	02c78bb3          	mul	s7,a5,a2
    68c8:	01320b3b          	addw	s6,tp,s3
    68cc:	029d29b3          	mulhsu	s3,s10,s1
    68d0:	01182a33          	slt	s4,a6,a7
    68d4:	0001                	nop
    68d6:	1f7d                	addi	t5,t5,-1
    68d8:	42686493          	ori	s1,a6,1062
    68dc:	987d                	andi	s0,s0,-1
    68de:	8439                	srai	s0,s0,0xe
    68e0:	033fd793          	srli	a5,t6,0x33
    68e4:	54f6a993          	slti	s3,a3,1359
    68e8:	1f7d                	addi	t5,t5,-1
    68ea:	717d                	addi	sp,sp,-16
    68ec:	42686493          	ori	s1,a6,1062
    68f0:	4048dcbb          	sraw	s9,a7,tp
    68f4:	42686493          	ori	s1,a6,1062
    68f8:	02817933          	remu	s2,sp,s0
    68fc:	01f099b3          	sll	s3,ra,t6
    6900:	8439                	srai	s0,s0,0xe
    6902:	01a3ba33          	sltu	s4,t2,s10
    6906:	01320b3b          	addw	s6,tp,s3
    690a:	38057713          	andi	a4,a0,896
    690e:	88d2                	mv	a7,s4
    6910:	8ef1                	and	a3,a3,a2
    6912:	02817933          	remu	s2,sp,s0
    6916:	00f164b3          	or	s1,sp,a5
    691a:	88d2                	mv	a7,s4
    691c:	01a37233          	and	tp,t1,s10
    6920:	5d328737          	lui	a4,0x5d328
    6924:	02f24d3b          	divw	s10,tp,a5
    6928:	02c78bb3          	mul	s7,a5,a2
    692c:	987d                	andi	s0,s0,-1
    692e:	317d                	addiw	sp,sp,-1
    6930:	03e0c033          	div	zero,ra,t5
    6934:	03e0c033          	div	zero,ra,t5
    6938:	090e                	slli	s2,s2,0x3
    693a:	02e189bb          	mulw	s3,gp,a4
    693e:	02f24d3b          	divw	s10,tp,a5
    6942:	9ead                	addw	a3,a3,a1
    6944:	1f7d                	addi	t5,t5,-1
    6946:	38057713          	andi	a4,a0,896
    694a:	e0a1059b          	addiw	a1,sp,-502
    694e:	03509613          	slli	a2,ra,0x35
    6952:	02817933          	remu	s2,sp,s0
    6956:	01f099b3          	sll	s3,ra,t6
    695a:	13ad0213          	addi	tp,s10,314
    695e:	004e5ab3          	srl	s5,t3,tp
    6962:	0001                	nop
    6964:	037f9333          	mulh	t1,t6,s7
    6968:	8ec9                	or	a3,a3,a0
    696a:	961a                	add	a2,a2,t1
    696c:	00e1d23b          	srlw	tp,gp,a4
    6970:	8d3d                	xor	a0,a0,a5
    6972:	00e1d23b          	srlw	tp,gp,a4
    6976:	033fd793          	srli	a5,t6,0x33
    697a:	1f7d                	addi	t5,t5,-1
    697c:	01182a33          	slt	s4,a6,a7
    6980:	54f6a993          	slti	s3,a3,1359
    6984:	808d                	srli	s1,s1,0x3
    6986:	0001                	nop
    6988:	dfa53c93          	sltiu	s9,a0,-518
    698c:	e9c89317          	auipc	t1,0xe9c89
    6990:	987d                	andi	s0,s0,-1
    6992:	0001                	nop
    6994:	02e964b3          	rem	s1,s2,a4
    6998:	8ec9                	or	a3,a3,a0
    699a:	00f164b3          	or	s1,sp,a5
    699e:	090e                	slli	s2,s2,0x3
    69a0:	5d328737          	lui	a4,0x5d328
    69a4:	02e189bb          	mulw	s3,gp,a4
    69a8:	0313633b          	remw	t1,t1,a7
    69ac:	717d                	addi	sp,sp,-16
    69ae:	e0a1059b          	addiw	a1,sp,-502
    69b2:	987d                	andi	s0,s0,-1
    69b4:	0313633b          	remw	t1,t1,a7
    69b8:	02817933          	remu	s2,sp,s0
    69bc:	008643b3          	xor	t2,a2,s0
    69c0:	0313633b          	remw	t1,t1,a7
    69c4:	41d98233          	sub	tp,s3,t4
    69c8:	004e5ab3          	srl	s5,t3,tp
    69cc:	40865a1b          	sraiw	s4,a2,0x8
    69d0:	9c8d                	subw	s1,s1,a1
    69d2:	717d                	addi	sp,sp,-16
    69d4:	987d                	andi	s0,s0,-1
    69d6:	987d                	andi	s0,s0,-1
    69d8:	54f6a993          	slti	s3,a3,1359
    69dc:	090e                	slli	s2,s2,0x3
    69de:	02dadfb3          	divu	t6,s5,a3
    69e2:	016a92bb          	sllw	t0,s5,s6
    69e6:	4048dcbb          	sraw	s9,a7,tp
    69ea:	090e                	slli	s2,s2,0x3
    69ec:	9c8d                	subw	s1,s1,a1
    69ee:	1f7d                	addi	t5,t5,-1
    69f0:	00fed41b          	srliw	s0,t4,0xf
    69f4:	38057713          	andi	a4,a0,896
    69f8:	9abbcc93          	xori	s9,s7,-1621
    69fc:	0a04                	addi	s1,sp,272
    69fe:	317d                	addiw	sp,sp,-1
    6a00:	008643b3          	xor	t2,a2,s0
    6a04:	41c7043b          	subw	s0,a4,t3
    6a08:	090e                	slli	s2,s2,0x3
    6a0a:	808d                	srli	s1,s1,0x3
    6a0c:	808d                	srli	s1,s1,0x3
    6a0e:	51fd                	li	gp,-1
    6a10:	02e189bb          	mulw	s3,gp,a4
    6a14:	88d2                	mv	a7,s4
    6a16:	0a04                	addi	s1,sp,272
    6a18:	808d                	srli	s1,s1,0x3
    6a1a:	00fed41b          	srliw	s0,t4,0xf
    6a1e:	016a92bb          	sllw	t0,s5,s6
    6a22:	01a3ba33          	sltu	s4,t2,s10
    6a26:	8d01                	sub	a0,a0,s0
    6a28:	8ec9                	or	a3,a3,a0
    6a2a:	4048dcbb          	sraw	s9,a7,tp
    6a2e:	808d                	srli	s1,s1,0x3
    6a30:	0001                	nop
    6a32:	6eed                	lui	t4,0x1b
    6a34:	9abbcc93          	xori	s9,s7,-1621
    6a38:	02e964b3          	rem	s1,s2,a4
    6a3c:	01182a33          	slt	s4,a6,a7
    6a40:	00fed41b          	srliw	s0,t4,0xf
    6a44:	808d                	srli	s1,s1,0x3
    6a46:	987d                	andi	s0,s0,-1
    6a48:	9ead                	addw	a3,a3,a1
    6a4a:	00f48133          	add	sp,s1,a5
    6a4e:	961a                	add	a2,a2,t1
    6a50:	00f48133          	add	sp,s1,a5
    6a54:	8ec9                	or	a3,a3,a0
    6a56:	00f48133          	add	sp,s1,a5
    6a5a:	02817933          	remu	s2,sp,s0
    6a5e:	02f24d3b          	divw	s10,tp,a5
    6a62:	8ec9                	or	a3,a3,a0
    6a64:	e0a1059b          	addiw	a1,sp,-502
    6a68:	00f48133          	add	sp,s1,a5
    6a6c:	8ef1                	and	a3,a3,a2
    6a6e:	00e1d23b          	srlw	tp,gp,a4
    6a72:	9c8d                	subw	s1,s1,a1
    6a74:	e0a1059b          	addiw	a1,sp,-502
    6a78:	029d29b3          	mulhsu	s3,s10,s1
    6a7c:	037f9333          	mulh	t1,t6,s7
    6a80:	01a3ba33          	sltu	s4,t2,s10
    6a84:	38057713          	andi	a4,a0,896
    6a88:	e9c89317          	auipc	t1,0xe9c89
    6a8c:	9c8d                	subw	s1,s1,a1
    6a8e:	fff0029b          	addiw	t0,zero,-1
    6a92:	12fe                	slli	t0,t0,0x3f
    6a94:	fff00d1b          	addiw	s10,zero,-1
    6a98:	1d7e                	slli	s10,s10,0x3f
    6a9a:	4501                	li	a0,0
    6a9c:	0023b937          	lui	s2,0x23b
    6aa0:	b999091b          	addiw	s2,s2,-1127
    6aa4:	0932                	slli	s2,s2,0xc
    6aa6:	64990913          	addi	s2,s2,1609 # 23b649 <_end+0x21b949>
    6aaa:	093e                	slli	s2,s2,0xf
    6aac:	3bf90913          	addi	s2,s2,959
    6ab0:	0932                	slli	s2,s2,0xc
    6ab2:	3ff90913          	addi	s2,s2,1023
    6ab6:	0059b8b7          	lui	a7,0x59b
    6aba:	a638889b          	addiw	a7,a7,-1437
    6abe:	08b6                	slli	a7,a7,0xd
    6ac0:	87b88893          	addi	a7,a7,-1925 # 59a87b <_end+0x57ab7b>
    6ac4:	08ba                	slli	a7,a7,0xe
    6ac6:	03188893          	addi	a7,a7,49
    6aca:	08b2                	slli	a7,a7,0xc
    6acc:	93288893          	addi	a7,a7,-1742
    6ad0:	03713437          	lui	s0,0x3713
    6ad4:	bc14041b          	addiw	s0,s0,-1087
    6ad8:	0436                	slli	s0,s0,0xd
    6ada:	bd140413          	addi	s0,s0,-1071 # 3712bd1 <_end+0x36f2ed1>
    6ade:	0432                	slli	s0,s0,0xc
    6ae0:	bef40413          	addi	s0,s0,-1041
    6ae4:	0432                	slli	s0,s0,0xc
    6ae6:	b7e40413          	addi	s0,s0,-1154
    6aea:	fff0039b          	addiw	t2,zero,-1
    6aee:	13fe                	slli	t2,t2,0x3f
    6af0:	527d                	li	tp,-1
    6af2:	fff0009b          	addiw	ra,zero,-1
    6af6:	10fe                	slli	ra,ra,0x3f
    6af8:	577d                	li	a4,-1
    6afa:	0001                	nop
    6afc:	028d6533          	rem	a0,s10,s0
    6b00:	0001                	nop
    6b02:	0001                	nop
    6b04:	02ad1533          	mulh	a0,s10,a0
    6b08:	024770b3          	remu	ra,a4,tp
    6b0c:	e0ad0d1b          	addiw	s10,s10,-502
    6b10:	13a20413          	addi	s0,tp,314 # 13a <init+0xb4>
    6b14:	0001                	nop
    6b16:	4044073b          	subw	a4,s0,tp
    6b1a:	0259573b          	divuw	a4,s2,t0
    6b1e:	02a3893b          	mulw	s2,t2,a0
    6b22:	004d0433          	add	s0,s10,tp
    6b26:	4044073b          	subw	a4,s0,tp
    6b2a:	0001                	nop
    6b2c:	0244743b          	remuw	s0,s0,tp
    6b30:	0001                	nop
    6b32:	02ed43bb          	divw	t2,s10,a4
    6b36:	02a553b3          	divu	t2,a0,a0
    6b3a:	0001                	nop
    6b3c:	e0ad0d1b          	addiw	s10,s10,-502
    6b40:	03a960bb          	remw	ra,s2,s10
    6b44:	005d023b          	addw	tp,s10,t0
    6b48:	008643b3          	xor	t2,a2,s0
    6b4c:	00f164b3          	or	s1,sp,a5
    6b50:	02f24d3b          	divw	s10,tp,a5
    6b54:	02e189bb          	mulw	s3,gp,a4
    6b58:	00f48133          	add	sp,s1,a5
    6b5c:	41d98233          	sub	tp,s3,t4
    6b60:	9c8d                	subw	s1,s1,a1
    6b62:	8ec9                	or	a3,a3,a0
    6b64:	01a3ba33          	sltu	s4,t2,s10
    6b68:	41c7043b          	subw	s0,a4,t3
    6b6c:	41d98233          	sub	tp,s3,t4
    6b70:	dfa53c93          	sltiu	s9,a0,-518
    6b74:	016a92bb          	sllw	t0,s5,s6
    6b78:	51fd                	li	gp,-1
    6b7a:	02dadfb3          	divu	t6,s5,a3
    6b7e:	02c78bb3          	mul	s7,a5,a2
    6b82:	88d2                	mv	a7,s4
    6b84:	317d                	addiw	sp,sp,-1
    6b86:	8ef1                	and	a3,a3,a2
    6b88:	01a37233          	and	tp,t1,s10
    6b8c:	41d98233          	sub	tp,s3,t4
    6b90:	03e0c033          	div	zero,ra,t5
    6b94:	01a37233          	and	tp,t1,s10
    6b98:	8ec9                	or	a3,a3,a0
    6b9a:	0398d53b          	divuw	a0,a7,s9
    6b9e:	00fed41b          	srliw	s0,t4,0xf
    6ba2:	dfa53c93          	sltiu	s9,a0,-518
    6ba6:	e0a1059b          	addiw	a1,sp,-502
    6baa:	51fd                	li	gp,-1
    6bac:	016a92bb          	sllw	t0,s5,s6
    6bb0:	e9c89317          	auipc	t1,0xe9c89
    6bb4:	8d3d                	xor	a0,a0,a5
    6bb6:	01a3ba33          	sltu	s4,t2,s10
    6bba:	02e8b633          	mulhu	a2,a7,a4
    6bbe:	1f7d                	addi	t5,t5,-1
    6bc0:	0a04                	addi	s1,sp,272
    6bc2:	dfa53c93          	sltiu	s9,a0,-518
    6bc6:	016a92bb          	sllw	t0,s5,s6
    6bca:	41d98233          	sub	tp,s3,t4
    6bce:	01a37233          	and	tp,t1,s10
    6bd2:	987d                	andi	s0,s0,-1
    6bd4:	01182a33          	slt	s4,a6,a7
    6bd8:	1f7d                	addi	t5,t5,-1
    6bda:	03509613          	slli	a2,ra,0x35
    6bde:	41d98233          	sub	tp,s3,t4
    6be2:	0398d53b          	divuw	a0,a7,s9
    6be6:	41d98233          	sub	tp,s3,t4
    6bea:	8d01                	sub	a0,a0,s0
    6bec:	8d3d                	xor	a0,a0,a5
    6bee:	00e1d23b          	srlw	tp,gp,a4
    6bf2:	13ad0213          	addi	tp,s10,314
    6bf6:	004e5ab3          	srl	s5,t3,tp
    6bfa:	6eed                	lui	t4,0x1b
    6bfc:	00fed41b          	srliw	s0,t4,0xf
    6c00:	40dad233          	sra	tp,s5,a3
    6c04:	02f24d3b          	divw	s10,tp,a5
    6c08:	38057713          	andi	a4,a0,896
    6c0c:	03509613          	slli	a2,ra,0x35
    6c10:	0313633b          	remw	t1,t1,a7
    6c14:	037f9333          	mulh	t1,t6,s7
    6c18:	40dad233          	sra	tp,s5,a3
    6c1c:	9c8d                	subw	s1,s1,a1
    6c1e:	004e5ab3          	srl	s5,t3,tp
    6c22:	9abbcc93          	xori	s9,s7,-1621
    6c26:	e0a1059b          	addiw	a1,sp,-502
    6c2a:	03e0c033          	div	zero,ra,t5
    6c2e:	0001                	nop
    6c30:	0001                	nop
    6c32:	9ead                	addw	a3,a3,a1
    6c34:	8ec9                	or	a3,a3,a0
    6c36:	090e                	slli	s2,s2,0x3
    6c38:	02817933          	remu	s2,sp,s0
    6c3c:	54f6a993          	slti	s3,a3,1359
    6c40:	033fd793          	srli	a5,t6,0x33
    6c44:	8ec9                	or	a3,a3,a0
    6c46:	039f7a3b          	remuw	s4,t5,s9
    6c4a:	987d                	andi	s0,s0,-1
    6c4c:	01182a33          	slt	s4,a6,a7
    6c50:	40dad233          	sra	tp,s5,a3
    6c54:	039f7a3b          	remuw	s4,t5,s9
    6c58:	01f099b3          	sll	s3,ra,t6
    6c5c:	03e0c033          	div	zero,ra,t5
    6c60:	88d2                	mv	a7,s4
    6c62:	40865a1b          	sraiw	s4,a2,0x8
    6c66:	961a                	add	a2,a2,t1
    6c68:	40dad233          	sra	tp,s5,a3
    6c6c:	9c8d                	subw	s1,s1,a1
    6c6e:	02f24d3b          	divw	s10,tp,a5
    6c72:	987d                	andi	s0,s0,-1
    6c74:	00f164b3          	or	s1,sp,a5
    6c78:	00fed41b          	srliw	s0,t4,0xf
    6c7c:	02817933          	remu	s2,sp,s0
    6c80:	01320b3b          	addw	s6,tp,s3
    6c84:	e9c89317          	auipc	t1,0xe9c89
    6c88:	01a37233          	and	tp,t1,s10
    6c8c:	40675113          	srai	sp,a4,0x6
    6c90:	41c7043b          	subw	s0,a4,t3
    6c94:	0313633b          	remw	t1,t1,a7
    6c98:	8ef1                	and	a3,a3,a2
    6c9a:	51fd                	li	gp,-1
    6c9c:	008643b3          	xor	t2,a2,s0
    6ca0:	5d328737          	lui	a4,0x5d328
    6ca4:	6eed                	lui	t4,0x1b
    6ca6:	13ad0213          	addi	tp,s10,314
    6caa:	00f48133          	add	sp,s1,a5
    6cae:	0001                	nop
    6cb0:	029d29b3          	mulhsu	s3,s10,s1
    6cb4:	00f31f9b          	slliw	t6,t1,0xf
    6cb8:	03509613          	slli	a2,ra,0x35
    6cbc:	8d01                	sub	a0,a0,s0
    6cbe:	8d3d                	xor	a0,a0,a5
    6cc0:	e0a1059b          	addiw	a1,sp,-502
    6cc4:	e9c89317          	auipc	t1,0xe9c89
    6cc8:	01f099b3          	sll	s3,ra,t6
    6ccc:	5d328737          	lui	a4,0x5d328
    6cd0:	88d2                	mv	a7,s4
    6cd2:	41c7043b          	subw	s0,a4,t3
    6cd6:	8ef1                	and	a3,a3,a2
    6cd8:	dfa53c93          	sltiu	s9,a0,-518
    6cdc:	e0a1059b          	addiw	a1,sp,-502
    6ce0:	9abbcc93          	xori	s9,s7,-1621
    6ce4:	13ad0213          	addi	tp,s10,314
    6ce8:	8ef1                	and	a3,a3,a2
    6cea:	02e964b3          	rem	s1,s2,a4
    6cee:	40865a1b          	sraiw	s4,a2,0x8
    6cf2:	00f48133          	add	sp,s1,a5
    6cf6:	9c8d                	subw	s1,s1,a1
    6cf8:	e9c89317          	auipc	t1,0xe9c89
    6cfc:	5d328737          	lui	a4,0x5d328
    6d00:	037f9333          	mulh	t1,t6,s7
    6d04:	029d29b3          	mulhsu	s3,s10,s1
    6d08:	0001                	nop
    6d0a:	41d98233          	sub	tp,s3,t4
    6d0e:	9ead                	addw	a3,a3,a1
    6d10:	961a                	add	a2,a2,t1
    6d12:	01182a33          	slt	s4,a6,a7
    6d16:	40675113          	srai	sp,a4,0x6
    6d1a:	0313633b          	remw	t1,t1,a7
    6d1e:	004e5ab3          	srl	s5,t3,tp
    6d22:	03e0c033          	div	zero,ra,t5
    6d26:	42686493          	ori	s1,a6,1062
    6d2a:	808d                	srli	s1,s1,0x3
    6d2c:	01a37233          	and	tp,t1,s10
    6d30:	037f9333          	mulh	t1,t6,s7
    6d34:	8d01                	sub	a0,a0,s0
    6d36:	9c8d                	subw	s1,s1,a1
    6d38:	40dad233          	sra	tp,s5,a3
    6d3c:	037f9333          	mulh	t1,t6,s7
    6d40:	02dadfb3          	divu	t6,s5,a3
    6d44:	13ad0213          	addi	tp,s10,314
    6d48:	00f164b3          	or	s1,sp,a5
    6d4c:	41d98233          	sub	tp,s3,t4
    6d50:	8d01                	sub	a0,a0,s0
    6d52:	987d                	andi	s0,s0,-1
    6d54:	01f099b3          	sll	s3,ra,t6
    6d58:	54f6a993          	slti	s3,a3,1359
    6d5c:	8ef1                	and	a3,a3,a2
    6d5e:	02f24d3b          	divw	s10,tp,a5
    6d62:	38057713          	andi	a4,a0,896
    6d66:	004e5ab3          	srl	s5,t3,tp
    6d6a:	8d01                	sub	a0,a0,s0
    6d6c:	01320b3b          	addw	s6,tp,s3
    6d70:	00e1d23b          	srlw	tp,gp,a4
    6d74:	00f164b3          	or	s1,sp,a5
    6d78:	00f48133          	add	sp,s1,a5
    6d7c:	004e5ab3          	srl	s5,t3,tp
    6d80:	02f24d3b          	divw	s10,tp,a5
    6d84:	808d                	srli	s1,s1,0x3
    6d86:	0001                	nop
    6d88:	8439                	srai	s0,s0,0xe
    6d8a:	016a92bb          	sllw	t0,s5,s6
    6d8e:	033fd793          	srli	a5,t6,0x33
    6d92:	03e0c033          	div	zero,ra,t5
    6d96:	808d                	srli	s1,s1,0x3
    6d98:	00f31f9b          	slliw	t6,t1,0xf
    6d9c:	0a04                	addi	s1,sp,272
    6d9e:	02e8b633          	mulhu	a2,a7,a4
    6da2:	00fed41b          	srliw	s0,t4,0xf
    6da6:	037f9333          	mulh	t1,t6,s7
    6daa:	9c8d                	subw	s1,s1,a1
    6dac:	0001                	nop
    6dae:	9c8d                	subw	s1,s1,a1
    6db0:	01320b3b          	addw	s6,tp,s3
    6db4:	02e8b633          	mulhu	a2,a7,a4
    6db8:	717d                	addi	sp,sp,-16
    6dba:	0001                	nop
    6dbc:	717d                	addi	sp,sp,-16
    6dbe:	1f7d                	addi	t5,t5,-1
    6dc0:	00f31f9b          	slliw	t6,t1,0xf
    6dc4:	02817933          	remu	s2,sp,s0
    6dc8:	5d328737          	lui	a4,0x5d328
    6dcc:	00f31f9b          	slliw	t6,t1,0xf
    6dd0:	54f6a993          	slti	s3,a3,1359
    6dd4:	9c8d                	subw	s1,s1,a1
    6dd6:	02e964b3          	rem	s1,s2,a4
    6dda:	02f24d3b          	divw	s10,tp,a5
    6dde:	8d3d                	xor	a0,a0,a5
    6de0:	008643b3          	xor	t2,a2,s0
    6de4:	40865a1b          	sraiw	s4,a2,0x8
    6de8:	01320b3b          	addw	s6,tp,s3
    6dec:	e9c89317          	auipc	t1,0xe9c89
    6df0:	01f099b3          	sll	s3,ra,t6
    6df4:	9c8d                	subw	s1,s1,a1
    6df6:	51fd                	li	gp,-1
    6df8:	8ef1                	and	a3,a3,a2
    6dfa:	00f48133          	add	sp,s1,a5
    6dfe:	9c8d                	subw	s1,s1,a1
    6e00:	008643b3          	xor	t2,a2,s0
    6e04:	039f7a3b          	remuw	s4,t5,s9
    6e08:	0001                	nop
    6e0a:	00e1d23b          	srlw	tp,gp,a4
    6e0e:	0313633b          	remw	t1,t1,a7
    6e12:	02e964b3          	rem	s1,s2,a4
    6e16:	54f6a993          	slti	s3,a3,1359
    6e1a:	808d                	srli	s1,s1,0x3
    6e1c:	03e0c033          	div	zero,ra,t5
    6e20:	38057713          	andi	a4,a0,896
    6e24:	090e                	slli	s2,s2,0x3
    6e26:	0001                	nop
    6e28:	033fd793          	srli	a5,t6,0x33
    6e2c:	9ead                	addw	a3,a3,a1
    6e2e:	42686493          	ori	s1,a6,1062
    6e32:	40865a1b          	sraiw	s4,a2,0x8
    6e36:	01a3ba33          	sltu	s4,t2,s10
    6e3a:	5d328737          	lui	a4,0x5d328
    6e3e:	e0a1059b          	addiw	a1,sp,-502
    6e42:	41d98233          	sub	tp,s3,t4
    6e46:	00f48133          	add	sp,s1,a5
    6e4a:	00f48133          	add	sp,s1,a5
    6e4e:	6eed                	lui	t4,0x1b
    6e50:	0001                	nop
    6e52:	6eed                	lui	t4,0x1b
    6e54:	01182a33          	slt	s4,a6,a7
    6e58:	8d01                	sub	a0,a0,s0
    6e5a:	01182a33          	slt	s4,a6,a7
    6e5e:	9abbcc93          	xori	s9,s7,-1621
    6e62:	0398d53b          	divuw	a0,a7,s9
    6e66:	40dad233          	sra	tp,s5,a3
    6e6a:	8ec9                	or	a3,a3,a0
    6e6c:	9ead                	addw	a3,a3,a1
    6e6e:	5d328737          	lui	a4,0x5d328
    6e72:	037f9333          	mulh	t1,t6,s7
    6e76:	717d                	addi	sp,sp,-16
    6e78:	13ad0213          	addi	tp,s10,314
    6e7c:	987d                	andi	s0,s0,-1
    6e7e:	039f7a3b          	remuw	s4,t5,s9
    6e82:	987d                	andi	s0,s0,-1
    6e84:	01a3ba33          	sltu	s4,t2,s10
    6e88:	037f9333          	mulh	t1,t6,s7
    6e8c:	808d                	srli	s1,s1,0x3
    6e8e:	51fd                	li	gp,-1
    6e90:	00f164b3          	or	s1,sp,a5
    6e94:	033fd793          	srli	a5,t6,0x33
    6e98:	8439                	srai	s0,s0,0xe
    6e9a:	1f7d                	addi	t5,t5,-1
    6e9c:	037f9333          	mulh	t1,t6,s7
    6ea0:	8d01                	sub	a0,a0,s0
    6ea2:	01320b3b          	addw	s6,tp,s3
    6ea6:	8d3d                	xor	a0,a0,a5
    6ea8:	8d3d                	xor	a0,a0,a5
    6eaa:	41c7043b          	subw	s0,a4,t3
    6eae:	016a92bb          	sllw	t0,s5,s6
    6eb2:	e0a1059b          	addiw	a1,sp,-502
    6eb6:	40865a1b          	sraiw	s4,a2,0x8
    6eba:	1f7d                	addi	t5,t5,-1
    6ebc:	6eed                	lui	t4,0x1b
    6ebe:	01182a33          	slt	s4,a6,a7
    6ec2:	00e1d23b          	srlw	tp,gp,a4
    6ec6:	5d328737          	lui	a4,0x5d328
    6eca:	090e                	slli	s2,s2,0x3
    6ecc:	0001                	nop
    6ece:	dfa53c93          	sltiu	s9,a0,-518
    6ed2:	6eed                	lui	t4,0x1b
    6ed4:	02f24d3b          	divw	s10,tp,a5
    6ed8:	987d                	andi	s0,s0,-1
    6eda:	6eed                	lui	t4,0x1b
    6edc:	0001                	nop
    6ede:	00f31f9b          	slliw	t6,t1,0xf
    6ee2:	9c8d                	subw	s1,s1,a1
    6ee4:	0001                	nop
    6ee6:	037f9333          	mulh	t1,t6,s7
    6eea:	00f164b3          	or	s1,sp,a5
    6eee:	00f48133          	add	sp,s1,a5
    6ef2:	88d2                	mv	a7,s4
    6ef4:	033fd793          	srli	a5,t6,0x33
    6ef8:	e9c89317          	auipc	t1,0xe9c89
    6efc:	9abbcc93          	xori	s9,s7,-1621
    6f00:	42686493          	ori	s1,a6,1062
    6f04:	02c78bb3          	mul	s7,a5,a2
    6f08:	02e964b3          	rem	s1,s2,a4
    6f0c:	037f9333          	mulh	t1,t6,s7
    6f10:	54f6a993          	slti	s3,a3,1359
    6f14:	01a37233          	and	tp,t1,s10
    6f18:	dfa53c93          	sltiu	s9,a0,-518
    6f1c:	e0a1059b          	addiw	a1,sp,-502
    6f20:	51fd                	li	gp,-1
    6f22:	e9c89317          	auipc	t1,0xe9c89
    6f26:	6eed                	lui	t4,0x1b
    6f28:	008643b3          	xor	t2,a2,s0
    6f2c:	029d29b3          	mulhsu	s3,s10,s1
    6f30:	13ad0213          	addi	tp,s10,314
    6f34:	037f9333          	mulh	t1,t6,s7
    6f38:	41d98233          	sub	tp,s3,t4
    6f3c:	40dad233          	sra	tp,s5,a3
    6f40:	01a37233          	and	tp,t1,s10
    6f44:	0001                	nop
    6f46:	004e5ab3          	srl	s5,t3,tp
    6f4a:	fff0021b          	addiw	tp,zero,-1
    6f4e:	127e                	slli	tp,tp,0x3f
    6f50:	55fd                	li	a1,-1
    6f52:	fff0029b          	addiw	t0,zero,-1
    6f56:	12fe                	slli	t0,t0,0x3f
    6f58:	5efd                	li	t4,-1
    6f5a:	547d                	li	s0,-1
    6f5c:	5afd                	li	s5,-1
    6f5e:	5d7d                	li	s10,-1
    6f60:	0044cb37          	lui	s6,0x44c
    6f64:	1bdb0b1b          	addiw	s6,s6,445
    6f68:	0b3e                	slli	s6,s6,0xf
    6f6a:	817b0b13          	addi	s6,s6,-2025 # 44b817 <_end+0x42bb17>
    6f6e:	0b36                	slli	s6,s6,0xd
    6f70:	871b0b13          	addi	s6,s6,-1935
    6f74:	0b32                	slli	s6,s6,0xc
    6f76:	1d7b0b13          	addi	s6,s6,471
    6f7a:	fff0061b          	addiw	a2,zero,-1
    6f7e:	167e                	slli	a2,a2,0x3f
    6f80:	4f01                	li	t5,0
    6f82:	e9c89217          	auipc	tp,0xe9c89
    6f86:	00bd0b3b          	addw	s6,s10,a1
    6f8a:	03a252bb          	divuw	t0,tp,s10
    6f8e:	025f4ebb          	divw	t4,t5,t0
    6f92:	41a20d33          	sub	s10,tp,s10
    6f96:	008f0d33          	add	s10,t5,s0
    6f9a:	03d25eb3          	divu	t4,tp,t4
    6f9e:	02c272b3          	remu	t0,tp,a2
    6fa2:	035612b3          	mulh	t0,a2,s5
    6fa6:	028d6f33          	rem	t5,s10,s0
    6faa:	02ce8633          	mul	a2,t4,a2
    6fae:	0365823b          	mulw	tp,a1,s6
    6fb2:	02c6723b          	remuw	tp,a2,a2
    6fb6:	0001                	nop
    6fb8:	0001                	nop
    6fba:	5d328d37          	lui	s10,0x5d328
    6fbe:	02844d33          	div	s10,s0,s0
    6fc2:	e0a40e9b          	addiw	t4,s0,-502
    6fc6:	0252a233          	mulhsu	tp,t0,t0
    6fca:	e9c89217          	auipc	tp,0xe9c89
    6fce:	0001                	nop
    6fd0:	00bd0b3b          	addw	s6,s10,a1
    6fd4:	028d6f33          	rem	t5,s10,s0
    6fd8:	e9c89217          	auipc	tp,0xe9c89
    6fdc:	e0a40e9b          	addiw	t4,s0,-502
    6fe0:	02c272b3          	remu	t0,tp,a2
    6fe4:	e9c89317          	auipc	t1,0xe9c89
    6fe8:	e9c89317          	auipc	t1,0xe9c89
    6fec:	41d98233          	sub	tp,s3,t4
    6ff0:	8ef1                	and	a3,a3,a2
    6ff2:	029d29b3          	mulhsu	s3,s10,s1
    6ff6:	dfa53c93          	sltiu	s9,a0,-518
    6ffa:	00f164b3          	or	s1,sp,a5
    6ffe:	8d3d                	xor	a0,a0,a5
    7000:	4048dcbb          	sraw	s9,a7,tp
    7004:	987d                	andi	s0,s0,-1
    7006:	0a04                	addi	s1,sp,272
    7008:	42686493          	ori	s1,a6,1062
    700c:	01a3ba33          	sltu	s4,t2,s10
    7010:	02e8b633          	mulhu	a2,a7,a4
    7014:	9abbcc93          	xori	s9,s7,-1621
    7018:	9abbcc93          	xori	s9,s7,-1621
    701c:	033fd793          	srli	a5,t6,0x33
    7020:	41d98233          	sub	tp,s3,t4
    7024:	0001                	nop
    7026:	8ec9                	or	a3,a3,a0
    7028:	317d                	addiw	sp,sp,-1
    702a:	40dad233          	sra	tp,s5,a3
    702e:	00f48133          	add	sp,s1,a5
    7032:	317d                	addiw	sp,sp,-1
    7034:	40675113          	srai	sp,a4,0x6
    7038:	9c8d                	subw	s1,s1,a1
    703a:	01f099b3          	sll	s3,ra,t6
    703e:	9abbcc93          	xori	s9,s7,-1621
    7042:	317d                	addiw	sp,sp,-1
    7044:	033fd793          	srli	a5,t6,0x33
    7048:	00f164b3          	or	s1,sp,a5
    704c:	13ad0213          	addi	tp,s10,314 # 5d32813a <_end+0x5d30843a>
    7050:	317d                	addiw	sp,sp,-1
    7052:	02e964b3          	rem	s1,s2,a4
    7056:	9ead                	addw	a3,a3,a1
    7058:	039f7a3b          	remuw	s4,t5,s9
    705c:	02dadfb3          	divu	t6,s5,a3
    7060:	13ad0213          	addi	tp,s10,314
    7064:	42686493          	ori	s1,a6,1062
    7068:	0a04                	addi	s1,sp,272
    706a:	8ef1                	and	a3,a3,a2
    706c:	317d                	addiw	sp,sp,-1
    706e:	38057713          	andi	a4,a0,896
    7072:	9abbcc93          	xori	s9,s7,-1621
    7076:	039f7a3b          	remuw	s4,t5,s9
    707a:	8ef1                	and	a3,a3,a2
    707c:	e9c89317          	auipc	t1,0xe9c89
    7080:	0001                	nop
    7082:	9abbcc93          	xori	s9,s7,-1621
    7086:	03509613          	slli	a2,ra,0x35
    708a:	033fd793          	srli	a5,t6,0x33
    708e:	0001                	nop
    7090:	00f31f9b          	slliw	t6,t1,0xf
    7094:	4048dcbb          	sraw	s9,a7,tp
    7098:	808d                	srli	s1,s1,0x3
    709a:	9c8d                	subw	s1,s1,a1
    709c:	9abbcc93          	xori	s9,s7,-1621
    70a0:	9c8d                	subw	s1,s1,a1
    70a2:	dfa53c93          	sltiu	s9,a0,-518
    70a6:	41d98233          	sub	tp,s3,t4
    70aa:	e0a1059b          	addiw	a1,sp,-502
    70ae:	5d328737          	lui	a4,0x5d328
    70b2:	fff0009b          	addiw	ra,zero,-1
    70b6:	10fe                	slli	ra,ra,0x3f
    70b8:	fff0039b          	addiw	t2,zero,-1
    70bc:	13fe                	slli	t2,t2,0x3f
    70be:	5bfd                	li	s7,-1
    70c0:	00730437          	lui	s0,0x730
    70c4:	b8b4041b          	addiw	s0,s0,-1141
    70c8:	043e                	slli	s0,s0,0xf
    70ca:	d9f40413          	addi	s0,s0,-609 # 72fd9f <_end+0x71009f>
    70ce:	0432                	slli	s0,s0,0xc
    70d0:	b4d40413          	addi	s0,s0,-1203
    70d4:	0432                	slli	s0,s0,0xc
    70d6:	5dc40413          	addi	s0,s0,1500
    70da:	016868b7          	lui	a7,0x1686
    70de:	a358889b          	addiw	a7,a7,-1483
    70e2:	08b6                	slli	a7,a7,0xd
    70e4:	7bb88893          	addi	a7,a7,1979 # 16867bb <_end+0x1666abb>
    70e8:	08b2                	slli	a7,a7,0xc
    70ea:	acb88893          	addi	a7,a7,-1333
    70ee:	08b2                	slli	a7,a7,0xc
    70f0:	e9288893          	addi	a7,a7,-366
    70f4:	5afd                	li	s5,-1
    70f6:	4d01                	li	s10,0
    70f8:	fff0019b          	addiw	gp,zero,-1
    70fc:	11fe                	slli	gp,gp,0x3f
    70fe:	4781                	li	a5,0
    7100:	fff0049b          	addiw	s1,zero,-1
    7104:	14fe                	slli	s1,s1,0x3f
    7106:	5d328d37          	lui	s10,0x5d328
    710a:	031413b3          	mulh	t2,s0,a7
    710e:	017d01bb          	addw	gp,s10,s7
    7112:	031afab3          	remu	s5,s5,a7
    7116:	029b88bb          	mulw	a7,s7,s1
    711a:	13a40d13          	addi	s10,s0,314
    711e:	0281e7bb          	remw	a5,gp,s0
    7122:	017d01bb          	addw	gp,s10,s7
    7126:	035a84b3          	mul	s1,s5,s5
    712a:	13a40d13          	addi	s10,s0,314
    712e:	031afab3          	remu	s5,s5,a7
    7132:	13a40d13          	addi	s10,s0,314
    7136:	03a7a433          	mulhsu	s0,a5,s10
    713a:	007d01b3          	add	gp,s10,t2
    713e:	5d328d37          	lui	s10,0x5d328
    7142:	0284bbb3          	mulhu	s7,s1,s0
    7146:	0281e7bb          	remw	a5,gp,s0
    714a:	007d01b3          	add	gp,s10,t2
    714e:	037f9333          	mulh	t1,t6,s7
    7152:	8d01                	sub	a0,a0,s0
    7154:	961a                	add	a2,a2,t1
    7156:	02817933          	remu	s2,sp,s0
    715a:	004e5ab3          	srl	s5,t3,tp
    715e:	88d2                	mv	a7,s4
    7160:	039f7a3b          	remuw	s4,t5,s9
    7164:	02e964b3          	rem	s1,s2,a4
    7168:	0001                	nop
    716a:	02e189bb          	mulw	s3,gp,a4
    716e:	0a04                	addi	s1,sp,272
    7170:	88d2                	mv	a7,s4
    7172:	41c7043b          	subw	s0,a4,t3
    7176:	00f164b3          	or	s1,sp,a5
    717a:	033fd793          	srli	a5,t6,0x33
    717e:	00f31f9b          	slliw	t6,t1,0xf
    7182:	02e189bb          	mulw	s3,gp,a4
    7186:	004e5ab3          	srl	s5,t3,tp
    718a:	01a37233          	and	tp,t1,s10
    718e:	00fed41b          	srliw	s0,t4,0xf
    7192:	0313633b          	remw	t1,t1,a7
    7196:	e9c89317          	auipc	t1,0xe9c89
    719a:	037f9333          	mulh	t1,t6,s7
    719e:	88d2                	mv	a7,s4
    71a0:	01a3ba33          	sltu	s4,t2,s10
    71a4:	03509613          	slli	a2,ra,0x35
    71a8:	e9c89317          	auipc	t1,0xe9c89
    71ac:	02e964b3          	rem	s1,s2,a4
    71b0:	317d                	addiw	sp,sp,-1
    71b2:	dfa53c93          	sltiu	s9,a0,-518
    71b6:	016a92bb          	sllw	t0,s5,s6
    71ba:	6eed                	lui	t4,0x1b
    71bc:	8d3d                	xor	a0,a0,a5
    71be:	02c78bb3          	mul	s7,a5,a2
    71c2:	0001                	nop
    71c4:	02dadfb3          	divu	t6,s5,a3
    71c8:	8d3d                	xor	a0,a0,a5
    71ca:	039f7a3b          	remuw	s4,t5,s9
    71ce:	0001                	nop
    71d0:	41c7043b          	subw	s0,a4,t3
    71d4:	40675113          	srai	sp,a4,0x6
    71d8:	8d01                	sub	a0,a0,s0
    71da:	9ead                	addw	a3,a3,a1
    71dc:	987d                	andi	s0,s0,-1
    71de:	0398d53b          	divuw	a0,a7,s9
    71e2:	40865a1b          	sraiw	s4,a2,0x8
    71e6:	00fed41b          	srliw	s0,t4,0xf
    71ea:	033fd793          	srli	a5,t6,0x33
    71ee:	033fd793          	srli	a5,t6,0x33
    71f2:	808d                	srli	s1,s1,0x3
    71f4:	00f164b3          	or	s1,sp,a5
    71f8:	317d                	addiw	sp,sp,-1
    71fa:	42686493          	ori	s1,a6,1062
    71fe:	0398d53b          	divuw	a0,a7,s9
    7202:	00fed41b          	srliw	s0,t4,0xf
    7206:	317d                	addiw	sp,sp,-1
    7208:	00f48133          	add	sp,s1,a5
    720c:	8d01                	sub	a0,a0,s0
    720e:	40675113          	srai	sp,a4,0x6
    7212:	8ec9                	or	a3,a3,a0
    7214:	54f6a993          	slti	s3,a3,1359
    7218:	8d3d                	xor	a0,a0,a5
    721a:	016a92bb          	sllw	t0,s5,s6
    721e:	02e8b633          	mulhu	a2,a7,a4
    7222:	00fed41b          	srliw	s0,t4,0xf
    7226:	02dadfb3          	divu	t6,s5,a3
    722a:	0a04                	addi	s1,sp,272
    722c:	02817933          	remu	s2,sp,s0
    7230:	008643b3          	xor	t2,a2,s0
    7234:	4048dcbb          	sraw	s9,a7,tp
    7238:	02e964b3          	rem	s1,s2,a4
    723c:	9abbcc93          	xori	s9,s7,-1621
    7240:	0a04                	addi	s1,sp,272
    7242:	41d98233          	sub	tp,s3,t4
    7246:	004e5ab3          	srl	s5,t3,tp
    724a:	02e964b3          	rem	s1,s2,a4
    724e:	4048dcbb          	sraw	s9,a7,tp
    7252:	9ead                	addw	a3,a3,a1
    7254:	02817933          	remu	s2,sp,s0
    7258:	008643b3          	xor	t2,a2,s0
    725c:	01320b3b          	addw	s6,tp,s3
    7260:	0001                	nop
    7262:	03e0c033          	div	zero,ra,t5
    7266:	01182a33          	slt	s4,a6,a7
    726a:	e0a1059b          	addiw	a1,sp,-502
    726e:	0a04                	addi	s1,sp,272
    7270:	01a3ba33          	sltu	s4,t2,s10
    7274:	02dadfb3          	divu	t6,s5,a3
    7278:	317d                	addiw	sp,sp,-1
    727a:	008643b3          	xor	t2,a2,s0
    727e:	9abbcc93          	xori	s9,s7,-1621
    7282:	0001                	nop
    7284:	e9c89317          	auipc	t1,0xe9c89
    7288:	090e                	slli	s2,s2,0x3
    728a:	808d                	srli	s1,s1,0x3
    728c:	e0a1059b          	addiw	a1,sp,-502
    7290:	717d                	addi	sp,sp,-16
    7292:	40675113          	srai	sp,a4,0x6
    7296:	0001                	nop
    7298:	961a                	add	a2,a2,t1
    729a:	039f7a3b          	remuw	s4,t5,s9
    729e:	9ead                	addw	a3,a3,a1
    72a0:	0398d53b          	divuw	a0,a7,s9
    72a4:	5d328737          	lui	a4,0x5d328
    72a8:	41c7043b          	subw	s0,a4,t3
    72ac:	039f7a3b          	remuw	s4,t5,s9
    72b0:	00e1d23b          	srlw	tp,gp,a4
    72b4:	02e189bb          	mulw	s3,gp,a4
    72b8:	13ad0213          	addi	tp,s10,314 # 5d32813a <_end+0x5d30843a>
    72bc:	008643b3          	xor	t2,a2,s0
    72c0:	51fd                	li	gp,-1
    72c2:	717d                	addi	sp,sp,-16
    72c4:	961a                	add	a2,a2,t1
    72c6:	01182a33          	slt	s4,a6,a7
    72ca:	40865a1b          	sraiw	s4,a2,0x8
    72ce:	03509613          	slli	a2,ra,0x35
    72d2:	02c78bb3          	mul	s7,a5,a2
    72d6:	88d2                	mv	a7,s4
    72d8:	717d                	addi	sp,sp,-16
    72da:	8d3d                	xor	a0,a0,a5
    72dc:	54f6a993          	slti	s3,a3,1359
    72e0:	717d                	addi	sp,sp,-16
    72e2:	40865a1b          	sraiw	s4,a2,0x8
    72e6:	0001                	nop
    72e8:	00f48133          	add	sp,s1,a5
    72ec:	40dad233          	sra	tp,s5,a3
    72f0:	8ec9                	or	a3,a3,a0
    72f2:	e9c89317          	auipc	t1,0xe9c89
    72f6:	004e5ab3          	srl	s5,t3,tp
    72fa:	02c78bb3          	mul	s7,a5,a2
    72fe:	54f6a993          	slti	s3,a3,1359
    7302:	13ad0213          	addi	tp,s10,314
    7306:	41c7043b          	subw	s0,a4,t3
    730a:	02e8b633          	mulhu	a2,a7,a4
    730e:	00fed41b          	srliw	s0,t4,0xf
    7312:	033fd793          	srli	a5,t6,0x33
    7316:	6eed                	lui	t4,0x1b
    7318:	02817933          	remu	s2,sp,s0
    731c:	6eed                	lui	t4,0x1b
    731e:	00fed41b          	srliw	s0,t4,0xf
    7322:	03e0c033          	div	zero,ra,t5
    7326:	0398d53b          	divuw	a0,a7,s9
    732a:	13ad0213          	addi	tp,s10,314
    732e:	01320b3b          	addw	s6,tp,s3
    7332:	004e5ab3          	srl	s5,t3,tp
    7336:	8d3d                	xor	a0,a0,a5
    7338:	6eed                	lui	t4,0x1b
    733a:	8ec9                	or	a3,a3,a0
    733c:	38057713          	andi	a4,a0,896
    7340:	987d                	andi	s0,s0,-1
    7342:	8d01                	sub	a0,a0,s0
    7344:	13ad0213          	addi	tp,s10,314
    7348:	039f7a3b          	remuw	s4,t5,s9
    734c:	808d                	srli	s1,s1,0x3
    734e:	8d01                	sub	a0,a0,s0
    7350:	03e0c033          	div	zero,ra,t5
    7354:	8d01                	sub	a0,a0,s0
    7356:	0a04                	addi	s1,sp,272
    7358:	8d3d                	xor	a0,a0,a5
    735a:	88d2                	mv	a7,s4
    735c:	40675113          	srai	sp,a4,0x6
    7360:	02dadfb3          	divu	t6,s5,a3
    7364:	317d                	addiw	sp,sp,-1
    7366:	41d98233          	sub	tp,s3,t4
    736a:	717d                	addi	sp,sp,-16
    736c:	808d                	srli	s1,s1,0x3
    736e:	54f6a993          	slti	s3,a3,1359
    7372:	00f48133          	add	sp,s1,a5
    7376:	02dadfb3          	divu	t6,s5,a3
    737a:	4048dcbb          	sraw	s9,a7,tp
    737e:	016a92bb          	sllw	t0,s5,s6
    7382:	0398d53b          	divuw	a0,a7,s9
    7386:	4048dcbb          	sraw	s9,a7,tp
    738a:	01a37233          	and	tp,t1,s10
    738e:	033fd793          	srli	a5,t6,0x33
    7392:	9c8d                	subw	s1,s1,a1
    7394:	41d98233          	sub	tp,s3,t4
    7398:	8d01                	sub	a0,a0,s0
    739a:	1f7d                	addi	t5,t5,-1
    739c:	00f164b3          	or	s1,sp,a5
    73a0:	1f7d                	addi	t5,t5,-1
    73a2:	02c78bb3          	mul	s7,a5,a2
    73a6:	88d2                	mv	a7,s4
    73a8:	961a                	add	a2,a2,t1
    73aa:	40865a1b          	sraiw	s4,a2,0x8
    73ae:	6eed                	lui	t4,0x1b
    73b0:	40675113          	srai	sp,a4,0x6
    73b4:	0001                	nop
    73b6:	03509613          	slli	a2,ra,0x35
    73ba:	01a37233          	and	tp,t1,s10
    73be:	42686493          	ori	s1,a6,1062
    73c2:	8d3d                	xor	a0,a0,a5
    73c4:	4048dcbb          	sraw	s9,a7,tp
    73c8:	02dadfb3          	divu	t6,s5,a3
    73cc:	9c8d                	subw	s1,s1,a1
    73ce:	8ec9                	or	a3,a3,a0
    73d0:	41d98233          	sub	tp,s3,t4
    73d4:	0001                	nop
    73d6:	0a04                	addi	s1,sp,272
    73d8:	016a92bb          	sllw	t0,s5,s6
    73dc:	0313633b          	remw	t1,t1,a7
    73e0:	00f164b3          	or	s1,sp,a5
    73e4:	41d98233          	sub	tp,s3,t4
    73e8:	9c8d                	subw	s1,s1,a1
    73ea:	090e                	slli	s2,s2,0x3
    73ec:	40dad233          	sra	tp,s5,a3
    73f0:	0398d53b          	divuw	a0,a7,s9
    73f4:	00f48133          	add	sp,s1,a5
    73f8:	03509613          	slli	a2,ra,0x35
    73fc:	02dadfb3          	divu	t6,s5,a3
    7400:	1f7d                	addi	t5,t5,-1
    7402:	8ec9                	or	a3,a3,a0
    7404:	0001                	nop
    7406:	016a92bb          	sllw	t0,s5,s6
    740a:	02c78bb3          	mul	s7,a5,a2
    740e:	13ad0213          	addi	tp,s10,314
    7412:	02e8b633          	mulhu	a2,a7,a4
    7416:	40dad233          	sra	tp,s5,a3
    741a:	987d                	andi	s0,s0,-1
    741c:	8d01                	sub	a0,a0,s0
    741e:	8ef1                	and	a3,a3,a2
    7420:	01f099b3          	sll	s3,ra,t6
    7424:	e9c89317          	auipc	t1,0xe9c89
    7428:	004e5ab3          	srl	s5,t3,tp
    742c:	00fed41b          	srliw	s0,t4,0xf
    7430:	02817933          	remu	s2,sp,s0
    7434:	717d                	addi	sp,sp,-16
    7436:	090e                	slli	s2,s2,0x3
    7438:	090e                	slli	s2,s2,0x3
    743a:	01a37233          	and	tp,t1,s10
    743e:	8d01                	sub	a0,a0,s0
    7440:	317d                	addiw	sp,sp,-1
    7442:	01320b3b          	addw	s6,tp,s3
    7446:	51fd                	li	gp,-1
    7448:	317d                	addiw	sp,sp,-1
    744a:	dfa53c93          	sltiu	s9,a0,-518
    744e:	808d                	srli	s1,s1,0x3
    7450:	13ad0213          	addi	tp,s10,314
    7454:	41d98233          	sub	tp,s3,t4
    7458:	037f9333          	mulh	t1,t6,s7
    745c:	008643b3          	xor	t2,a2,s0
    7460:	13ad0213          	addi	tp,s10,314
    7464:	00f48133          	add	sp,s1,a5
    7468:	e9c89317          	auipc	t1,0xe9c89
    746c:	1f7d                	addi	t5,t5,-1
    746e:	02e189bb          	mulw	s3,gp,a4
    7472:	5d328737          	lui	a4,0x5d328
    7476:	40865a1b          	sraiw	s4,a2,0x8
    747a:	987d                	andi	s0,s0,-1
    747c:	88d2                	mv	a7,s4
    747e:	9abbcc93          	xori	s9,s7,-1621
    7482:	01320b3b          	addw	s6,tp,s3
    7486:	40dad233          	sra	tp,s5,a3
    748a:	e9c89317          	auipc	t1,0xe9c89
    748e:	00f164b3          	or	s1,sp,a5
    7492:	00f48133          	add	sp,s1,a5
    7496:	02f24d3b          	divw	s10,tp,a5
    749a:	6eed                	lui	t4,0x1b
    749c:	03509613          	slli	a2,ra,0x35
    74a0:	02e8b633          	mulhu	a2,a7,a4
    74a4:	033fd793          	srli	a5,t6,0x33
    74a8:	01182a33          	slt	s4,a6,a7
    74ac:	42686493          	ori	s1,a6,1062
    74b0:	016a92bb          	sllw	t0,s5,s6
    74b4:	4048dcbb          	sraw	s9,a7,tp
    74b8:	01320b3b          	addw	s6,tp,s3
    74bc:	40675113          	srai	sp,a4,0x6
    74c0:	41d98233          	sub	tp,s3,t4
    74c4:	88d2                	mv	a7,s4
    74c6:	039f7a3b          	remuw	s4,t5,s9
    74ca:	00f31f9b          	slliw	t6,t1,0xf
    74ce:	40675113          	srai	sp,a4,0x6
    74d2:	02e8b633          	mulhu	a2,a7,a4
    74d6:	037f9333          	mulh	t1,t6,s7
    74da:	13ad0213          	addi	tp,s10,314
    74de:	01a3ba33          	sltu	s4,t2,s10
    74e2:	004e5ab3          	srl	s5,t3,tp
    74e6:	03e0c033          	div	zero,ra,t5
    74ea:	40675113          	srai	sp,a4,0x6
    74ee:	03e0c033          	div	zero,ra,t5
    74f2:	13ad0213          	addi	tp,s10,314
    74f6:	039f7a3b          	remuw	s4,t5,s9
    74fa:	02dadfb3          	divu	t6,s5,a3
    74fe:	00fed41b          	srliw	s0,t4,0xf
    7502:	004e5ab3          	srl	s5,t3,tp
    7506:	51fd                	li	gp,-1
    7508:	5d328737          	lui	a4,0x5d328
    750c:	0001                	nop
    750e:	987d                	andi	s0,s0,-1
    7510:	40865a1b          	sraiw	s4,a2,0x8
    7514:	0313633b          	remw	t1,t1,a7
    7518:	02f24d3b          	divw	s10,tp,a5
    751c:	0001                	nop
    751e:	9ead                	addw	a3,a3,a1
    7520:	6eed                	lui	t4,0x1b
    7522:	039f7a3b          	remuw	s4,t5,s9
    7526:	03509613          	slli	a2,ra,0x35
    752a:	008643b3          	xor	t2,a2,s0
    752e:	987d                	andi	s0,s0,-1
    7530:	987d                	andi	s0,s0,-1
    7532:	0001                	nop
    7534:	03509613          	slli	a2,ra,0x35
    7538:	0398d53b          	divuw	a0,a7,s9
    753c:	02e189bb          	mulw	s3,gp,a4
    7540:	00f48133          	add	sp,s1,a5
    7544:	9abbcc93          	xori	s9,s7,-1621
    7548:	4048dcbb          	sraw	s9,a7,tp
    754c:	090e                	slli	s2,s2,0x3
    754e:	037f9333          	mulh	t1,t6,s7
    7552:	004e5ab3          	srl	s5,t3,tp
    7556:	02c78bb3          	mul	s7,a5,a2
    755a:	808d                	srli	s1,s1,0x3
    755c:	4048dcbb          	sraw	s9,a7,tp
    7560:	9ead                	addw	a3,a3,a1
    7562:	029d29b3          	mulhsu	s3,s10,s1
    7566:	02f24d3b          	divw	s10,tp,a5
    756a:	039f7a3b          	remuw	s4,t5,s9
    756e:	5d328737          	lui	a4,0x5d328
    7572:	40675113          	srai	sp,a4,0x6
    7576:	02817933          	remu	s2,sp,s0
    757a:	54f6a993          	slti	s3,a3,1359
    757e:	01f099b3          	sll	s3,ra,t6
    7582:	9c8d                	subw	s1,s1,a1
    7584:	6eed                	lui	t4,0x1b
    7586:	9c8d                	subw	s1,s1,a1
    7588:	037f9333          	mulh	t1,t6,s7
    758c:	42686493          	ori	s1,a6,1062
    7590:	03509613          	slli	a2,ra,0x35
    7594:	6eed                	lui	t4,0x1b
    7596:	01320b3b          	addw	s6,tp,s3
    759a:	00f164b3          	or	s1,sp,a5
    759e:	38057713          	andi	a4,a0,896
    75a2:	9c8d                	subw	s1,s1,a1
    75a4:	38057713          	andi	a4,a0,896
    75a8:	00f31f9b          	slliw	t6,t1,0xf
    75ac:	0001                	nop
    75ae:	4048dcbb          	sraw	s9,a7,tp
    75b2:	961a                	add	a2,a2,t1
    75b4:	717d                	addi	sp,sp,-16
    75b6:	00fed41b          	srliw	s0,t4,0xf
    75ba:	01f099b3          	sll	s3,ra,t6
    75be:	51fd                	li	gp,-1
    75c0:	9ead                	addw	a3,a3,a1
    75c2:	6eed                	lui	t4,0x1b
    75c4:	090e                	slli	s2,s2,0x3
    75c6:	0398d53b          	divuw	a0,a7,s9
    75ca:	00f48133          	add	sp,s1,a5
    75ce:	0001                	nop
    75d0:	01f099b3          	sll	s3,ra,t6
    75d4:	13ad0213          	addi	tp,s10,314
    75d8:	987d                	andi	s0,s0,-1
    75da:	1f7d                	addi	t5,t5,-1
    75dc:	41d98233          	sub	tp,s3,t4
    75e0:	0398d53b          	divuw	a0,a7,s9
    75e4:	02c78bb3          	mul	s7,a5,a2
    75e8:	033fd793          	srli	a5,t6,0x33
    75ec:	8d3d                	xor	a0,a0,a5
    75ee:	01a37233          	and	tp,t1,s10
    75f2:	8d3d                	xor	a0,a0,a5
    75f4:	317d                	addiw	sp,sp,-1
    75f6:	9c8d                	subw	s1,s1,a1
    75f8:	008643b3          	xor	t2,a2,s0
    75fc:	51fd                	li	gp,-1
    75fe:	5d328737          	lui	a4,0x5d328
    7602:	01320b3b          	addw	s6,tp,s3
    7606:	00f31f9b          	slliw	t6,t1,0xf
    760a:	41c7043b          	subw	s0,a4,t3
    760e:	40dad233          	sra	tp,s5,a3
    7612:	8d01                	sub	a0,a0,s0
    7614:	8439                	srai	s0,s0,0xe
    7616:	13ad0213          	addi	tp,s10,314
    761a:	0001                	nop
    761c:	008643b3          	xor	t2,a2,s0
    7620:	016a92bb          	sllw	t0,s5,s6
    7624:	54f6a993          	slti	s3,a3,1359
    7628:	987d                	andi	s0,s0,-1
    762a:	40675113          	srai	sp,a4,0x6
    762e:	00f164b3          	or	s1,sp,a5
    7632:	9abbcc93          	xori	s9,s7,-1621
    7636:	00f31f9b          	slliw	t6,t1,0xf
    763a:	0001                	nop
    763c:	38057713          	andi	a4,a0,896
    7640:	02e8b633          	mulhu	a2,a7,a4
    7644:	02c78bb3          	mul	s7,a5,a2
    7648:	0a04                	addi	s1,sp,272
    764a:	1f7d                	addi	t5,t5,-1
    764c:	8ec9                	or	a3,a3,a0
    764e:	9c8d                	subw	s1,s1,a1
    7650:	02e964b3          	rem	s1,s2,a4
    7654:	02817933          	remu	s2,sp,s0
    7658:	41c7043b          	subw	s0,a4,t3
    765c:	0001                	nop
    765e:	8ec9                	or	a3,a3,a0
    7660:	38057713          	andi	a4,a0,896
    7664:	9ead                	addw	a3,a3,a1
    7666:	13ad0213          	addi	tp,s10,314
    766a:	02dadfb3          	divu	t6,s5,a3
    766e:	dfa53c93          	sltiu	s9,a0,-518
    7672:	0313633b          	remw	t1,t1,a7
    7676:	039f7a3b          	remuw	s4,t5,s9
    767a:	fff0071b          	addiw	a4,zero,-1
    767e:	177e                	slli	a4,a4,0x3f
    7680:	fff0039b          	addiw	t2,zero,-1
    7684:	13fe                	slli	t2,t2,0x3f
    7686:	4d01                	li	s10,0
    7688:	0619d337          	lui	t1,0x619d
    768c:	0593031b          	addiw	t1,t1,89
    7690:	0332                	slli	t1,t1,0xc
    7692:	76930313          	addi	t1,t1,1897 # 619d769 <_end+0x617da69>
    7696:	0332                	slli	t1,t1,0xc
    7698:	b8b30313          	addi	t1,t1,-1141
    769c:	0332                	slli	t1,t1,0xc
    769e:	98e30313          	addi	t1,t1,-1650
    76a2:	58fd                	li	a7,-1
    76a4:	59fd                	li	s3,-1
    76a6:	4281                	li	t0,0
    76a8:	fff0091b          	addiw	s2,zero,-1
    76ac:	197e                	slli	s2,s2,0x3f
    76ae:	4401                	li	s0,0
    76b0:	4781                	li	a5,0
    76b2:	996a                	add	s2,s2,s10
    76b4:	025742bb          	divw	t0,a4,t0
    76b8:	996a                	add	s2,s2,s10
    76ba:	e0ad079b          	addiw	a5,s10,-502
    76be:	02e379b3          	remu	s3,t1,a4
    76c2:	03143733          	mulhu	a4,s0,a7
    76c6:	e0ad079b          	addiw	a5,s10,-502
    76ca:	02e28d33          	mul	s10,t0,a4
    76ce:	0001                	nop
    76d0:	032958bb          	divuw	a7,s2,s2
    76d4:	e0ad079b          	addiw	a5,s10,-502
    76d8:	0253a433          	mulhsu	s0,t2,t0
    76dc:	03143733          	mulhu	a4,s0,a7
    76e0:	032958bb          	divuw	a7,s2,s2
    76e4:	03143733          	mulhu	a4,s0,a7
    76e8:	5d328d37          	lui	s10,0x5d328
    76ec:	032958bb          	divuw	a7,s2,s2
    76f0:	e0ad079b          	addiw	a5,s10,-502
    76f4:	02e28d33          	mul	s10,t0,a4
    76f8:	41a30933          	sub	s2,t1,s10
    76fc:	025713b3          	mulh	t2,a4,t0
    7700:	025742bb          	divw	t0,a4,t0
    7704:	033478bb          	remuw	a7,s0,s3
    7708:	e9c89317          	auipc	t1,0xe9c89
    770c:	0001                	nop
    770e:	03e0c033          	div	zero,ra,t5
    7712:	02817933          	remu	s2,sp,s0
    7716:	0001                	nop
    7718:	0001                	nop
    771a:	00f48133          	add	sp,s1,a5
    771e:	42686493          	ori	s1,a6,1062
    7722:	0398d53b          	divuw	a0,a7,s9
    7726:	033fd793          	srli	a5,t6,0x33
    772a:	090e                	slli	s2,s2,0x3
    772c:	01a3ba33          	sltu	s4,t2,s10
    7730:	0398d53b          	divuw	a0,a7,s9
    7734:	51fd                	li	gp,-1
    7736:	8ec9                	or	a3,a3,a0
    7738:	033fd793          	srli	a5,t6,0x33
    773c:	00e1d23b          	srlw	tp,gp,a4
    7740:	9ead                	addw	a3,a3,a1
    7742:	02dadfb3          	divu	t6,s5,a3
    7746:	0313633b          	remw	t1,t1,a7
    774a:	00fed41b          	srliw	s0,t4,0xf
    774e:	8d3d                	xor	a0,a0,a5
    7750:	dfa53c93          	sltiu	s9,a0,-518
    7754:	8439                	srai	s0,s0,0xe
    7756:	02e964b3          	rem	s1,s2,a4
    775a:	00f48133          	add	sp,s1,a5
    775e:	9abbcc93          	xori	s9,s7,-1621
    7762:	717d                	addi	sp,sp,-16
    7764:	8ef1                	and	a3,a3,a2
    7766:	40675113          	srai	sp,a4,0x6
    776a:	8ec9                	or	a3,a3,a0
    776c:	039f7a3b          	remuw	s4,t5,s9
    7770:	e0a1059b          	addiw	a1,sp,-502
    7774:	8439                	srai	s0,s0,0xe
    7776:	01182a33          	slt	s4,a6,a7
    777a:	e0a1059b          	addiw	a1,sp,-502
    777e:	0a04                	addi	s1,sp,272
    7780:	987d                	andi	s0,s0,-1
    7782:	01f099b3          	sll	s3,ra,t6
    7786:	961a                	add	a2,a2,t1
    7788:	01f099b3          	sll	s3,ra,t6
    778c:	808d                	srli	s1,s1,0x3
    778e:	02e964b3          	rem	s1,s2,a4
    7792:	03509613          	slli	a2,ra,0x35
    7796:	033fd793          	srli	a5,t6,0x33
    779a:	02dadfb3          	divu	t6,s5,a3
    779e:	02f24d3b          	divw	s10,tp,a5
    77a2:	01a3ba33          	sltu	s4,t2,s10
    77a6:	00f164b3          	or	s1,sp,a5
    77aa:	01a3ba33          	sltu	s4,t2,s10
    77ae:	02dadfb3          	divu	t6,s5,a3
    77b2:	0001                	nop
    77b4:	01320b3b          	addw	s6,tp,s3
    77b8:	6eed                	lui	t4,0x1b
    77ba:	00fed41b          	srliw	s0,t4,0xf
    77be:	5b7d                	li	s6,-1
    77c0:	51fd                	li	gp,-1
    77c2:	fff0071b          	addiw	a4,zero,-1
    77c6:	177e                	slli	a4,a4,0x3f
    77c8:	58fd                	li	a7,-1
    77ca:	ff3c7d37          	lui	s10,0xff3c7
    77ce:	d21d0d1b          	addiw	s10,s10,-735
    77d2:	0d32                	slli	s10,s10,0xc
    77d4:	365d0d13          	addi	s10,s10,869 # ffffffffff3c7365 <_end+0xffffffffff3a7665>
    77d8:	0d3e                	slli	s10,s10,0xf
    77da:	22bd0d13          	addi	s10,s10,555
    77de:	0d32                	slli	s10,s10,0xc
    77e0:	131d0d13          	addi	s10,s10,305
    77e4:	53fd                	li	t2,-1
    77e6:	557d                	li	a0,-1
    77e8:	4301                	li	t1,0
    77ea:	ffdf3637          	lui	a2,0xffdf3
    77ee:	75d6061b          	addiw	a2,a2,1885
    77f2:	0632                	slli	a2,a2,0xc
    77f4:	74f60613          	addi	a2,a2,1871 # ffffffffffdf374f <_end+0xffffffffffdd3a4f>
    77f8:	063a                	slli	a2,a2,0xe
    77fa:	40f60613          	addi	a2,a2,1039
    77fe:	063e                	slli	a2,a2,0xf
    7800:	84360613          	addi	a2,a2,-1981
    7804:	4c81                	li	s9,0
    7806:	02ad6b33          	rem	s6,s10,a0
    780a:	006b0633          	add	a2,s6,t1
    780e:	007d0b3b          	addw	s6,s10,t2
    7812:	5d328d37          	lui	s10,0x5d328
    7816:	40cd08bb          	subw	a7,s10,a2
    781a:	03ac88b3          	mul	a7,s9,s10
    781e:	41630b33          	sub	s6,t1,s6
    7822:	e9c89317          	auipc	t1,0xe9c89
    7826:	02e743bb          	divw	t2,a4,a4
    782a:	e9c89317          	auipc	t1,0xe9c89
    782e:	40cd08bb          	subw	a7,s10,a2
    7832:	031358bb          	divuw	a7,t1,a7
    7836:	036561bb          	remw	gp,a0,s6
    783a:	0001                	nop
    783c:	006b0633          	add	a2,s6,t1
    7840:	02671733          	mulh	a4,a4,t1
    7844:	03a378b3          	remu	a7,t1,s10
    7848:	40cd08bb          	subw	a7,s10,a2
    784c:	02a3a633          	mulhsu	a2,t2,a0
    7850:	03a378b3          	remu	a7,t1,s10
    7854:	02e753b3          	divu	t2,a4,a4
    7858:	0001                	nop
    785a:	031358bb          	divuw	a7,t1,a7
    785e:	02a3a633          	mulhsu	a2,t2,a0
    7862:	02e753b3          	divu	t2,a4,a4
    7866:	006b0633          	add	a2,s6,t1
    786a:	40cd08bb          	subw	a7,s10,a2
    786e:	13ad0213          	addi	tp,s10,314 # 5d32813a <_end+0x5d30843a>
    7872:	00f31f9b          	slliw	t6,t1,0xf
    7876:	03e0c033          	div	zero,ra,t5
    787a:	01a3ba33          	sltu	s4,t2,s10
    787e:	02e8b633          	mulhu	a2,a7,a4
    7882:	9c8d                	subw	s1,s1,a1
    7884:	8d01                	sub	a0,a0,s0
    7886:	961a                	add	a2,a2,t1
    7888:	54f6a993          	slti	s3,a3,1359
    788c:	41d98233          	sub	tp,s3,t4
    7890:	13ad0213          	addi	tp,s10,314
    7894:	40675113          	srai	sp,a4,0x6
    7898:	51fd                	li	gp,-1
    789a:	0398d53b          	divuw	a0,a7,s9
    789e:	0a04                	addi	s1,sp,272
    78a0:	9ead                	addw	a3,a3,a1
    78a2:	dfa53c93          	sltiu	s9,a0,-518
    78a6:	e9c89317          	auipc	t1,0xe9c89
    78aa:	039f7a3b          	remuw	s4,t5,s9
    78ae:	13ad0213          	addi	tp,s10,314
    78b2:	033fd793          	srli	a5,t6,0x33
    78b6:	033fd793          	srli	a5,t6,0x33
    78ba:	6eed                	lui	t4,0x1b
    78bc:	717d                	addi	sp,sp,-16
    78be:	01a37233          	and	tp,t1,s10
    78c2:	40dad233          	sra	tp,s5,a3
    78c6:	00e1d23b          	srlw	tp,gp,a4
    78ca:	808d                	srli	s1,s1,0x3
    78cc:	4048dcbb          	sraw	s9,a7,tp
    78d0:	00f164b3          	or	s1,sp,a5
    78d4:	00f31f9b          	slliw	t6,t1,0xf
    78d8:	039f7a3b          	remuw	s4,t5,s9
    78dc:	0001                	nop
    78de:	090e                	slli	s2,s2,0x3
    78e0:	090e                	slli	s2,s2,0x3
    78e2:	40865a1b          	sraiw	s4,a2,0x8
    78e6:	808d                	srli	s1,s1,0x3
    78e8:	008643b3          	xor	t2,a2,s0
    78ec:	13ad0213          	addi	tp,s10,314
    78f0:	02e8b633          	mulhu	a2,a7,a4
    78f4:	0001                	nop
    78f6:	02dadfb3          	divu	t6,s5,a3
    78fa:	008643b3          	xor	t2,a2,s0
    78fe:	8439                	srai	s0,s0,0xe
    7900:	9abbcc93          	xori	s9,s7,-1621
    7904:	40dad233          	sra	tp,s5,a3
    7908:	01320b3b          	addw	s6,tp,s3
    790c:	03509613          	slli	a2,ra,0x35
    7910:	317d                	addiw	sp,sp,-1
    7912:	0001                	nop
    7914:	016a92bb          	sllw	t0,s5,s6
    7918:	02e8b633          	mulhu	a2,a7,a4
    791c:	4048dcbb          	sraw	s9,a7,tp
    7920:	00f31f9b          	slliw	t6,t1,0xf
    7924:	02dadfb3          	divu	t6,s5,a3
    7928:	03509613          	slli	a2,ra,0x35
    792c:	0001                	nop
    792e:	02f24d3b          	divw	s10,tp,a5
    7932:	03e0c033          	div	zero,ra,t5
    7936:	02dadfb3          	divu	t6,s5,a3
    793a:	808d                	srli	s1,s1,0x3
    793c:	6eed                	lui	t4,0x1b
    793e:	029d29b3          	mulhsu	s3,s10,s1
    7942:	9abbcc93          	xori	s9,s7,-1621
    7946:	38057713          	andi	a4,a0,896
    794a:	02dadfb3          	divu	t6,s5,a3
    794e:	8ec9                	or	a3,a3,a0
    7950:	00f164b3          	or	s1,sp,a5
    7954:	090e                	slli	s2,s2,0x3
    7956:	42686493          	ori	s1,a6,1062
    795a:	01a3ba33          	sltu	s4,t2,s10
    795e:	1f7d                	addi	t5,t5,-1
    7960:	0001                	nop
    7962:	0398d53b          	divuw	a0,a7,s9
    7966:	033fd793          	srli	a5,t6,0x33
    796a:	00fed41b          	srliw	s0,t4,0xf
    796e:	4048dcbb          	sraw	s9,a7,tp
    7972:	01a3ba33          	sltu	s4,t2,s10
    7976:	8ec9                	or	a3,a3,a0
    7978:	02817933          	remu	s2,sp,s0
    797c:	00f31f9b          	slliw	t6,t1,0xf
    7980:	40675113          	srai	sp,a4,0x6
    7984:	00e1d23b          	srlw	tp,gp,a4
    7988:	02e8b633          	mulhu	a2,a7,a4
    798c:	1f7d                	addi	t5,t5,-1
    798e:	8d3d                	xor	a0,a0,a5
    7990:	01a37233          	and	tp,t1,s10
    7994:	090e                	slli	s2,s2,0x3
    7996:	38057713          	andi	a4,a0,896
    799a:	6eed                	lui	t4,0x1b
    799c:	008643b3          	xor	t2,a2,s0
    79a0:	8d01                	sub	a0,a0,s0
    79a2:	0313633b          	remw	t1,t1,a7
    79a6:	01320b3b          	addw	s6,tp,s3
    79aa:	1f7d                	addi	t5,t5,-1
    79ac:	41c7043b          	subw	s0,a4,t3
    79b0:	01320b3b          	addw	s6,tp,s3
    79b4:	00f48133          	add	sp,s1,a5
    79b8:	01320b3b          	addw	s6,tp,s3
    79bc:	0001                	nop
    79be:	41c7043b          	subw	s0,a4,t3
    79c2:	41d98233          	sub	tp,s3,t4
    79c6:	54f6a993          	slti	s3,a3,1359
    79ca:	dfa53c93          	sltiu	s9,a0,-518
    79ce:	02817933          	remu	s2,sp,s0
    79d2:	4048dcbb          	sraw	s9,a7,tp
    79d6:	dfa53c93          	sltiu	s9,a0,-518
    79da:	029d29b3          	mulhsu	s3,s10,s1
    79de:	54f6a993          	slti	s3,a3,1359
    79e2:	42686493          	ori	s1,a6,1062
    79e6:	42686493          	ori	s1,a6,1062
    79ea:	0001                	nop
    79ec:	8439                	srai	s0,s0,0xe
    79ee:	01a37233          	and	tp,t1,s10
    79f2:	317d                	addiw	sp,sp,-1
    79f4:	987d                	andi	s0,s0,-1
    79f6:	03e0c033          	div	zero,ra,t5
    79fa:	03509613          	slli	a2,ra,0x35
    79fe:	00fed41b          	srliw	s0,t4,0xf
    7a02:	8d3d                	xor	a0,a0,a5
    7a04:	016a92bb          	sllw	t0,s5,s6
    7a08:	5d328737          	lui	a4,0x5d328
    7a0c:	41c7043b          	subw	s0,a4,t3
    7a10:	0a04                	addi	s1,sp,272
    7a12:	5d328737          	lui	a4,0x5d328
    7a16:	808d                	srli	s1,s1,0x3
    7a18:	8ec9                	or	a3,a3,a0
    7a1a:	02e189bb          	mulw	s3,gp,a4
    7a1e:	40dad233          	sra	tp,s5,a3
    7a22:	02f24d3b          	divw	s10,tp,a5
    7a26:	41d98233          	sub	tp,s3,t4
    7a2a:	039f7a3b          	remuw	s4,t5,s9
    7a2e:	037f9333          	mulh	t1,t6,s7
    7a32:	dfa53c93          	sltiu	s9,a0,-518
    7a36:	e9c89317          	auipc	t1,0xe9c89
    7a3a:	00f31f9b          	slliw	t6,t1,0xf
    7a3e:	02817933          	remu	s2,sp,s0
    7a42:	004e5ab3          	srl	s5,t3,tp
    7a46:	0001                	nop
    7a48:	51fd                	li	gp,-1
    7a4a:	00e1d23b          	srlw	tp,gp,a4
    7a4e:	4048dcbb          	sraw	s9,a7,tp
    7a52:	0001                	nop
    7a54:	03e0c033          	div	zero,ra,t5
    7a58:	808d                	srli	s1,s1,0x3
    7a5a:	008643b3          	xor	t2,a2,s0
    7a5e:	8ef1                	and	a3,a3,a2
    7a60:	e0a1059b          	addiw	a1,sp,-502
    7a64:	961a                	add	a2,a2,t1
    7a66:	40dad233          	sra	tp,s5,a3
    7a6a:	00f48133          	add	sp,s1,a5
    7a6e:	8d01                	sub	a0,a0,s0
    7a70:	01a37233          	and	tp,t1,s10
    7a74:	01a37233          	and	tp,t1,s10
    7a78:	9c8d                	subw	s1,s1,a1
    7a7a:	9abbcc93          	xori	s9,s7,-1621
    7a7e:	0313633b          	remw	t1,t1,a7
    7a82:	8439                	srai	s0,s0,0xe
    7a84:	02e964b3          	rem	s1,s2,a4
    7a88:	00f31f9b          	slliw	t6,t1,0xf
    7a8c:	01320b3b          	addw	s6,tp,s3
    7a90:	51fd                	li	gp,-1
    7a92:	e9c89317          	auipc	t1,0xe9c89
    7a96:	317d                	addiw	sp,sp,-1
    7a98:	0001                	nop
    7a9a:	029d29b3          	mulhsu	s3,s10,s1
    7a9e:	004e5ab3          	srl	s5,t3,tp
    7aa2:	6eed                	lui	t4,0x1b
    7aa4:	8ec9                	or	a3,a3,a0
    7aa6:	008643b3          	xor	t2,a2,s0
    7aaa:	1f7d                	addi	t5,t5,-1
    7aac:	02e189bb          	mulw	s3,gp,a4
    7ab0:	03509613          	slli	a2,ra,0x35
    7ab4:	9c8d                	subw	s1,s1,a1
    7ab6:	1f7d                	addi	t5,t5,-1
    7ab8:	40865a1b          	sraiw	s4,a2,0x8
    7abc:	4048dcbb          	sraw	s9,a7,tp
    7ac0:	01320b3b          	addw	s6,tp,s3
    7ac4:	8ef1                	and	a3,a3,a2
    7ac6:	54f6a993          	slti	s3,a3,1359
    7aca:	6eed                	lui	t4,0x1b
    7acc:	9ead                	addw	a3,a3,a1
    7ace:	0313633b          	remw	t1,t1,a7
    7ad2:	016a92bb          	sllw	t0,s5,s6
    7ad6:	00fed41b          	srliw	s0,t4,0xf
    7ada:	00e1d23b          	srlw	tp,gp,a4
    7ade:	02f24d3b          	divw	s10,tp,a5
    7ae2:	8ef1                	and	a3,a3,a2
    7ae4:	02e964b3          	rem	s1,s2,a4
    7ae8:	8439                	srai	s0,s0,0xe
    7aea:	13ad0213          	addi	tp,s10,314
    7aee:	00f31f9b          	slliw	t6,t1,0xf
    7af2:	40dad233          	sra	tp,s5,a3
    7af6:	0001                	nop
    7af8:	41c7043b          	subw	s0,a4,t3
    7afc:	01a3ba33          	sltu	s4,t2,s10
    7b00:	9ead                	addw	a3,a3,a1
    7b02:	4048dcbb          	sraw	s9,a7,tp
    7b06:	02f24d3b          	divw	s10,tp,a5
    7b0a:	090e                	slli	s2,s2,0x3
    7b0c:	01182a33          	slt	s4,a6,a7
    7b10:	01f099b3          	sll	s3,ra,t6
    7b14:	e0a1059b          	addiw	a1,sp,-502
    7b18:	e0a1059b          	addiw	a1,sp,-502
    7b1c:	41c7043b          	subw	s0,a4,t3
    7b20:	40dad233          	sra	tp,s5,a3
    7b24:	9abbcc93          	xori	s9,s7,-1621
    7b28:	41c7043b          	subw	s0,a4,t3
    7b2c:	13ad0213          	addi	tp,s10,314
    7b30:	6eed                	lui	t4,0x1b
    7b32:	38057713          	andi	a4,a0,896
    7b36:	9c8d                	subw	s1,s1,a1
    7b38:	02c78bb3          	mul	s7,a5,a2
    7b3c:	51fd                	li	gp,-1
    7b3e:	8d3d                	xor	a0,a0,a5
    7b40:	01182a33          	slt	s4,a6,a7
    7b44:	033fd793          	srli	a5,t6,0x33
    7b48:	317d                	addiw	sp,sp,-1
    7b4a:	8ec9                	or	a3,a3,a0
    7b4c:	1f7d                	addi	t5,t5,-1
    7b4e:	00e1d23b          	srlw	tp,gp,a4
    7b52:	38057713          	andi	a4,a0,896
    7b56:	41c7043b          	subw	s0,a4,t3
    7b5a:	00fed41b          	srliw	s0,t4,0xf
    7b5e:	9abbcc93          	xori	s9,s7,-1621
    7b62:	090e                	slli	s2,s2,0x3
    7b64:	037f9333          	mulh	t1,t6,s7
    7b68:	01182a33          	slt	s4,a6,a7
    7b6c:	6eed                	lui	t4,0x1b
    7b6e:	033fd793          	srli	a5,t6,0x33
    7b72:	717d                	addi	sp,sp,-16
    7b74:	02e189bb          	mulw	s3,gp,a4
    7b78:	9c8d                	subw	s1,s1,a1
    7b7a:	02e8b633          	mulhu	a2,a7,a4
    7b7e:	9c8d                	subw	s1,s1,a1
    7b80:	02f24d3b          	divw	s10,tp,a5
    7b84:	01182a33          	slt	s4,a6,a7
    7b88:	01a37233          	and	tp,t1,s10
    7b8c:	01182a33          	slt	s4,a6,a7
    7b90:	41d98233          	sub	tp,s3,t4
    7b94:	51fd                	li	gp,-1
    7b96:	9ead                	addw	a3,a3,a1
    7b98:	9ead                	addw	a3,a3,a1
    7b9a:	e0a1059b          	addiw	a1,sp,-502
    7b9e:	8ef1                	and	a3,a3,a2
    7ba0:	0001                	nop
    7ba2:	0a04                	addi	s1,sp,272
    7ba4:	0001                	nop
    7ba6:	961a                	add	a2,a2,t1
    7ba8:	8439                	srai	s0,s0,0xe
    7baa:	016a92bb          	sllw	t0,s5,s6
    7bae:	02817933          	remu	s2,sp,s0
    7bb2:	9abbcc93          	xori	s9,s7,-1621
    7bb6:	88d2                	mv	a7,s4
    7bb8:	02817933          	remu	s2,sp,s0
    7bbc:	9c8d                	subw	s1,s1,a1
    7bbe:	9abbcc93          	xori	s9,s7,-1621
    7bc2:	54f6a993          	slti	s3,a3,1359
    7bc6:	0001                	nop
    7bc8:	13ad0213          	addi	tp,s10,314
    7bcc:	02e189bb          	mulw	s3,gp,a4
    7bd0:	0398d53b          	divuw	a0,a7,s9
    7bd4:	717d                	addi	sp,sp,-16
    7bd6:	01182a33          	slt	s4,a6,a7
    7bda:	037f9333          	mulh	t1,t6,s7
    7bde:	02e964b3          	rem	s1,s2,a4
    7be2:	41d98233          	sub	tp,s3,t4
    7be6:	987d                	andi	s0,s0,-1
    7be8:	029d29b3          	mulhsu	s3,s10,s1
    7bec:	961a                	add	a2,a2,t1
    7bee:	0001                	nop
    7bf0:	01a3ba33          	sltu	s4,t2,s10
    7bf4:	02c78bb3          	mul	s7,a5,a2
    7bf8:	0398d53b          	divuw	a0,a7,s9
    7bfc:	00f164b3          	or	s1,sp,a5
    7c00:	01a3ba33          	sltu	s4,t2,s10
    7c04:	039f7a3b          	remuw	s4,t5,s9
    7c08:	0398d53b          	divuw	a0,a7,s9
    7c0c:	961a                	add	a2,a2,t1
    7c0e:	016a92bb          	sllw	t0,s5,s6
    7c12:	e9c89317          	auipc	t1,0xe9c89
    7c16:	090e                	slli	s2,s2,0x3
    7c18:	02c78bb3          	mul	s7,a5,a2
    7c1c:	40dad233          	sra	tp,s5,a3
    7c20:	02f24d3b          	divw	s10,tp,a5
    7c24:	03e0c033          	div	zero,ra,t5
    7c28:	033fd793          	srli	a5,t6,0x33
    7c2c:	51fd                	li	gp,-1
    7c2e:	5d328737          	lui	a4,0x5d328
    7c32:	00f31f9b          	slliw	t6,t1,0xf
    7c36:	42686493          	ori	s1,a6,1062
    7c3a:	039f7a3b          	remuw	s4,t5,s9
    7c3e:	037f9333          	mulh	t1,t6,s7
    7c42:	5d328737          	lui	a4,0x5d328
    7c46:	717d                	addi	sp,sp,-16
    7c48:	02e8b633          	mulhu	a2,a7,a4
    7c4c:	8ec9                	or	a3,a3,a0
    7c4e:	38057713          	andi	a4,a0,896
    7c52:	02e8b633          	mulhu	a2,a7,a4
    7c56:	02dadfb3          	divu	t6,s5,a3
    7c5a:	01a37233          	and	tp,t1,s10
    7c5e:	8439                	srai	s0,s0,0xe
    7c60:	8ef1                	and	a3,a3,a2
    7c62:	090e                	slli	s2,s2,0x3
    7c64:	e0a1059b          	addiw	a1,sp,-502
    7c68:	02f24d3b          	divw	s10,tp,a5
    7c6c:	090e                	slli	s2,s2,0x3
    7c6e:	961a                	add	a2,a2,t1
    7c70:	5d328737          	lui	a4,0x5d328
    7c74:	317d                	addiw	sp,sp,-1
    7c76:	037f9333          	mulh	t1,t6,s7
    7c7a:	9c8d                	subw	s1,s1,a1
    7c7c:	00f164b3          	or	s1,sp,a5
    7c80:	02dadfb3          	divu	t6,s5,a3
    7c84:	41c7043b          	subw	s0,a4,t3
    7c88:	016a92bb          	sllw	t0,s5,s6
    7c8c:	0001                	nop
    7c8e:	1f7d                	addi	t5,t5,-1
    7c90:	02e964b3          	rem	s1,s2,a4
    7c94:	029d29b3          	mulhsu	s3,s10,s1
    7c98:	090e                	slli	s2,s2,0x3
    7c9a:	0001                	nop
    7c9c:	9c8d                	subw	s1,s1,a1
    7c9e:	037f9333          	mulh	t1,t6,s7
    7ca2:	02817933          	remu	s2,sp,s0
    7ca6:	8d3d                	xor	a0,a0,a5
    7ca8:	9c8d                	subw	s1,s1,a1
    7caa:	0001                	nop
    7cac:	41c7043b          	subw	s0,a4,t3
    7cb0:	808d                	srli	s1,s1,0x3
    7cb2:	004e5ab3          	srl	s5,t3,tp
    7cb6:	8d01                	sub	a0,a0,s0
    7cb8:	0a04                	addi	s1,sp,272
    7cba:	033fd793          	srli	a5,t6,0x33
    7cbe:	8ec9                	or	a3,a3,a0
    7cc0:	6eed                	lui	t4,0x1b
    7cc2:	037f9333          	mulh	t1,t6,s7
    7cc6:	02c78bb3          	mul	s7,a5,a2
    7cca:	03509613          	slli	a2,ra,0x35
    7cce:	00f48133          	add	sp,s1,a5
    7cd2:	090e                	slli	s2,s2,0x3
    7cd4:	88d2                	mv	a7,s4
    7cd6:	88d2                	mv	a7,s4
    7cd8:	4048dcbb          	sraw	s9,a7,tp
    7cdc:	1f7d                	addi	t5,t5,-1
    7cde:	02e8b633          	mulhu	a2,a7,a4
    7ce2:	03509613          	slli	a2,ra,0x35
    7ce6:	e9c89317          	auipc	t1,0xe9c89
    7cea:	02817933          	remu	s2,sp,s0
    7cee:	8ec9                	or	a3,a3,a0
    7cf0:	9abbcc93          	xori	s9,s7,-1621
    7cf4:	51fd                	li	gp,-1
    7cf6:	8ec9                	or	a3,a3,a0
    7cf8:	5d328737          	lui	a4,0x5d328
    7cfc:	6eed                	lui	t4,0x1b
    7cfe:	029d29b3          	mulhsu	s3,s10,s1
    7d02:	00f164b3          	or	s1,sp,a5
    7d06:	01f099b3          	sll	s3,ra,t6
    7d0a:	004e5ab3          	srl	s5,t3,tp
    7d0e:	02dadfb3          	divu	t6,s5,a3
    7d12:	00121337          	lui	t1,0x121
    7d16:	bb13031b          	addiw	t1,t1,-1103
    7d1a:	0336                	slli	t1,t1,0xd
    7d1c:	67330313          	addi	t1,t1,1651 # 121673 <_end+0x101973>
    7d20:	0332                	slli	t1,t1,0xc
    7d22:	4b930313          	addi	t1,t1,1209
    7d26:	0332                	slli	t1,t1,0xc
    7d28:	0d630313          	addi	t1,t1,214
    7d2c:	5b7d                	li	s6,-1
    7d2e:	fff00f9b          	addiw	t6,zero,-1
    7d32:	1ffe                	slli	t6,t6,0x3f
    7d34:	4901                	li	s2,0
    7d36:	fff0071b          	addiw	a4,zero,-1
    7d3a:	177e                	slli	a4,a4,0x3f
    7d3c:	547d                	li	s0,-1
    7d3e:	fff0039b          	addiw	t2,zero,-1
    7d42:	13fe                	slli	t2,t2,0x3f
    7d44:	fff0079b          	addiw	a5,zero,-1
    7d48:	17fe                	slli	a5,a5,0x3f
    7d4a:	4281                	li	t0,0
    7d4c:	fff0099b          	addiw	s3,zero,-1
    7d50:	19fe                	slli	s3,s3,0x3f
    7d52:	e9c89317          	auipc	t1,0xe9c89
    7d56:	036963bb          	remw	t2,s2,s6
    7d5a:	036963bb          	remw	t2,s2,s6
    7d5e:	e9c89317          	auipc	t1,0xe9c89
    7d62:	0273533b          	divuw	t1,t1,t2
    7d66:	036963bb          	remw	t2,s2,s6
    7d6a:	0329eb33          	rem	s6,s3,s2
    7d6e:	02543733          	mulhu	a4,s0,t0
    7d72:	02e7a9b3          	mulhsu	s3,a5,a4
    7d76:	02e743bb          	divw	t2,a4,a4
    7d7a:	036963bb          	remw	t2,s2,s6
    7d7e:	032372b3          	remu	t0,t1,s2
    7d82:	e9c89317          	auipc	t1,0xe9c89
    7d86:	0329eb33          	rem	s6,s3,s2
    7d8a:	e9c89317          	auipc	t1,0xe9c89
    7d8e:	40890fbb          	subw	t6,s2,s0
    7d92:	0001                	nop
    7d94:	0329eb33          	rem	s6,s3,s2
    7d98:	0329eb33          	rem	s6,s3,s2
    7d9c:	032372b3          	remu	t0,t1,s2
    7da0:	036963bb          	remw	t2,s2,s6
    7da4:	02e78333          	mul	t1,a5,a4
    7da8:	02817933          	remu	s2,sp,s0
    7dac:	00e1d23b          	srlw	tp,gp,a4
    7db0:	039f7a3b          	remuw	s4,t5,s9
    7db4:	13ad0213          	addi	tp,s10,314
    7db8:	8d01                	sub	a0,a0,s0
    7dba:	9ead                	addw	a3,a3,a1
    7dbc:	02e964b3          	rem	s1,s2,a4
    7dc0:	01a37233          	and	tp,t1,s10
    7dc4:	8ec9                	or	a3,a3,a0
    7dc6:	0001                	nop
    7dc8:	0001                	nop
    7dca:	03e0c033          	div	zero,ra,t5
    7dce:	1f7d                	addi	t5,t5,-1
    7dd0:	dfa53c93          	sltiu	s9,a0,-518
    7dd4:	42686493          	ori	s1,a6,1062
    7dd8:	40dad233          	sra	tp,s5,a3
    7ddc:	51fd                	li	gp,-1
    7dde:	9ead                	addw	a3,a3,a1
    7de0:	9ead                	addw	a3,a3,a1
    7de2:	033fd793          	srli	a5,t6,0x33
    7de6:	01a3ba33          	sltu	s4,t2,s10
    7dea:	01182a33          	slt	s4,a6,a7
    7dee:	090e                	slli	s2,s2,0x3
    7df0:	01a3ba33          	sltu	s4,t2,s10
    7df4:	03e0c033          	div	zero,ra,t5
    7df8:	02f24d3b          	divw	s10,tp,a5
    7dfc:	6eed                	lui	t4,0x1b
    7dfe:	090e                	slli	s2,s2,0x3
    7e00:	0001                	nop
    7e02:	029d29b3          	mulhsu	s3,s10,s1
    7e06:	0001                	nop
    7e08:	00f48133          	add	sp,s1,a5
    7e0c:	6eed                	lui	t4,0x1b
    7e0e:	037f9333          	mulh	t1,t6,s7
    7e12:	00f164b3          	or	s1,sp,a5
    7e16:	01a37233          	and	tp,t1,s10
    7e1a:	8439                	srai	s0,s0,0xe
    7e1c:	40675113          	srai	sp,a4,0x6
    7e20:	0a04                	addi	s1,sp,272
    7e22:	e0a1059b          	addiw	a1,sp,-502
    7e26:	037f9333          	mulh	t1,t6,s7
    7e2a:	090e                	slli	s2,s2,0x3
    7e2c:	00f48133          	add	sp,s1,a5
    7e30:	6eed                	lui	t4,0x1b
    7e32:	02f24d3b          	divw	s10,tp,a5
    7e36:	8439                	srai	s0,s0,0xe
    7e38:	01a37233          	and	tp,t1,s10
    7e3c:	40dad233          	sra	tp,s5,a3
    7e40:	40675113          	srai	sp,a4,0x6
    7e44:	4048dcbb          	sraw	s9,a7,tp
    7e48:	54f6a993          	slti	s3,a3,1359
    7e4c:	00f31f9b          	slliw	t6,t1,0xf
    7e50:	40dad233          	sra	tp,s5,a3
    7e54:	03e0c033          	div	zero,ra,t5
    7e58:	987d                	andi	s0,s0,-1
    7e5a:	00f31f9b          	slliw	t6,t1,0xf
    7e5e:	42686493          	ori	s1,a6,1062
    7e62:	6eed                	lui	t4,0x1b
    7e64:	01a37233          	and	tp,t1,s10
    7e68:	039f7a3b          	remuw	s4,t5,s9
    7e6c:	016a92bb          	sllw	t0,s5,s6
    7e70:	02817933          	remu	s2,sp,s0
    7e74:	dfa53c93          	sltiu	s9,a0,-518
    7e78:	41c7043b          	subw	s0,a4,t3
    7e7c:	41d98233          	sub	tp,s3,t4
    7e80:	03e0c033          	div	zero,ra,t5
    7e84:	4048dcbb          	sraw	s9,a7,tp
    7e88:	01f099b3          	sll	s3,ra,t6
    7e8c:	029d29b3          	mulhsu	s3,s10,s1
    7e90:	0313633b          	remw	t1,t1,a7
    7e94:	0313633b          	remw	t1,t1,a7
    7e98:	e9c89317          	auipc	t1,0xe9c89
    7e9c:	0001                	nop
    7e9e:	02f24d3b          	divw	s10,tp,a5
    7ea2:	40675113          	srai	sp,a4,0x6
    7ea6:	8d01                	sub	a0,a0,s0
    7ea8:	01a3ba33          	sltu	s4,t2,s10
    7eac:	40675113          	srai	sp,a4,0x6
    7eb0:	dfa53c93          	sltiu	s9,a0,-518
    7eb4:	9abbcc93          	xori	s9,s7,-1621
    7eb8:	01182a33          	slt	s4,a6,a7
    7ebc:	5d328737          	lui	a4,0x5d328
    7ec0:	961a                	add	a2,a2,t1
    7ec2:	40dad233          	sra	tp,s5,a3
    7ec6:	008643b3          	xor	t2,a2,s0
    7eca:	38057713          	andi	a4,a0,896
    7ece:	00f164b3          	or	s1,sp,a5
    7ed2:	0a04                	addi	s1,sp,272
    7ed4:	13ad0213          	addi	tp,s10,314
    7ed8:	03e0c033          	div	zero,ra,t5
    7edc:	02e964b3          	rem	s1,s2,a4
    7ee0:	8d3d                	xor	a0,a0,a5
    7ee2:	13ad0213          	addi	tp,s10,314
    7ee6:	8ef1                	and	a3,a3,a2
    7ee8:	9ead                	addw	a3,a3,a1
    7eea:	01a37233          	and	tp,t1,s10
    7eee:	41c7043b          	subw	s0,a4,t3
    7ef2:	8ec9                	or	a3,a3,a0
    7ef4:	51fd                	li	gp,-1
    7ef6:	0398d53b          	divuw	a0,a7,s9
    7efa:	5d328737          	lui	a4,0x5d328
    7efe:	0001                	nop
    7f00:	0001                	nop
    7f02:	8d01                	sub	a0,a0,s0
    7f04:	0001                	nop
    7f06:	00fed41b          	srliw	s0,t4,0xf
    7f0a:	961a                	add	a2,a2,t1
    7f0c:	01f099b3          	sll	s3,ra,t6
    7f10:	e9c89317          	auipc	t1,0xe9c89
    7f14:	004e5ab3          	srl	s5,t3,tp
    7f18:	5d328737          	lui	a4,0x5d328
    7f1c:	00f164b3          	or	s1,sp,a5
    7f20:	41c7043b          	subw	s0,a4,t3
    7f24:	51fd                	li	gp,-1
    7f26:	00fed41b          	srliw	s0,t4,0xf
    7f2a:	1f7d                	addi	t5,t5,-1
    7f2c:	029d29b3          	mulhsu	s3,s10,s1
    7f30:	008643b3          	xor	t2,a2,s0
    7f34:	00f48133          	add	sp,s1,a5
    7f38:	004e5ab3          	srl	s5,t3,tp
    7f3c:	8ef1                	and	a3,a3,a2
    7f3e:	02c78bb3          	mul	s7,a5,a2
    7f42:	02e189bb          	mulw	s3,gp,a4
    7f46:	01182a33          	slt	s4,a6,a7
    7f4a:	8439                	srai	s0,s0,0xe
    7f4c:	02e964b3          	rem	s1,s2,a4
    7f50:	00f48133          	add	sp,s1,a5
    7f54:	38057713          	andi	a4,a0,896
    7f58:	039f7a3b          	remuw	s4,t5,s9
    7f5c:	039f7a3b          	remuw	s4,t5,s9
    7f60:	0001                	nop
    7f62:	0001                	nop
    7f64:	01182a33          	slt	s4,a6,a7
    7f68:	02e189bb          	mulw	s3,gp,a4
    7f6c:	016a92bb          	sllw	t0,s5,s6
    7f70:	02e8b633          	mulhu	a2,a7,a4
    7f74:	00f31f9b          	slliw	t6,t1,0xf
    7f78:	9ead                	addw	a3,a3,a1
    7f7a:	02e8b633          	mulhu	a2,a7,a4
    7f7e:	02e189bb          	mulw	s3,gp,a4
    7f82:	02dadfb3          	divu	t6,s5,a3
    7f86:	54f6a993          	slti	s3,a3,1359
    7f8a:	42686493          	ori	s1,a6,1062
    7f8e:	01a37233          	and	tp,t1,s10
    7f92:	54f6a993          	slti	s3,a3,1359
    7f96:	987d                	andi	s0,s0,-1
    7f98:	029d29b3          	mulhsu	s3,s10,s1
    7f9c:	41d98233          	sub	tp,s3,t4
    7fa0:	008643b3          	xor	t2,a2,s0
    7fa4:	00f31f9b          	slliw	t6,t1,0xf
    7fa8:	00f48133          	add	sp,s1,a5
    7fac:	4048dcbb          	sraw	s9,a7,tp
    7fb0:	987d                	andi	s0,s0,-1
    7fb2:	40dad233          	sra	tp,s5,a3
    7fb6:	00f31f9b          	slliw	t6,t1,0xf
    7fba:	029d29b3          	mulhsu	s3,s10,s1
    7fbe:	00fed41b          	srliw	s0,t4,0xf
    7fc2:	41c7043b          	subw	s0,a4,t3
    7fc6:	88d2                	mv	a7,s4
    7fc8:	01f099b3          	sll	s3,ra,t6
    7fcc:	02c78bb3          	mul	s7,a5,a2
    7fd0:	01a37233          	and	tp,t1,s10
    7fd4:	03e0c033          	div	zero,ra,t5
    7fd8:	e0a1059b          	addiw	a1,sp,-502
    7fdc:	961a                	add	a2,a2,t1
    7fde:	8439                	srai	s0,s0,0xe
    7fe0:	00fed41b          	srliw	s0,t4,0xf
    7fe4:	40675113          	srai	sp,a4,0x6
    7fe8:	e9c89317          	auipc	t1,0xe9c89
    7fec:	033fd793          	srli	a5,t6,0x33
    7ff0:	090e                	slli	s2,s2,0x3
    7ff2:	0313633b          	remw	t1,t1,a7
    7ff6:	41c7043b          	subw	s0,a4,t3
    7ffa:	e9c89317          	auipc	t1,0xe9c89
    7ffe:	42686493          	ori	s1,a6,1062
    8002:	02f24d3b          	divw	s10,tp,a5
    8006:	8439                	srai	s0,s0,0xe
    8008:	961a                	add	a2,a2,t1
    800a:	01320b3b          	addw	s6,tp,s3
    800e:	42686493          	ori	s1,a6,1062
    8012:	0001                	nop
    8014:	5d328737          	lui	a4,0x5d328
    8018:	03509613          	slli	a2,ra,0x35
    801c:	e0a1059b          	addiw	a1,sp,-502
    8020:	e9c89317          	auipc	t1,0xe9c89
    8024:	00f48133          	add	sp,s1,a5
    8028:	02817933          	remu	s2,sp,s0
    802c:	317d                	addiw	sp,sp,-1
    802e:	004e5ab3          	srl	s5,t3,tp
    8032:	01182a33          	slt	s4,a6,a7
    8036:	01f099b3          	sll	s3,ra,t6
    803a:	808d                	srli	s1,s1,0x3
    803c:	40dad233          	sra	tp,s5,a3
    8040:	01320b3b          	addw	s6,tp,s3
    8044:	01a3ba33          	sltu	s4,t2,s10
    8048:	02dadfb3          	divu	t6,s5,a3
    804c:	0313633b          	remw	t1,t1,a7
    8050:	717d                	addi	sp,sp,-16
    8052:	037f9333          	mulh	t1,t6,s7
    8056:	5d328737          	lui	a4,0x5d328
    805a:	8ec9                	or	a3,a3,a0
    805c:	01320b3b          	addw	s6,tp,s3
    8060:	029d29b3          	mulhsu	s3,s10,s1
    8064:	38057713          	andi	a4,a0,896
    8068:	01a37233          	and	tp,t1,s10
    806c:	8d01                	sub	a0,a0,s0
    806e:	02c78bb3          	mul	s7,a5,a2
    8072:	41d98233          	sub	tp,s3,t4
    8076:	0398d53b          	divuw	a0,a7,s9
    807a:	8d01                	sub	a0,a0,s0
    807c:	38057713          	andi	a4,a0,896
    8080:	0001                	nop
    8082:	01a3ba33          	sltu	s4,t2,s10
    8086:	00f164b3          	or	s1,sp,a5
    808a:	01320b3b          	addw	s6,tp,s3
    808e:	9ead                	addw	a3,a3,a1
    8090:	8439                	srai	s0,s0,0xe
    8092:	01320b3b          	addw	s6,tp,s3
    8096:	717d                	addi	sp,sp,-16
    8098:	6eed                	lui	t4,0x1b
    809a:	5d328737          	lui	a4,0x5d328
    809e:	00f48133          	add	sp,s1,a5
    80a2:	e0a1059b          	addiw	a1,sp,-502
    80a6:	01a37233          	and	tp,t1,s10
    80aa:	54f6a993          	slti	s3,a3,1359
    80ae:	8439                	srai	s0,s0,0xe
    80b0:	808d                	srli	s1,s1,0x3
    80b2:	033fd793          	srli	a5,t6,0x33
    80b6:	e0a1059b          	addiw	a1,sp,-502
    80ba:	029d29b3          	mulhsu	s3,s10,s1
    80be:	01182a33          	slt	s4,a6,a7
    80c2:	6eed                	lui	t4,0x1b
    80c4:	4048dcbb          	sraw	s9,a7,tp
    80c8:	dfa53c93          	sltiu	s9,a0,-518
    80cc:	8d3d                	xor	a0,a0,a5
    80ce:	033fd793          	srli	a5,t6,0x33
    80d2:	02e964b3          	rem	s1,s2,a4
    80d6:	9abbcc93          	xori	s9,s7,-1621
    80da:	01320b3b          	addw	s6,tp,s3
    80de:	dfa53c93          	sltiu	s9,a0,-518
    80e2:	54f6a993          	slti	s3,a3,1359
    80e6:	02dadfb3          	divu	t6,s5,a3
    80ea:	e9c89317          	auipc	t1,0xe9c89
    80ee:	8d01                	sub	a0,a0,s0
    80f0:	54f6a993          	slti	s3,a3,1359
    80f4:	0a04                	addi	s1,sp,272
    80f6:	40675113          	srai	sp,a4,0x6
    80fa:	02f24d3b          	divw	s10,tp,a5
    80fe:	008643b3          	xor	t2,a2,s0
    8102:	0313633b          	remw	t1,t1,a7
    8106:	42686493          	ori	s1,a6,1062
    810a:	0001                	nop
    810c:	0001                	nop
    810e:	00fed41b          	srliw	s0,t4,0xf
    8112:	13ad0213          	addi	tp,s10,314
    8116:	88d2                	mv	a7,s4
    8118:	03509613          	slli	a2,ra,0x35
    811c:	02f24d3b          	divw	s10,tp,a5
    8120:	016a92bb          	sllw	t0,s5,s6
    8124:	01182a33          	slt	s4,a6,a7
    8128:	54f6a993          	slti	s3,a3,1359
    812c:	03509613          	slli	a2,ra,0x35
    8130:	40865a1b          	sraiw	s4,a2,0x8
    8134:	00f164b3          	or	s1,sp,a5
    8138:	4048dcbb          	sraw	s9,a7,tp
    813c:	987d                	andi	s0,s0,-1
    813e:	01182a33          	slt	s4,a6,a7
    8142:	317d                	addiw	sp,sp,-1
    8144:	029d29b3          	mulhsu	s3,s10,s1
    8148:	5d328737          	lui	a4,0x5d328
    814c:	41c7043b          	subw	s0,a4,t3
    8150:	00f31f9b          	slliw	t6,t1,0xf
    8154:	6eed                	lui	t4,0x1b
    8156:	0a04                	addi	s1,sp,272
    8158:	03509613          	slli	a2,ra,0x35
    815c:	00f48133          	add	sp,s1,a5
    8160:	41d98233          	sub	tp,s3,t4
    8164:	004e5ab3          	srl	s5,t3,tp
    8168:	51fd                	li	gp,-1
    816a:	02c78bb3          	mul	s7,a5,a2
    816e:	e9c89317          	auipc	t1,0xe9c89
    8172:	0001                	nop
    8174:	01f099b3          	sll	s3,ra,t6
    8178:	317d                	addiw	sp,sp,-1
    817a:	6eed                	lui	t4,0x1b
    817c:	40dad233          	sra	tp,s5,a3
    8180:	037f9333          	mulh	t1,t6,s7
    8184:	13ad0213          	addi	tp,s10,314
    8188:	03e0c033          	div	zero,ra,t5
    818c:	dfa53c93          	sltiu	s9,a0,-518
    8190:	01182a33          	slt	s4,a6,a7
    8194:	8ec9                	or	a3,a3,a0
    8196:	42686493          	ori	s1,a6,1062
    819a:	8439                	srai	s0,s0,0xe
    819c:	8ec9                	or	a3,a3,a0
    819e:	0398d53b          	divuw	a0,a7,s9
    81a2:	01f099b3          	sll	s3,ra,t6
    81a6:	8ec9                	or	a3,a3,a0
    81a8:	961a                	add	a2,a2,t1
    81aa:	0a04                	addi	s1,sp,272
    81ac:	38057713          	andi	a4,a0,896
    81b0:	6eed                	lui	t4,0x1b
    81b2:	0313633b          	remw	t1,t1,a7
    81b6:	0001                	nop
    81b8:	0001                	nop
    81ba:	9abbcc93          	xori	s9,s7,-1621
    81be:	808d                	srli	s1,s1,0x3
    81c0:	8439                	srai	s0,s0,0xe
    81c2:	8439                	srai	s0,s0,0xe
    81c4:	8d3d                	xor	a0,a0,a5
    81c6:	03e0c033          	div	zero,ra,t5
    81ca:	8ec9                	or	a3,a3,a0
    81cc:	51fd                	li	gp,-1
    81ce:	01a3ba33          	sltu	s4,t2,s10
    81d2:	e0a1059b          	addiw	a1,sp,-502
    81d6:	40865a1b          	sraiw	s4,a2,0x8
    81da:	016a92bb          	sllw	t0,s5,s6
    81de:	008643b3          	xor	t2,a2,s0
    81e2:	8ec9                	or	a3,a3,a0
    81e4:	00f48133          	add	sp,s1,a5
    81e8:	e9c89317          	auipc	t1,0xe9c89
    81ec:	00f48133          	add	sp,s1,a5
    81f0:	42686493          	ori	s1,a6,1062
    81f4:	02f24d3b          	divw	s10,tp,a5
    81f8:	00f48133          	add	sp,s1,a5
    81fc:	0a04                	addi	s1,sp,272
    81fe:	02e189bb          	mulw	s3,gp,a4
    8202:	808d                	srli	s1,s1,0x3
    8204:	8ef1                	and	a3,a3,a2
    8206:	0001                	nop
    8208:	8439                	srai	s0,s0,0xe
    820a:	808d                	srli	s1,s1,0x3
    820c:	8d3d                	xor	a0,a0,a5
    820e:	717d                	addi	sp,sp,-16
    8210:	0398d53b          	divuw	a0,a7,s9
    8214:	e9c89317          	auipc	t1,0xe9c89
    8218:	03e0c033          	div	zero,ra,t5
    821c:	6eed                	lui	t4,0x1b
    821e:	dfa53c93          	sltiu	s9,a0,-518
    8222:	40675113          	srai	sp,a4,0x6
    8226:	9abbcc93          	xori	s9,s7,-1621
    822a:	317d                	addiw	sp,sp,-1
    822c:	0313633b          	remw	t1,t1,a7
    8230:	987d                	andi	s0,s0,-1
    8232:	033fd793          	srli	a5,t6,0x33
    8236:	0001                	nop
    8238:	037f9333          	mulh	t1,t6,s7
    823c:	1f7d                	addi	t5,t5,-1
    823e:	02c78bb3          	mul	s7,a5,a2
    8242:	01182a33          	slt	s4,a6,a7
    8246:	00f31f9b          	slliw	t6,t1,0xf
    824a:	0001                	nop
    824c:	0001                	nop
    824e:	40dad233          	sra	tp,s5,a3
    8252:	0001                	nop
    8254:	e9c89317          	auipc	t1,0xe9c89
    8258:	0398d53b          	divuw	a0,a7,s9
    825c:	0001                	nop
    825e:	8ec9                	or	a3,a3,a0
    8260:	41c7043b          	subw	s0,a4,t3
    8264:	8ec9                	or	a3,a3,a0
    8266:	8d3d                	xor	a0,a0,a5
    8268:	51fd                	li	gp,-1
    826a:	808d                	srli	s1,s1,0x3
    826c:	9c8d                	subw	s1,s1,a1
    826e:	008643b3          	xor	t2,a2,s0
    8272:	6eed                	lui	t4,0x1b
    8274:	e0a1059b          	addiw	a1,sp,-502
    8278:	961a                	add	a2,a2,t1
    827a:	42686493          	ori	s1,a6,1062
    827e:	03e0c033          	div	zero,ra,t5
    8282:	02e964b3          	rem	s1,s2,a4
    8286:	016a92bb          	sllw	t0,s5,s6
    828a:	4048dcbb          	sraw	s9,a7,tp
    828e:	004e5ab3          	srl	s5,t3,tp
    8292:	00f164b3          	or	s1,sp,a5
    8296:	51fd                	li	gp,-1
    8298:	9ead                	addw	a3,a3,a1
    829a:	6eed                	lui	t4,0x1b
    829c:	0001                	nop
    829e:	037f9333          	mulh	t1,t6,s7
    82a2:	40865a1b          	sraiw	s4,a2,0x8
    82a6:	03509613          	slli	a2,ra,0x35
    82aa:	01a3ba33          	sltu	s4,t2,s10
    82ae:	01a37233          	and	tp,t1,s10
    82b2:	01a3ba33          	sltu	s4,t2,s10
    82b6:	01182a33          	slt	s4,a6,a7
    82ba:	987d                	andi	s0,s0,-1
    82bc:	e0a1059b          	addiw	a1,sp,-502
    82c0:	02e8b633          	mulhu	a2,a7,a4
    82c4:	029d29b3          	mulhsu	s3,s10,s1
    82c8:	13ad0213          	addi	tp,s10,314
    82cc:	016a92bb          	sllw	t0,s5,s6
    82d0:	004e5ab3          	srl	s5,t3,tp
    82d4:	004e5ab3          	srl	s5,t3,tp
    82d8:	808d                	srli	s1,s1,0x3
    82da:	02e189bb          	mulw	s3,gp,a4
    82de:	01a37233          	and	tp,t1,s10
    82e2:	00f31f9b          	slliw	t6,t1,0xf
    82e6:	0001                	nop
    82e8:	9ead                	addw	a3,a3,a1
    82ea:	01a37233          	and	tp,t1,s10
    82ee:	8d01                	sub	a0,a0,s0
    82f0:	01182a33          	slt	s4,a6,a7
    82f4:	02e964b3          	rem	s1,s2,a4
    82f8:	00f164b3          	or	s1,sp,a5
    82fc:	8439                	srai	s0,s0,0xe
    82fe:	02e964b3          	rem	s1,s2,a4
    8302:	039f7a3b          	remuw	s4,t5,s9
    8306:	01320b3b          	addw	s6,tp,s3
    830a:	e0a1059b          	addiw	a1,sp,-502
    830e:	13ad0213          	addi	tp,s10,314
    8312:	0001                	nop
    8314:	54f6a993          	slti	s3,a3,1359
    8318:	9abbcc93          	xori	s9,s7,-1621
    831c:	dfa53c93          	sltiu	s9,a0,-518
    8320:	01a37233          	and	tp,t1,s10
    8324:	51fd                	li	gp,-1
    8326:	41c7043b          	subw	s0,a4,t3
    832a:	03509613          	slli	a2,ra,0x35
    832e:	41c7043b          	subw	s0,a4,t3
    8332:	40675113          	srai	sp,a4,0x6
    8336:	01182a33          	slt	s4,a6,a7
    833a:	8d3d                	xor	a0,a0,a5
    833c:	9ead                	addw	a3,a3,a1
    833e:	987d                	andi	s0,s0,-1
    8340:	88d2                	mv	a7,s4
    8342:	00f164b3          	or	s1,sp,a5
    8346:	808d                	srli	s1,s1,0x3
    8348:	037f9333          	mulh	t1,t6,s7
    834c:	01182a33          	slt	s4,a6,a7
    8350:	51fd                	li	gp,-1
    8352:	0001                	nop
    8354:	02e189bb          	mulw	s3,gp,a4
    8358:	00f164b3          	or	s1,sp,a5
    835c:	0001                	nop
    835e:	9c8d                	subw	s1,s1,a1
    8360:	03e0c033          	div	zero,ra,t5
    8364:	01f099b3          	sll	s3,ra,t6
    8368:	e9c89317          	auipc	t1,0xe9c89
    836c:	00f164b3          	or	s1,sp,a5
    8370:	9abbcc93          	xori	s9,s7,-1621
    8374:	016a92bb          	sllw	t0,s5,s6
    8378:	317d                	addiw	sp,sp,-1
    837a:	037f9333          	mulh	t1,t6,s7
    837e:	033fd793          	srli	a5,t6,0x33
    8382:	01320b3b          	addw	s6,tp,s3
    8386:	38057713          	andi	a4,a0,896
    838a:	38057713          	andi	a4,a0,896
    838e:	1f7d                	addi	t5,t5,-1
    8390:	6eed                	lui	t4,0x1b
    8392:	090e                	slli	s2,s2,0x3
    8394:	0001                	nop
    8396:	02e8b633          	mulhu	a2,a7,a4
    839a:	00f164b3          	or	s1,sp,a5
    839e:	40dad233          	sra	tp,s5,a3
    83a2:	00f164b3          	or	s1,sp,a5
    83a6:	54f6a993          	slti	s3,a3,1359
    83aa:	41c7043b          	subw	s0,a4,t3
    83ae:	9ead                	addw	a3,a3,a1
    83b0:	01f099b3          	sll	s3,ra,t6
    83b4:	8ec9                	or	a3,a3,a0
    83b6:	03e0c033          	div	zero,ra,t5
    83ba:	8d01                	sub	a0,a0,s0
    83bc:	0001                	nop
    83be:	090e                	slli	s2,s2,0x3
    83c0:	00fed41b          	srliw	s0,t4,0xf
    83c4:	40dad233          	sra	tp,s5,a3
    83c8:	090e                	slli	s2,s2,0x3
    83ca:	02e964b3          	rem	s1,s2,a4
    83ce:	317d                	addiw	sp,sp,-1
    83d0:	dfa53c93          	sltiu	s9,a0,-518
    83d4:	9c8d                	subw	s1,s1,a1
    83d6:	40dad233          	sra	tp,s5,a3
    83da:	0a04                	addi	s1,sp,272
    83dc:	9ead                	addw	a3,a3,a1
    83de:	0a04                	addi	s1,sp,272
    83e0:	01a3ba33          	sltu	s4,t2,s10
    83e4:	02dadfb3          	divu	t6,s5,a3
    83e8:	8439                	srai	s0,s0,0xe
    83ea:	01a37233          	and	tp,t1,s10
    83ee:	e0a1059b          	addiw	a1,sp,-502
    83f2:	029d29b3          	mulhsu	s3,s10,s1
    83f6:	808d                	srli	s1,s1,0x3
    83f8:	004e5ab3          	srl	s5,t3,tp
    83fc:	03509613          	slli	a2,ra,0x35
    8400:	00f31f9b          	slliw	t6,t1,0xf
    8404:	02e189bb          	mulw	s3,gp,a4
    8408:	01320b3b          	addw	s6,tp,s3
    840c:	8d3d                	xor	a0,a0,a5
    840e:	01a37233          	and	tp,t1,s10
    8412:	01320b3b          	addw	s6,tp,s3
    8416:	4048dcbb          	sraw	s9,a7,tp
    841a:	808d                	srli	s1,s1,0x3
    841c:	0398d53b          	divuw	a0,a7,s9
    8420:	01320b3b          	addw	s6,tp,s3
    8424:	008643b3          	xor	t2,a2,s0
    8428:	0001                	nop
    842a:	01320b3b          	addw	s6,tp,s3
    842e:	987d                	andi	s0,s0,-1
    8430:	03509613          	slli	a2,ra,0x35
    8434:	0a04                	addi	s1,sp,272
    8436:	037f9333          	mulh	t1,t6,s7
    843a:	00e1d23b          	srlw	tp,gp,a4
    843e:	41d98233          	sub	tp,s3,t4
    8442:	40dad233          	sra	tp,s5,a3
    8446:	03509613          	slli	a2,ra,0x35
    844a:	01a3ba33          	sltu	s4,t2,s10
    844e:	40865a1b          	sraiw	s4,a2,0x8
    8452:	0398d53b          	divuw	a0,a7,s9
    8456:	039f7a3b          	remuw	s4,t5,s9
    845a:	9ead                	addw	a3,a3,a1
    845c:	40865a1b          	sraiw	s4,a2,0x8
    8460:	40dad233          	sra	tp,s5,a3
    8464:	008643b3          	xor	t2,a2,s0
    8468:	0313633b          	remw	t1,t1,a7
    846c:	9abbcc93          	xori	s9,s7,-1621
    8470:	0a04                	addi	s1,sp,272
    8472:	987d                	andi	s0,s0,-1
    8474:	6eed                	lui	t4,0x1b
    8476:	03509613          	slli	a2,ra,0x35
    847a:	037f9333          	mulh	t1,t6,s7
    847e:	961a                	add	a2,a2,t1
    8480:	01a37233          	and	tp,t1,s10
    8484:	961a                	add	a2,a2,t1
    8486:	38057713          	andi	a4,a0,896
    848a:	03e0c033          	div	zero,ra,t5
    848e:	8ec9                	or	a3,a3,a0
    8490:	e9c89317          	auipc	t1,0xe9c89
    8494:	317d                	addiw	sp,sp,-1
    8496:	0001                	nop
    8498:	029d29b3          	mulhsu	s3,s10,s1
    849c:	808d                	srli	s1,s1,0x3
    849e:	02e189bb          	mulw	s3,gp,a4
    84a2:	004e5ab3          	srl	s5,t3,tp
    84a6:	0398d53b          	divuw	a0,a7,s9
    84aa:	88d2                	mv	a7,s4
    84ac:	03e0c033          	div	zero,ra,t5
    84b0:	039f7a3b          	remuw	s4,t5,s9
    84b4:	40675113          	srai	sp,a4,0x6
    84b8:	40865a1b          	sraiw	s4,a2,0x8
    84bc:	40865a1b          	sraiw	s4,a2,0x8
    84c0:	01a3ba33          	sltu	s4,t2,s10
    84c4:	40dad233          	sra	tp,s5,a3
    84c8:	317d                	addiw	sp,sp,-1
    84ca:	01a37233          	and	tp,t1,s10
    84ce:	00e1d23b          	srlw	tp,gp,a4
    84d2:	9abbcc93          	xori	s9,s7,-1621
    84d6:	01182a33          	slt	s4,a6,a7
    84da:	961a                	add	a2,a2,t1
    84dc:	41d98233          	sub	tp,s3,t4
    84e0:	e9c89317          	auipc	t1,0xe9c89
    84e4:	02c78bb3          	mul	s7,a5,a2
    84e8:	8ef1                	and	a3,a3,a2
    84ea:	4048dcbb          	sraw	s9,a7,tp
    84ee:	0001                	nop
    84f0:	0001                	nop
    84f2:	02e8b633          	mulhu	a2,a7,a4
    84f6:	8439                	srai	s0,s0,0xe
    84f8:	029d29b3          	mulhsu	s3,s10,s1
    84fc:	01f099b3          	sll	s3,ra,t6
    8500:	0001                	nop
    8502:	039f7a3b          	remuw	s4,t5,s9
    8506:	40865a1b          	sraiw	s4,a2,0x8
    850a:	8ec9                	or	a3,a3,a0
    850c:	317d                	addiw	sp,sp,-1
    850e:	01182a33          	slt	s4,a6,a7
    8512:	01320b3b          	addw	s6,tp,s3
    8516:	01a3ba33          	sltu	s4,t2,s10
    851a:	6eed                	lui	t4,0x1b
    851c:	e9c89317          	auipc	t1,0xe9c89
    8520:	e0a1059b          	addiw	a1,sp,-502
    8524:	0001                	nop
    8526:	e0a1059b          	addiw	a1,sp,-502
    852a:	54f6a993          	slti	s3,a3,1359
    852e:	38057713          	andi	a4,a0,896
    8532:	0001                	nop
    8534:	02f24d3b          	divw	s10,tp,a5
    8538:	0313633b          	remw	t1,t1,a7
    853c:	961a                	add	a2,a2,t1
    853e:	0001                	nop
    8540:	01a3ba33          	sltu	s4,t2,s10
    8544:	0398d53b          	divuw	a0,a7,s9
    8548:	54f6a993          	slti	s3,a3,1359
    854c:	6eed                	lui	t4,0x1b
    854e:	e9c89317          	auipc	t1,0xe9c89
    8552:	02817933          	remu	s2,sp,s0
    8556:	e0a1059b          	addiw	a1,sp,-502
    855a:	029d29b3          	mulhsu	s3,s10,s1
    855e:	e0a1059b          	addiw	a1,sp,-502
    8562:	004e5ab3          	srl	s5,t3,tp
    8566:	039f7a3b          	remuw	s4,t5,s9
    856a:	03e0c033          	div	zero,ra,t5
    856e:	029d29b3          	mulhsu	s3,s10,s1
    8572:	00f48133          	add	sp,s1,a5
    8576:	38057713          	andi	a4,a0,896
    857a:	41d98233          	sub	tp,s3,t4
    857e:	dfa53c93          	sltiu	s9,a0,-518
    8582:	090e                	slli	s2,s2,0x3
    8584:	01a3ba33          	sltu	s4,t2,s10
    8588:	037f9333          	mulh	t1,t6,s7
    858c:	02f24d3b          	divw	s10,tp,a5
    8590:	037f9333          	mulh	t1,t6,s7
    8594:	00fed41b          	srliw	s0,t4,0xf
    8598:	01182a33          	slt	s4,a6,a7
    859c:	02c78bb3          	mul	s7,a5,a2
    85a0:	0313633b          	remw	t1,t1,a7
    85a4:	41c7043b          	subw	s0,a4,t3
    85a8:	02dadfb3          	divu	t6,s5,a3
    85ac:	41c7043b          	subw	s0,a4,t3
    85b0:	01182a33          	slt	s4,a6,a7
    85b4:	38057713          	andi	a4,a0,896
    85b8:	00f48133          	add	sp,s1,a5
    85bc:	40dad233          	sra	tp,s5,a3
    85c0:	41c7043b          	subw	s0,a4,t3
    85c4:	41d98233          	sub	tp,s3,t4
    85c8:	40dad233          	sra	tp,s5,a3
    85cc:	01182a33          	slt	s4,a6,a7
    85d0:	51fd                	li	gp,-1
    85d2:	40865a1b          	sraiw	s4,a2,0x8
    85d6:	0001                	nop
    85d8:	8d3d                	xor	a0,a0,a5
    85da:	00fed41b          	srliw	s0,t4,0xf
    85de:	033fd793          	srli	a5,t6,0x33
    85e2:	02e8b633          	mulhu	a2,a7,a4
    85e6:	41d98233          	sub	tp,s3,t4
    85ea:	9c8d                	subw	s1,s1,a1
    85ec:	01f099b3          	sll	s3,ra,t6
    85f0:	0398d53b          	divuw	a0,a7,s9
    85f4:	38057713          	andi	a4,a0,896
    85f8:	8ec9                	or	a3,a3,a0
    85fa:	02e964b3          	rem	s1,s2,a4
    85fe:	987d                	andi	s0,s0,-1
    8600:	0398d53b          	divuw	a0,a7,s9
    8604:	8d3d                	xor	a0,a0,a5
    8606:	03e0c033          	div	zero,ra,t5
    860a:	01f099b3          	sll	s3,ra,t6
    860e:	00e1d23b          	srlw	tp,gp,a4
    8612:	42686493          	ori	s1,a6,1062
    8616:	01182a33          	slt	s4,a6,a7
    861a:	0001                	nop
    861c:	0001                	nop
    861e:	961a                	add	a2,a2,t1
    8620:	38057713          	andi	a4,a0,896
    8624:	8d01                	sub	a0,a0,s0
    8626:	1f7d                	addi	t5,t5,-1
    8628:	8d01                	sub	a0,a0,s0
    862a:	01182a33          	slt	s4,a6,a7
    862e:	9ead                	addw	a3,a3,a1
    8630:	961a                	add	a2,a2,t1
    8632:	38057713          	andi	a4,a0,896
    8636:	9c8d                	subw	s1,s1,a1
    8638:	004e5ab3          	srl	s5,t3,tp
    863c:	00f31f9b          	slliw	t6,t1,0xf
    8640:	02817933          	remu	s2,sp,s0
    8644:	0313633b          	remw	t1,t1,a7
    8648:	40865a1b          	sraiw	s4,a2,0x8
    864c:	00e1d23b          	srlw	tp,gp,a4
    8650:	03509613          	slli	a2,ra,0x35
    8654:	02817933          	remu	s2,sp,s0
    8658:	0a04                	addi	s1,sp,272
    865a:	8ec9                	or	a3,a3,a0
    865c:	808d                	srli	s1,s1,0x3
    865e:	0398d53b          	divuw	a0,a7,s9
    8662:	317d                	addiw	sp,sp,-1
    8664:	0001                	nop
    8666:	40675113          	srai	sp,a4,0x6
    866a:	03509613          	slli	a2,ra,0x35
    866e:	40dad233          	sra	tp,s5,a3
    8672:	717d                	addi	sp,sp,-16
    8674:	dfa53c93          	sltiu	s9,a0,-518
    8678:	8d01                	sub	a0,a0,s0
    867a:	dfa53c93          	sltiu	s9,a0,-518
    867e:	88d2                	mv	a7,s4
    8680:	9abbcc93          	xori	s9,s7,-1621
    8684:	00f48133          	add	sp,s1,a5
    8688:	033fd793          	srli	a5,t6,0x33
    868c:	4048dcbb          	sraw	s9,a7,tp
    8690:	8d3d                	xor	a0,a0,a5
    8692:	41c7043b          	subw	s0,a4,t3
    8696:	42686493          	ori	s1,a6,1062
    869a:	01f099b3          	sll	s3,ra,t6
    869e:	4048dcbb          	sraw	s9,a7,tp
    86a2:	01a3ba33          	sltu	s4,t2,s10
    86a6:	02e8b633          	mulhu	a2,a7,a4
    86aa:	9c8d                	subw	s1,s1,a1
    86ac:	8439                	srai	s0,s0,0xe
    86ae:	41c7043b          	subw	s0,a4,t3
    86b2:	9abbcc93          	xori	s9,s7,-1621
    86b6:	e0a1059b          	addiw	a1,sp,-502
    86ba:	8439                	srai	s0,s0,0xe
    86bc:	6eed                	lui	t4,0x1b
    86be:	317d                	addiw	sp,sp,-1
    86c0:	01a37233          	and	tp,t1,s10
    86c4:	00e1d23b          	srlw	tp,gp,a4
    86c8:	42686493          	ori	s1,a6,1062
    86cc:	03509613          	slli	a2,ra,0x35
    86d0:	1f7d                	addi	t5,t5,-1
    86d2:	8d3d                	xor	a0,a0,a5
    86d4:	01320b3b          	addw	s6,tp,s3
    86d8:	808d                	srli	s1,s1,0x3
    86da:	02e8b633          	mulhu	a2,a7,a4
    86de:	00f31f9b          	slliw	t6,t1,0xf
    86e2:	e9c89317          	auipc	t1,0xe9c89
    86e6:	00fed41b          	srliw	s0,t4,0xf
    86ea:	54f6a993          	slti	s3,a3,1359
    86ee:	02e8b633          	mulhu	a2,a7,a4
    86f2:	01a37233          	and	tp,t1,s10
    86f6:	02f24d3b          	divw	s10,tp,a5
    86fa:	fff00c9b          	addiw	s9,zero,-1
    86fe:	1cfe                	slli	s9,s9,0x3f
    8700:	4081                	li	ra,0
    8702:	4401                	li	s0,0
    8704:	4901                	li	s2,0
    8706:	537d                	li	t1,-1
    8708:	05150d37          	lui	s10,0x5150
    870c:	0dfd0d1b          	addiw	s10,s10,223
    8710:	0d32                	slli	s10,s10,0xc
    8712:	563d0d13          	addi	s10,s10,1379 # 5150563 <_end+0x5130863>
    8716:	0d32                	slli	s10,s10,0xc
    8718:	253d0d13          	addi	s10,s10,595
    871c:	0d32                	slli	s10,s10,0xc
    871e:	76fd0d13          	addi	s10,s10,1903
    8722:	fff0029b          	addiw	t0,zero,-1
    8726:	12fe                	slli	t0,t0,0x3f
    8728:	4f81                	li	t6,0
    872a:	4101                	li	sp,0
    872c:	4381                	li	t2,0
    872e:	02628d33          	mul	s10,t0,t1
    8732:	e9c89317          	auipc	t1,0xe9c89
    8736:	026cafb3          	mulhsu	t6,s9,t1
    873a:	022d1d33          	mulh	s10,s10,sp
    873e:	032372b3          	remu	t0,t1,s2
    8742:	13a40113          	addi	sp,s0,314
    8746:	032383bb          	mulw	t2,t2,s2
    874a:	0251533b          	divuw	t1,sp,t0
    874e:	0001                	nop
    8750:	41230d33          	sub	s10,t1,s2
    8754:	e9c89317          	auipc	t1,0xe9c89
    8758:	027470bb          	remuw	ra,s0,t2
    875c:	032372b3          	remu	t0,t1,s2
    8760:	13a40113          	addi	sp,s0,314
    8764:	026d4fbb          	divw	t6,s10,t1
    8768:	0323e133          	rem	sp,t2,s2
    876c:	0001                	nop
    876e:	0001                	nop
    8770:	41230d33          	sub	s10,t1,s2
    8774:	0251533b          	divuw	t1,sp,t0
    8778:	0001                	nop
    877a:	032372b3          	remu	t0,t1,s2
    877e:	e9c89317          	auipc	t1,0xe9c89
    8782:	5d328d37          	lui	s10,0x5d328
    8786:	032383bb          	mulw	t2,t2,s2
    878a:	032383bb          	mulw	t2,t2,s2
    878e:	02814933          	div	s2,sp,s0
    8792:	0001                	nop
    8794:	02e964b3          	rem	s1,s2,a4
    8798:	03e0c033          	div	zero,ra,t5
    879c:	9c8d                	subw	s1,s1,a1
    879e:	037f9333          	mulh	t1,t6,s7
    87a2:	8d01                	sub	a0,a0,s0
    87a4:	008643b3          	xor	t2,a2,s0
    87a8:	0313633b          	remw	t1,t1,a7
    87ac:	38057713          	andi	a4,a0,896
    87b0:	02f24d3b          	divw	s10,tp,a5
    87b4:	039f7a3b          	remuw	s4,t5,s9
    87b8:	008643b3          	xor	t2,a2,s0
    87bc:	02f24d3b          	divw	s10,tp,a5
    87c0:	00f31f9b          	slliw	t6,t1,0xf
    87c4:	02f24d3b          	divw	s10,tp,a5
    87c8:	e9c89317          	auipc	t1,0xe9c89
    87cc:	033fd793          	srli	a5,t6,0x33
    87d0:	0001                	nop
    87d2:	01182a33          	slt	s4,a6,a7
    87d6:	01182a33          	slt	s4,a6,a7
    87da:	008643b3          	xor	t2,a2,s0
    87de:	54f6a993          	slti	s3,a3,1359
    87e2:	51fd                	li	gp,-1
    87e4:	88d2                	mv	a7,s4
    87e6:	0398d53b          	divuw	a0,a7,s9
    87ea:	033fd793          	srli	a5,t6,0x33
    87ee:	037f9333          	mulh	t1,t6,s7
    87f2:	02e8b633          	mulhu	a2,a7,a4
    87f6:	029d29b3          	mulhsu	s3,s10,s1
    87fa:	4048dcbb          	sraw	s9,a7,tp
    87fe:	1f7d                	addi	t5,t5,-1
    8800:	00e1d23b          	srlw	tp,gp,a4
    8804:	016a92bb          	sllw	t0,s5,s6
    8808:	01182a33          	slt	s4,a6,a7
    880c:	00f48133          	add	sp,s1,a5
    8810:	40dad233          	sra	tp,s5,a3
    8814:	0313633b          	remw	t1,t1,a7
    8818:	016a92bb          	sllw	t0,s5,s6
    881c:	987d                	andi	s0,s0,-1
    881e:	8ec9                	or	a3,a3,a0
    8820:	0313633b          	remw	t1,t1,a7
    8824:	8ef1                	and	a3,a3,a2
    8826:	0398d53b          	divuw	a0,a7,s9
    882a:	dfa53c93          	sltiu	s9,a0,-518
    882e:	41d98233          	sub	tp,s3,t4
    8832:	02e964b3          	rem	s1,s2,a4
    8836:	8ef1                	and	a3,a3,a2
    8838:	8ec9                	or	a3,a3,a0
    883a:	51fd                	li	gp,-1
    883c:	987d                	andi	s0,s0,-1
    883e:	9c8d                	subw	s1,s1,a1
    8840:	6eed                	lui	t4,0x1b
    8842:	037f9333          	mulh	t1,t6,s7
    8846:	01182a33          	slt	s4,a6,a7
    884a:	00f48133          	add	sp,s1,a5
    884e:	03509613          	slli	a2,ra,0x35
    8852:	00fed41b          	srliw	s0,t4,0xf
    8856:	4048dcbb          	sraw	s9,a7,tp
    885a:	008643b3          	xor	t2,a2,s0
    885e:	6eed                	lui	t4,0x1b
    8860:	38057713          	andi	a4,a0,896
    8864:	033fd793          	srli	a5,t6,0x33
    8868:	0a04                	addi	s1,sp,272
    886a:	008643b3          	xor	t2,a2,s0
    886e:	808d                	srli	s1,s1,0x3
    8870:	02e189bb          	mulw	s3,gp,a4
    8874:	961a                	add	a2,a2,t1
    8876:	5d328737          	lui	a4,0x5d328
    887a:	03e0c033          	div	zero,ra,t5
    887e:	40865a1b          	sraiw	s4,a2,0x8
    8882:	02f24d3b          	divw	s10,tp,a5
    8886:	38057713          	andi	a4,a0,896
    888a:	0a04                	addi	s1,sp,272
    888c:	0001                	nop
    888e:	13ad0213          	addi	tp,s10,314 # 5d32813a <_end+0x5d30843a>
    8892:	e0a1059b          	addiw	a1,sp,-502
    8896:	02dadfb3          	divu	t6,s5,a3
    889a:	4048dcbb          	sraw	s9,a7,tp
    889e:	961a                	add	a2,a2,t1
    88a0:	5d328737          	lui	a4,0x5d328
    88a4:	717d                	addi	sp,sp,-16
    88a6:	4048dcbb          	sraw	s9,a7,tp
    88aa:	41c7043b          	subw	s0,a4,t3
    88ae:	02817933          	remu	s2,sp,s0
    88b2:	88d2                	mv	a7,s4
    88b4:	0001                	nop
    88b6:	004e5ab3          	srl	s5,t3,tp
    88ba:	00e1d23b          	srlw	tp,gp,a4
    88be:	4048dcbb          	sraw	s9,a7,tp
    88c2:	02f24d3b          	divw	s10,tp,a5
    88c6:	961a                	add	a2,a2,t1
    88c8:	0001                	nop
    88ca:	1f7d                	addi	t5,t5,-1
    88cc:	40dad233          	sra	tp,s5,a3
    88d0:	02e964b3          	rem	s1,s2,a4
    88d4:	02f24d3b          	divw	s10,tp,a5
    88d8:	961a                	add	a2,a2,t1
    88da:	0398d53b          	divuw	a0,a7,s9
    88de:	9ead                	addw	a3,a3,a1
    88e0:	008643b3          	xor	t2,a2,s0
    88e4:	4048dcbb          	sraw	s9,a7,tp
    88e8:	e9c89317          	auipc	t1,0xe9c89
    88ec:	0001                	nop
    88ee:	987d                	andi	s0,s0,-1
    88f0:	4048dcbb          	sraw	s9,a7,tp
    88f4:	02817933          	remu	s2,sp,s0
    88f8:	01182a33          	slt	s4,a6,a7
    88fc:	8439                	srai	s0,s0,0xe
    88fe:	8ec9                	or	a3,a3,a0
    8900:	dfa53c93          	sltiu	s9,a0,-518
    8904:	8d3d                	xor	a0,a0,a5
    8906:	01a37233          	and	tp,t1,s10
    890a:	4048dcbb          	sraw	s9,a7,tp
    890e:	00f164b3          	or	s1,sp,a5
    8912:	51fd                	li	gp,-1
    8914:	01a3ba33          	sltu	s4,t2,s10
    8918:	8ef1                	and	a3,a3,a2
    891a:	51fd                	li	gp,-1
    891c:	01f099b3          	sll	s3,ra,t6
    8920:	0001                	nop
    8922:	38057713          	andi	a4,a0,896
    8926:	01320b3b          	addw	s6,tp,s3
    892a:	033fd793          	srli	a5,t6,0x33
    892e:	00e1d23b          	srlw	tp,gp,a4
    8932:	00f164b3          	or	s1,sp,a5
    8936:	01a3ba33          	sltu	s4,t2,s10
    893a:	13ad0213          	addi	tp,s10,314
    893e:	317d                	addiw	sp,sp,-1
    8940:	38057713          	andi	a4,a0,896
    8944:	961a                	add	a2,a2,t1
    8946:	41c7043b          	subw	s0,a4,t3
    894a:	0398d53b          	divuw	a0,a7,s9
    894e:	8ef1                	and	a3,a3,a2
    8950:	40865a1b          	sraiw	s4,a2,0x8
    8954:	9c8d                	subw	s1,s1,a1
    8956:	961a                	add	a2,a2,t1
    8958:	03e0c033          	div	zero,ra,t5
    895c:	9ead                	addw	a3,a3,a1
    895e:	317d                	addiw	sp,sp,-1
    8960:	1f7d                	addi	t5,t5,-1
    8962:	54f6a993          	slti	s3,a3,1359
    8966:	03e0c033          	div	zero,ra,t5
    896a:	88d2                	mv	a7,s4
    896c:	02dadfb3          	divu	t6,s5,a3
    8970:	02e8b633          	mulhu	a2,a7,a4
    8974:	0313633b          	remw	t1,t1,a7
    8978:	01a3ba33          	sltu	s4,t2,s10
    897c:	8ec9                	or	a3,a3,a0
    897e:	090e                	slli	s2,s2,0x3
    8980:	02f24d3b          	divw	s10,tp,a5
    8984:	03e0c033          	div	zero,ra,t5
    8988:	02e189bb          	mulw	s3,gp,a4
    898c:	00e1d23b          	srlw	tp,gp,a4
    8990:	033fd793          	srli	a5,t6,0x33
    8994:	dfa53c93          	sltiu	s9,a0,-518
    8998:	6eed                	lui	t4,0x1b
    899a:	961a                	add	a2,a2,t1
    899c:	029d29b3          	mulhsu	s3,s10,s1
    89a0:	e9c89317          	auipc	t1,0xe9c89
    89a4:	8439                	srai	s0,s0,0xe
    89a6:	8d01                	sub	a0,a0,s0
    89a8:	0001                	nop
    89aa:	00f48133          	add	sp,s1,a5
    89ae:	008643b3          	xor	t2,a2,s0
    89b2:	38057713          	andi	a4,a0,896
    89b6:	02e8b633          	mulhu	a2,a7,a4
    89ba:	8d01                	sub	a0,a0,s0
    89bc:	8d3d                	xor	a0,a0,a5
    89be:	02e8b633          	mulhu	a2,a7,a4
    89c2:	00f48133          	add	sp,s1,a5
    89c6:	6eed                	lui	t4,0x1b
    89c8:	02c78bb3          	mul	s7,a5,a2
    89cc:	51fd                	li	gp,-1
    89ce:	40865a1b          	sraiw	s4,a2,0x8
    89d2:	40865a1b          	sraiw	s4,a2,0x8
    89d6:	0398d53b          	divuw	a0,a7,s9
    89da:	03e0c033          	div	zero,ra,t5
    89de:	0001                	nop
    89e0:	38057713          	andi	a4,a0,896
    89e4:	008643b3          	xor	t2,a2,s0
    89e8:	0001                	nop
    89ea:	e0a1059b          	addiw	a1,sp,-502
    89ee:	808d                	srli	s1,s1,0x3
    89f0:	008643b3          	xor	t2,a2,s0
    89f4:	0001                	nop
    89f6:	0313633b          	remw	t1,t1,a7
    89fa:	6eed                	lui	t4,0x1b
    89fc:	0001                	nop
    89fe:	5d328737          	lui	a4,0x5d328
    8a02:	00f164b3          	or	s1,sp,a5
    8a06:	02f24d3b          	divw	s10,tp,a5
    8a0a:	01320b3b          	addw	s6,tp,s3
    8a0e:	037f9333          	mulh	t1,t6,s7
    8a12:	016a92bb          	sllw	t0,s5,s6
    8a16:	03509613          	slli	a2,ra,0x35
    8a1a:	02f24d3b          	divw	s10,tp,a5
    8a1e:	8ef1                	and	a3,a3,a2
    8a20:	6eed                	lui	t4,0x1b
    8a22:	717d                	addi	sp,sp,-16
    8a24:	00f31f9b          	slliw	t6,t1,0xf
    8a28:	5d328737          	lui	a4,0x5d328
    8a2c:	6eed                	lui	t4,0x1b
    8a2e:	01a37233          	and	tp,t1,s10
    8a32:	40675113          	srai	sp,a4,0x6
    8a36:	004e5ab3          	srl	s5,t3,tp
    8a3a:	0001                	nop
    8a3c:	02dadfb3          	divu	t6,s5,a3
    8a40:	9c8d                	subw	s1,s1,a1
    8a42:	41d98233          	sub	tp,s3,t4
    8a46:	13ad0213          	addi	tp,s10,314
    8a4a:	090e                	slli	s2,s2,0x3
    8a4c:	029d29b3          	mulhsu	s3,s10,s1
    8a50:	0313633b          	remw	t1,t1,a7
    8a54:	02dadfb3          	divu	t6,s5,a3
    8a58:	1f7d                	addi	t5,t5,-1
    8a5a:	e0a1059b          	addiw	a1,sp,-502
    8a5e:	02e964b3          	rem	s1,s2,a4
    8a62:	6eed                	lui	t4,0x1b
    8a64:	808d                	srli	s1,s1,0x3
    8a66:	808d                	srli	s1,s1,0x3
    8a68:	717d                	addi	sp,sp,-16
    8a6a:	01f099b3          	sll	s3,ra,t6
    8a6e:	40dad233          	sra	tp,s5,a3
    8a72:	02e8b633          	mulhu	a2,a7,a4
    8a76:	033fd793          	srli	a5,t6,0x33
    8a7a:	717d                	addi	sp,sp,-16
    8a7c:	987d                	andi	s0,s0,-1
    8a7e:	004e5ab3          	srl	s5,t3,tp
    8a82:	02e964b3          	rem	s1,s2,a4
    8a86:	e0a1059b          	addiw	a1,sp,-502
    8a8a:	9ead                	addw	a3,a3,a1
    8a8c:	dfa53c93          	sltiu	s9,a0,-518
    8a90:	00fed41b          	srliw	s0,t4,0xf
    8a94:	02e189bb          	mulw	s3,gp,a4
    8a98:	0313633b          	remw	t1,t1,a7
    8a9c:	0001                	nop
    8a9e:	02e964b3          	rem	s1,s2,a4
    8aa2:	54f6a993          	slti	s3,a3,1359
    8aa6:	51fd                	li	gp,-1
    8aa8:	9abbcc93          	xori	s9,s7,-1621
    8aac:	13ad0213          	addi	tp,s10,314
    8ab0:	6eed                	lui	t4,0x1b
    8ab2:	02c78bb3          	mul	s7,a5,a2
    8ab6:	016a92bb          	sllw	t0,s5,s6
    8aba:	317d                	addiw	sp,sp,-1
    8abc:	317d                	addiw	sp,sp,-1
    8abe:	317d                	addiw	sp,sp,-1
    8ac0:	808d                	srli	s1,s1,0x3
    8ac2:	1f7d                	addi	t5,t5,-1
    8ac4:	01f099b3          	sll	s3,ra,t6
    8ac8:	0001                	nop
    8aca:	0313633b          	remw	t1,t1,a7
    8ace:	01182a33          	slt	s4,a6,a7
    8ad2:	51fd                	li	gp,-1
    8ad4:	4048dcbb          	sraw	s9,a7,tp
    8ad8:	41d98233          	sub	tp,s3,t4
    8adc:	42686493          	ori	s1,a6,1062
    8ae0:	9abbcc93          	xori	s9,s7,-1621
    8ae4:	03509613          	slli	a2,ra,0x35
    8ae8:	8439                	srai	s0,s0,0xe
    8aea:	02dadfb3          	divu	t6,s5,a3
    8aee:	88d2                	mv	a7,s4
    8af0:	00e1d23b          	srlw	tp,gp,a4
    8af4:	004e5ab3          	srl	s5,t3,tp
    8af8:	40865a1b          	sraiw	s4,a2,0x8
    8afc:	029d29b3          	mulhsu	s3,s10,s1
    8b00:	961a                	add	a2,a2,t1
    8b02:	008643b3          	xor	t2,a2,s0
    8b06:	42686493          	ori	s1,a6,1062
    8b0a:	13ad0213          	addi	tp,s10,314
    8b0e:	8d3d                	xor	a0,a0,a5
    8b10:	e9c89317          	auipc	t1,0xe9c89
    8b14:	03e0c033          	div	zero,ra,t5
    8b18:	0313633b          	remw	t1,t1,a7
    8b1c:	00f48133          	add	sp,s1,a5
    8b20:	42686493          	ori	s1,a6,1062
    8b24:	0313633b          	remw	t1,t1,a7
    8b28:	00f31f9b          	slliw	t6,t1,0xf
    8b2c:	961a                	add	a2,a2,t1
    8b2e:	02e964b3          	rem	s1,s2,a4
    8b32:	01182a33          	slt	s4,a6,a7
    8b36:	037f9333          	mulh	t1,t6,s7
    8b3a:	037f9333          	mulh	t1,t6,s7
    8b3e:	037f9333          	mulh	t1,t6,s7
    8b42:	02dadfb3          	divu	t6,s5,a3
    8b46:	016a92bb          	sllw	t0,s5,s6
    8b4a:	8ec9                	or	a3,a3,a0
    8b4c:	dfa53c93          	sltiu	s9,a0,-518
    8b50:	42686493          	ori	s1,a6,1062
    8b54:	e9c89317          	auipc	t1,0xe9c89
    8b58:	e0a1059b          	addiw	a1,sp,-502
    8b5c:	039f7a3b          	remuw	s4,t5,s9
    8b60:	03509613          	slli	a2,ra,0x35
    8b64:	961a                	add	a2,a2,t1
    8b66:	01182a33          	slt	s4,a6,a7
    8b6a:	004e5ab3          	srl	s5,t3,tp
    8b6e:	03e0c033          	div	zero,ra,t5
    8b72:	dfa53c93          	sltiu	s9,a0,-518
    8b76:	01320b3b          	addw	s6,tp,s3
    8b7a:	4048dcbb          	sraw	s9,a7,tp
    8b7e:	02c78bb3          	mul	s7,a5,a2
    8b82:	03e0c033          	div	zero,ra,t5
    8b86:	029d29b3          	mulhsu	s3,s10,s1
    8b8a:	9ead                	addw	a3,a3,a1
    8b8c:	42686493          	ori	s1,a6,1062
    8b90:	0398d53b          	divuw	a0,a7,s9
    8b94:	4048dcbb          	sraw	s9,a7,tp
    8b98:	dfa53c93          	sltiu	s9,a0,-518
    8b9c:	dfa53c93          	sltiu	s9,a0,-518
    8ba0:	4048dcbb          	sraw	s9,a7,tp
    8ba4:	717d                	addi	sp,sp,-16
    8ba6:	00f164b3          	or	s1,sp,a5
    8baa:	8d01                	sub	a0,a0,s0
    8bac:	00e1d23b          	srlw	tp,gp,a4
    8bb0:	090e                	slli	s2,s2,0x3
    8bb2:	037f9333          	mulh	t1,t6,s7
    8bb6:	004e5ab3          	srl	s5,t3,tp
    8bba:	13ad0213          	addi	tp,s10,314
    8bbe:	02e8b633          	mulhu	a2,a7,a4
    8bc2:	01182a33          	slt	s4,a6,a7
    8bc6:	00e1d23b          	srlw	tp,gp,a4
    8bca:	6eed                	lui	t4,0x1b
    8bcc:	0a04                	addi	s1,sp,272
    8bce:	8d01                	sub	a0,a0,s0
    8bd0:	037f9333          	mulh	t1,t6,s7
    8bd4:	090e                	slli	s2,s2,0x3
    8bd6:	0001                	nop
    8bd8:	0a04                	addi	s1,sp,272
    8bda:	40675113          	srai	sp,a4,0x6
    8bde:	8ec9                	or	a3,a3,a0
    8be0:	090e                	slli	s2,s2,0x3
    8be2:	01a3ba33          	sltu	s4,t2,s10
    8be6:	40865a1b          	sraiw	s4,a2,0x8
    8bea:	8ef1                	and	a3,a3,a2
    8bec:	40865a1b          	sraiw	s4,a2,0x8
    8bf0:	54f6a993          	slti	s3,a3,1359
    8bf4:	717d                	addi	sp,sp,-16
    8bf6:	8439                	srai	s0,s0,0xe
    8bf8:	016a92bb          	sllw	t0,s5,s6
    8bfc:	090e                	slli	s2,s2,0x3
    8bfe:	090e                	slli	s2,s2,0x3
    8c00:	41c7043b          	subw	s0,a4,t3
    8c04:	8d01                	sub	a0,a0,s0
    8c06:	00fed41b          	srliw	s0,t4,0xf
    8c0a:	42686493          	ori	s1,a6,1062
    8c0e:	40865a1b          	sraiw	s4,a2,0x8
    8c12:	02817933          	remu	s2,sp,s0
    8c16:	40865a1b          	sraiw	s4,a2,0x8
    8c1a:	01f099b3          	sll	s3,ra,t6
    8c1e:	51fd                	li	gp,-1
    8c20:	9c8d                	subw	s1,s1,a1
    8c22:	01182a33          	slt	s4,a6,a7
    8c26:	01a3ba33          	sltu	s4,t2,s10
    8c2a:	1f7d                	addi	t5,t5,-1
    8c2c:	13ad0213          	addi	tp,s10,314
    8c30:	5d328737          	lui	a4,0x5d328
    8c34:	41c7043b          	subw	s0,a4,t3
    8c38:	987d                	andi	s0,s0,-1
    8c3a:	0001                	nop
    8c3c:	5d328737          	lui	a4,0x5d328
    8c40:	8439                	srai	s0,s0,0xe
    8c42:	42686493          	ori	s1,a6,1062
    8c46:	42686493          	ori	s1,a6,1062
    8c4a:	987d                	andi	s0,s0,-1
    8c4c:	02c78bb3          	mul	s7,a5,a2
    8c50:	0313633b          	remw	t1,t1,a7
    8c54:	037f9333          	mulh	t1,t6,s7
    8c58:	02dadfb3          	divu	t6,s5,a3
    8c5c:	03509613          	slli	a2,ra,0x35
    8c60:	00f48133          	add	sp,s1,a5
    8c64:	0001                	nop
    8c66:	e9c89317          	auipc	t1,0xe9c89
    8c6a:	02dadfb3          	divu	t6,s5,a3
    8c6e:	8d3d                	xor	a0,a0,a5
    8c70:	8ec9                	or	a3,a3,a0
    8c72:	38057713          	andi	a4,a0,896
    8c76:	0313633b          	remw	t1,t1,a7
    8c7a:	01a37233          	and	tp,t1,s10
    8c7e:	00e1d23b          	srlw	tp,gp,a4
    8c82:	0001                	nop
    8c84:	0398d53b          	divuw	a0,a7,s9
    8c88:	38057713          	andi	a4,a0,896
    8c8c:	00f31f9b          	slliw	t6,t1,0xf
    8c90:	0a04                	addi	s1,sp,272
    8c92:	02e964b3          	rem	s1,s2,a4
    8c96:	317d                	addiw	sp,sp,-1
    8c98:	317d                	addiw	sp,sp,-1
    8c9a:	01a37233          	and	tp,t1,s10
    8c9e:	0001                	nop
    8ca0:	41d98233          	sub	tp,s3,t4
    8ca4:	00f31f9b          	slliw	t6,t1,0xf
    8ca8:	8d01                	sub	a0,a0,s0
    8caa:	01a3ba33          	sltu	s4,t2,s10
    8cae:	00f48133          	add	sp,s1,a5
    8cb2:	02e964b3          	rem	s1,s2,a4
    8cb6:	0313633b          	remw	t1,t1,a7
    8cba:	01f099b3          	sll	s3,ra,t6
    8cbe:	9c8d                	subw	s1,s1,a1
    8cc0:	40865a1b          	sraiw	s4,a2,0x8
    8cc4:	42686493          	ori	s1,a6,1062
    8cc8:	40675113          	srai	sp,a4,0x6
    8ccc:	037f9333          	mulh	t1,t6,s7
    8cd0:	008643b3          	xor	t2,a2,s0
    8cd4:	6eed                	lui	t4,0x1b
    8cd6:	8d01                	sub	a0,a0,s0
    8cd8:	42686493          	ori	s1,a6,1062
    8cdc:	0313633b          	remw	t1,t1,a7
    8ce0:	1f7d                	addi	t5,t5,-1
    8ce2:	8ec9                	or	a3,a3,a0
    8ce4:	03509613          	slli	a2,ra,0x35
    8ce8:	0398d53b          	divuw	a0,a7,s9
    8cec:	039f7a3b          	remuw	s4,t5,s9
    8cf0:	039f7a3b          	remuw	s4,t5,s9
    8cf4:	0398d53b          	divuw	a0,a7,s9
    8cf8:	0a04                	addi	s1,sp,272
    8cfa:	02dadfb3          	divu	t6,s5,a3
    8cfe:	0a04                	addi	s1,sp,272
    8d00:	6eed                	lui	t4,0x1b
    8d02:	01f099b3          	sll	s3,ra,t6
    8d06:	4048dcbb          	sraw	s9,a7,tp
    8d0a:	00f31f9b          	slliw	t6,t1,0xf
    8d0e:	00f31f9b          	slliw	t6,t1,0xf
    8d12:	9abbcc93          	xori	s9,s7,-1621
    8d16:	02e189bb          	mulw	s3,gp,a4
    8d1a:	01320b3b          	addw	s6,tp,s3
    8d1e:	01182a33          	slt	s4,a6,a7
    8d22:	5d328737          	lui	a4,0x5d328
    8d26:	02e189bb          	mulw	s3,gp,a4
    8d2a:	02e964b3          	rem	s1,s2,a4
    8d2e:	e9c89317          	auipc	t1,0xe9c89
    8d32:	1f7d                	addi	t5,t5,-1
    8d34:	9c8d                	subw	s1,s1,a1
    8d36:	00f164b3          	or	s1,sp,a5
    8d3a:	40675113          	srai	sp,a4,0x6
    8d3e:	9abbcc93          	xori	s9,s7,-1621
    8d42:	40675113          	srai	sp,a4,0x6
    8d46:	00f31f9b          	slliw	t6,t1,0xf
    8d4a:	8d3d                	xor	a0,a0,a5
    8d4c:	41c7043b          	subw	s0,a4,t3
    8d50:	40dad233          	sra	tp,s5,a3
    8d54:	016a92bb          	sllw	t0,s5,s6
    8d58:	00e1d23b          	srlw	tp,gp,a4
    8d5c:	01320b3b          	addw	s6,tp,s3
    8d60:	02e8b633          	mulhu	a2,a7,a4
    8d64:	13ad0213          	addi	tp,s10,314
    8d68:	e9c89317          	auipc	t1,0xe9c89
    8d6c:	0001                	nop
    8d6e:	00fed41b          	srliw	s0,t4,0xf
    8d72:	1f7d                	addi	t5,t5,-1
    8d74:	01a3ba33          	sltu	s4,t2,s10
    8d78:	02e964b3          	rem	s1,s2,a4
    8d7c:	42686493          	ori	s1,a6,1062
    8d80:	88d2                	mv	a7,s4
    8d82:	8d3d                	xor	a0,a0,a5
    8d84:	0313633b          	remw	t1,t1,a7
    8d88:	13ad0213          	addi	tp,s10,314
    8d8c:	01182a33          	slt	s4,a6,a7
    8d90:	0313633b          	remw	t1,t1,a7
    8d94:	02c78bb3          	mul	s7,a5,a2
    8d98:	02e8b633          	mulhu	a2,a7,a4
    8d9c:	41c7043b          	subw	s0,a4,t3
    8da0:	88d2                	mv	a7,s4
    8da2:	987d                	andi	s0,s0,-1
    8da4:	00f164b3          	or	s1,sp,a5
    8da8:	1f7d                	addi	t5,t5,-1
    8daa:	dfa53c93          	sltiu	s9,a0,-518
    8dae:	02c78bb3          	mul	s7,a5,a2
    8db2:	01f099b3          	sll	s3,ra,t6
    8db6:	008643b3          	xor	t2,a2,s0
    8dba:	42686493          	ori	s1,a6,1062
    8dbe:	090e                	slli	s2,s2,0x3
    8dc0:	987d                	andi	s0,s0,-1
    8dc2:	0001                	nop
    8dc4:	dfa53c93          	sltiu	s9,a0,-518
    8dc8:	02f24d3b          	divw	s10,tp,a5
    8dcc:	e0a1059b          	addiw	a1,sp,-502
    8dd0:	00f164b3          	or	s1,sp,a5
    8dd4:	9ead                	addw	a3,a3,a1
    8dd6:	02e964b3          	rem	s1,s2,a4
    8dda:	00f48133          	add	sp,s1,a5
    8dde:	1f7d                	addi	t5,t5,-1
    8de0:	03e0c033          	div	zero,ra,t5
    8de4:	8ef1                	and	a3,a3,a2
    8de6:	029d29b3          	mulhsu	s3,s10,s1
    8dea:	1f7d                	addi	t5,t5,-1
    8dec:	0001                	nop
    8dee:	02e8b633          	mulhu	a2,a7,a4
    8df2:	317d                	addiw	sp,sp,-1
    8df4:	02e964b3          	rem	s1,s2,a4
    8df8:	02f24d3b          	divw	s10,tp,a5
    8dfc:	01a37233          	and	tp,t1,s10
    8e00:	8d3d                	xor	a0,a0,a5
    8e02:	717d                	addi	sp,sp,-16
    8e04:	6eed                	lui	t4,0x1b
    8e06:	00f31f9b          	slliw	t6,t1,0xf
    8e0a:	9c8d                	subw	s1,s1,a1
    8e0c:	029d29b3          	mulhsu	s3,s10,s1
    8e10:	9c8d                	subw	s1,s1,a1
    8e12:	0a04                	addi	s1,sp,272
    8e14:	0001                	nop
    8e16:	03509613          	slli	a2,ra,0x35
    8e1a:	00e1d23b          	srlw	tp,gp,a4
    8e1e:	51fd                	li	gp,-1
    8e20:	6eed                	lui	t4,0x1b
    8e22:	41c7043b          	subw	s0,a4,t3
    8e26:	033fd793          	srli	a5,t6,0x33
    8e2a:	02e8b633          	mulhu	a2,a7,a4
    8e2e:	41c7043b          	subw	s0,a4,t3
    8e32:	03e0c033          	div	zero,ra,t5
    8e36:	0a04                	addi	s1,sp,272
    8e38:	40675113          	srai	sp,a4,0x6
    8e3c:	41c7043b          	subw	s0,a4,t3
    8e40:	961a                	add	a2,a2,t1
    8e42:	02f24d3b          	divw	s10,tp,a5
    8e46:	961a                	add	a2,a2,t1
    8e48:	02f24d3b          	divw	s10,tp,a5
    8e4c:	40675113          	srai	sp,a4,0x6
    8e50:	03509613          	slli	a2,ra,0x35
    8e54:	01320b3b          	addw	s6,tp,s3
    8e58:	02817933          	remu	s2,sp,s0
    8e5c:	03509613          	slli	a2,ra,0x35
    8e60:	01320b3b          	addw	s6,tp,s3
    8e64:	54f6a993          	slti	s3,a3,1359
    8e68:	717d                	addi	sp,sp,-16
    8e6a:	961a                	add	a2,a2,t1
    8e6c:	0001                	nop
    8e6e:	02e8b633          	mulhu	a2,a7,a4
    8e72:	004e5ab3          	srl	s5,t3,tp
    8e76:	0001                	nop
    8e78:	033fd793          	srli	a5,t6,0x33
    8e7c:	6eed                	lui	t4,0x1b
    8e7e:	02817933          	remu	s2,sp,s0
    8e82:	317d                	addiw	sp,sp,-1
    8e84:	0a04                	addi	s1,sp,272
    8e86:	008643b3          	xor	t2,a2,s0
    8e8a:	01182a33          	slt	s4,a6,a7
    8e8e:	03509613          	slli	a2,ra,0x35
    8e92:	01a3ba33          	sltu	s4,t2,s10
    8e96:	02dadfb3          	divu	t6,s5,a3
    8e9a:	016a92bb          	sllw	t0,s5,s6
    8e9e:	40675113          	srai	sp,a4,0x6
    8ea2:	02dadfb3          	divu	t6,s5,a3
    8ea6:	13ad0213          	addi	tp,s10,314
    8eaa:	41c7043b          	subw	s0,a4,t3
    8eae:	03509613          	slli	a2,ra,0x35
    8eb2:	00f164b3          	or	s1,sp,a5
    8eb6:	00f164b3          	or	s1,sp,a5
    8eba:	9abbcc93          	xori	s9,s7,-1621
    8ebe:	40dad233          	sra	tp,s5,a3
    8ec2:	41c7043b          	subw	s0,a4,t3
    8ec6:	00fed41b          	srliw	s0,t4,0xf
    8eca:	01f099b3          	sll	s3,ra,t6
    8ece:	008643b3          	xor	t2,a2,s0
    8ed2:	0001                	nop
    8ed4:	88d2                	mv	a7,s4
    8ed6:	8439                	srai	s0,s0,0xe
    8ed8:	8ec9                	or	a3,a3,a0
    8eda:	961a                	add	a2,a2,t1
    8edc:	00f164b3          	or	s1,sp,a5
    8ee0:	02e964b3          	rem	s1,s2,a4
    8ee4:	01320b3b          	addw	s6,tp,s3
    8ee8:	02dadfb3          	divu	t6,s5,a3
    8eec:	88d2                	mv	a7,s4
    8eee:	004e5ab3          	srl	s5,t3,tp
    8ef2:	40865a1b          	sraiw	s4,a2,0x8
    8ef6:	961a                	add	a2,a2,t1
    8ef8:	40675113          	srai	sp,a4,0x6
    8efc:	0313633b          	remw	t1,t1,a7
    8f00:	0001                	nop
    8f02:	02f24d3b          	divw	s10,tp,a5
    8f06:	8d01                	sub	a0,a0,s0
    8f08:	987d                	andi	s0,s0,-1
    8f0a:	987d                	andi	s0,s0,-1
    8f0c:	38057713          	andi	a4,a0,896
    8f10:	e9c89317          	auipc	t1,0xe9c89
    8f14:	54f6a993          	slti	s3,a3,1359
    8f18:	961a                	add	a2,a2,t1
    8f1a:	00e1d23b          	srlw	tp,gp,a4
    8f1e:	039f7a3b          	remuw	s4,t5,s9
    8f22:	8d3d                	xor	a0,a0,a5
    8f24:	987d                	andi	s0,s0,-1
    8f26:	6eed                	lui	t4,0x1b
    8f28:	090e                	slli	s2,s2,0x3
    8f2a:	00e1d23b          	srlw	tp,gp,a4
    8f2e:	01f099b3          	sll	s3,ra,t6
    8f32:	02e964b3          	rem	s1,s2,a4
    8f36:	090e                	slli	s2,s2,0x3
    8f38:	5d328737          	lui	a4,0x5d328
    8f3c:	02dadfb3          	divu	t6,s5,a3
    8f40:	03509613          	slli	a2,ra,0x35
    8f44:	717d                	addi	sp,sp,-16
    8f46:	02e189bb          	mulw	s3,gp,a4
    8f4a:	808d                	srli	s1,s1,0x3
    8f4c:	e0a1059b          	addiw	a1,sp,-502
    8f50:	9abbcc93          	xori	s9,s7,-1621
    8f54:	38057713          	andi	a4,a0,896
    8f58:	02c78bb3          	mul	s7,a5,a2
    8f5c:	00fed41b          	srliw	s0,t4,0xf
    8f60:	0001                	nop
    8f62:	01a37233          	and	tp,t1,s10
    8f66:	01182a33          	slt	s4,a6,a7
    8f6a:	00fed41b          	srliw	s0,t4,0xf
    8f6e:	13ad0213          	addi	tp,s10,314
    8f72:	02e8b633          	mulhu	a2,a7,a4
    8f76:	01f099b3          	sll	s3,ra,t6
    8f7a:	02e189bb          	mulw	s3,gp,a4
    8f7e:	40865a1b          	sraiw	s4,a2,0x8
    8f82:	00f48133          	add	sp,s1,a5
    8f86:	008643b3          	xor	t2,a2,s0
    8f8a:	033fd793          	srli	a5,t6,0x33
    8f8e:	00f164b3          	or	s1,sp,a5
    8f92:	02817933          	remu	s2,sp,s0
    8f96:	e0a1059b          	addiw	a1,sp,-502
    8f9a:	008643b3          	xor	t2,a2,s0
    8f9e:	01182a33          	slt	s4,a6,a7
    8fa2:	02e964b3          	rem	s1,s2,a4
    8fa6:	9abbcc93          	xori	s9,s7,-1621
    8faa:	0398d53b          	divuw	a0,a7,s9
    8fae:	961a                	add	a2,a2,t1
    8fb0:	029d29b3          	mulhsu	s3,s10,s1
    8fb4:	41d98233          	sub	tp,s3,t4
    8fb8:	029d29b3          	mulhsu	s3,s10,s1
    8fbc:	01a37233          	and	tp,t1,s10
    8fc0:	0001                	nop
    8fc2:	02e8b633          	mulhu	a2,a7,a4
    8fc6:	40675113          	srai	sp,a4,0x6
    8fca:	00f31f9b          	slliw	t6,t1,0xf
    8fce:	0001                	nop
    8fd0:	02f24d3b          	divw	s10,tp,a5
    8fd4:	0398d53b          	divuw	a0,a7,s9
    8fd8:	008643b3          	xor	t2,a2,s0
    8fdc:	88d2                	mv	a7,s4
    8fde:	9ead                	addw	a3,a3,a1
    8fe0:	0313633b          	remw	t1,t1,a7
    8fe4:	02e8b633          	mulhu	a2,a7,a4
    8fe8:	00f48133          	add	sp,s1,a5
    8fec:	961a                	add	a2,a2,t1
    8fee:	54f6a993          	slti	s3,a3,1359
    8ff2:	01a3ba33          	sltu	s4,t2,s10
    8ff6:	5d328737          	lui	a4,0x5d328
    8ffa:	1f7d                	addi	t5,t5,-1
    8ffc:	01f099b3          	sll	s3,ra,t6
    9000:	8ef1                	and	a3,a3,a2
    9002:	01f099b3          	sll	s3,ra,t6
    9006:	4048dcbb          	sraw	s9,a7,tp
    900a:	9abbcc93          	xori	s9,s7,-1621
    900e:	039f7a3b          	remuw	s4,t5,s9
    9012:	02817933          	remu	s2,sp,s0
    9016:	016a92bb          	sllw	t0,s5,s6
    901a:	40865a1b          	sraiw	s4,a2,0x8
    901e:	8439                	srai	s0,s0,0xe
    9020:	8439                	srai	s0,s0,0xe
    9022:	317d                	addiw	sp,sp,-1
    9024:	03e0c033          	div	zero,ra,t5
    9028:	6eed                	lui	t4,0x1b
    902a:	033fd793          	srli	a5,t6,0x33
    902e:	5d328737          	lui	a4,0x5d328
    9032:	039f7a3b          	remuw	s4,t5,s9
    9036:	9c8d                	subw	s1,s1,a1
    9038:	808d                	srli	s1,s1,0x3
    903a:	88d2                	mv	a7,s4
    903c:	02e964b3          	rem	s1,s2,a4
    9040:	88d2                	mv	a7,s4
    9042:	01320b3b          	addw	s6,tp,s3
    9046:	5d328737          	lui	a4,0x5d328
    904a:	41d98233          	sub	tp,s3,t4
    904e:	40dad233          	sra	tp,s5,a3
    9052:	090e                	slli	s2,s2,0x3
    9054:	8ef1                	and	a3,a3,a2
    9056:	8ec9                	or	a3,a3,a0
    9058:	01182a33          	slt	s4,a6,a7
    905c:	02e964b3          	rem	s1,s2,a4
    9060:	40dad233          	sra	tp,s5,a3
    9064:	8d3d                	xor	a0,a0,a5
    9066:	8d3d                	xor	a0,a0,a5
    9068:	02c78bb3          	mul	s7,a5,a2
    906c:	dfa53c93          	sltiu	s9,a0,-518
    9070:	40865a1b          	sraiw	s4,a2,0x8
    9074:	dfa53c93          	sltiu	s9,a0,-518
    9078:	00f164b3          	or	s1,sp,a5
    907c:	13ad0213          	addi	tp,s10,314
    9080:	01a3ba33          	sltu	s4,t2,s10
    9084:	8d3d                	xor	a0,a0,a5
    9086:	03e0c033          	div	zero,ra,t5
    908a:	42686493          	ori	s1,a6,1062
    908e:	961a                	add	a2,a2,t1
    9090:	00fed41b          	srliw	s0,t4,0xf
    9094:	42686493          	ori	s1,a6,1062
    9098:	987d                	andi	s0,s0,-1
    909a:	51fd                	li	gp,-1
    909c:	008643b3          	xor	t2,a2,s0
    90a0:	004e5ab3          	srl	s5,t3,tp
    90a4:	01f099b3          	sll	s3,ra,t6
    90a8:	41c7043b          	subw	s0,a4,t3
    90ac:	03509613          	slli	a2,ra,0x35
    90b0:	40865a1b          	sraiw	s4,a2,0x8
    90b4:	e0a1059b          	addiw	a1,sp,-502
    90b8:	40865a1b          	sraiw	s4,a2,0x8
    90bc:	e0a1059b          	addiw	a1,sp,-502
    90c0:	38057713          	andi	a4,a0,896
    90c4:	01a37233          	and	tp,t1,s10
    90c8:	01182a33          	slt	s4,a6,a7
    90cc:	090e                	slli	s2,s2,0x3
    90ce:	02f24d3b          	divw	s10,tp,a5
    90d2:	02dadfb3          	divu	t6,s5,a3
    90d6:	00e1d23b          	srlw	tp,gp,a4
    90da:	8d3d                	xor	a0,a0,a5
    90dc:	54f6a993          	slti	s3,a3,1359
    90e0:	01182a33          	slt	s4,a6,a7
    90e4:	02e189bb          	mulw	s3,gp,a4
    90e8:	02817933          	remu	s2,sp,s0
    90ec:	e9c89317          	auipc	t1,0xe9c89
    90f0:	00f48133          	add	sp,s1,a5
    90f4:	88d2                	mv	a7,s4
    90f6:	987d                	andi	s0,s0,-1
    90f8:	01320b3b          	addw	s6,tp,s3
    90fc:	6eed                	lui	t4,0x1b
    90fe:	8ec9                	or	a3,a3,a0
    9100:	02dadfb3          	divu	t6,s5,a3
    9104:	9ead                	addw	a3,a3,a1
    9106:	02817933          	remu	s2,sp,s0
    910a:	dfa53c93          	sltiu	s9,a0,-518
    910e:	0313633b          	remw	t1,t1,a7
    9112:	5efd                	li	t4,-1
    9114:	527d                	li	tp,-1
    9116:	56fd                	li	a3,-1
    9118:	53fd                	li	t2,-1
    911a:	043c79b7          	lui	s3,0x43c7
    911e:	8b39899b          	addiw	s3,s3,-1869
    9122:	09b2                	slli	s3,s3,0xc
    9124:	08998993          	addi	s3,s3,137 # 43c7089 <_end+0x43a7389>
    9128:	09b2                	slli	s3,s3,0xc
    912a:	bf998993          	addi	s3,s3,-1031
    912e:	09b2                	slli	s3,s3,0xc
    9130:	65798993          	addi	s3,s3,1623
    9134:	fff00537          	lui	a0,0xfff00
    9138:	64f5051b          	addiw	a0,a0,1615
    913c:	0536                	slli	a0,a0,0xd
    913e:	d9d50513          	addi	a0,a0,-611 # ffffffffffeffd9d <_end+0xffffffffffee009d>
    9142:	0536                	slli	a0,a0,0xd
    9144:	ec150513          	addi	a0,a0,-319
    9148:	0546                	slli	a0,a0,0x11
    914a:	e7a50513          	addi	a0,a0,-390
    914e:	fff0029b          	addiw	t0,zero,-1
    9152:	12fe                	slli	t0,t0,0x3f
    9154:	567d                	li	a2,-1
    9156:	547d                	li	s0,-1
    9158:	fff00c9b          	addiw	s9,zero,-1
    915c:	1cfe                	slli	s9,s9,0x3f
    915e:	03944533          	div	a0,s0,s9
    9162:	01350633          	add	a2,a0,s3
    9166:	02d616b3          	mulh	a3,a2,a3
    916a:	40c402bb          	subw	t0,s0,a2
    916e:	024ec3bb          	divw	t2,t4,tp
    9172:	02d616b3          	mulh	a3,a2,a3
    9176:	e0ac829b          	addiw	t0,s9,-502
    917a:	025272b3          	remu	t0,tp,t0
    917e:	0001                	nop
    9180:	024ebcb3          	mulhu	s9,t4,tp
    9184:	024ec3bb          	divw	t2,t4,tp
    9188:	033983bb          	mulw	t2,s3,s3
    918c:	01350633          	add	a2,a0,s3
    9190:	e9c89217          	auipc	tp,0xe9c89
    9194:	03944533          	div	a0,s0,s9
    9198:	025272b3          	remu	t0,tp,t0
    919c:	03944533          	div	a0,s0,s9
    91a0:	02c6a3b3          	mulhsu	t2,a3,a2
    91a4:	01320b3b          	addw	s6,tp,s3
    91a8:	317d                	addiw	sp,sp,-1
    91aa:	039f7a3b          	remuw	s4,t5,s9
    91ae:	8ef1                	and	a3,a3,a2
    91b0:	01f099b3          	sll	s3,ra,t6
    91b4:	0001                	nop
    91b6:	0a04                	addi	s1,sp,272
    91b8:	008643b3          	xor	t2,a2,s0
    91bc:	88d2                	mv	a7,s4
    91be:	6eed                	lui	t4,0x1b
    91c0:	9ead                	addw	a3,a3,a1
    91c2:	008643b3          	xor	t2,a2,s0
    91c6:	03509613          	slli	a2,ra,0x35
    91ca:	317d                	addiw	sp,sp,-1
    91cc:	02f24d3b          	divw	s10,tp,a5
    91d0:	40675113          	srai	sp,a4,0x6
    91d4:	02f24d3b          	divw	s10,tp,a5
    91d8:	037f9333          	mulh	t1,t6,s7
    91dc:	02e964b3          	rem	s1,s2,a4
    91e0:	40dad233          	sra	tp,s5,a3
    91e4:	0001                	nop
    91e6:	00f48133          	add	sp,s1,a5
    91ea:	38057713          	andi	a4,a0,896
    91ee:	00f48133          	add	sp,s1,a5
    91f2:	00f48133          	add	sp,s1,a5
    91f6:	02e8b633          	mulhu	a2,a7,a4
    91fa:	88d2                	mv	a7,s4
    91fc:	717d                	addi	sp,sp,-16
    91fe:	0313633b          	remw	t1,t1,a7
    9202:	40675113          	srai	sp,a4,0x6
    9206:	00e1d23b          	srlw	tp,gp,a4
    920a:	987d                	andi	s0,s0,-1
    920c:	00f48133          	add	sp,s1,a5
    9210:	00f164b3          	or	s1,sp,a5
    9214:	8ec9                	or	a3,a3,a0
    9216:	01320b3b          	addw	s6,tp,s3
    921a:	8d3d                	xor	a0,a0,a5
    921c:	00f31f9b          	slliw	t6,t1,0xf
    9220:	0001                	nop
    9222:	40865a1b          	sraiw	s4,a2,0x8
    9226:	02817933          	remu	s2,sp,s0
    922a:	02e8b633          	mulhu	a2,a7,a4
    922e:	987d                	andi	s0,s0,-1
    9230:	dfa53c93          	sltiu	s9,a0,-518
    9234:	717d                	addi	sp,sp,-16
    9236:	016a92bb          	sllw	t0,s5,s6
    923a:	02e189bb          	mulw	s3,gp,a4
    923e:	02e964b3          	rem	s1,s2,a4
    9242:	41c7043b          	subw	s0,a4,t3
    9246:	090e                	slli	s2,s2,0x3
    9248:	6eed                	lui	t4,0x1b
    924a:	03509613          	slli	a2,ra,0x35
    924e:	717d                	addi	sp,sp,-16
    9250:	02817933          	remu	s2,sp,s0
    9254:	01f099b3          	sll	s3,ra,t6
    9258:	5d328737          	lui	a4,0x5d328
    925c:	5d328737          	lui	a4,0x5d328
    9260:	016a92bb          	sllw	t0,s5,s6
    9264:	0a04                	addi	s1,sp,272
    9266:	8ef1                	and	a3,a3,a2
    9268:	88d2                	mv	a7,s4
    926a:	42686493          	ori	s1,a6,1062
    926e:	00f164b3          	or	s1,sp,a5
    9272:	40dad233          	sra	tp,s5,a3
    9276:	8d3d                	xor	a0,a0,a5
    9278:	0313633b          	remw	t1,t1,a7
    927c:	029d29b3          	mulhsu	s3,s10,s1
    9280:	40675113          	srai	sp,a4,0x6
    9284:	02c78bb3          	mul	s7,a5,a2
    9288:	1f7d                	addi	t5,t5,-1
    928a:	54f6a993          	slti	s3,a3,1359
    928e:	039f7a3b          	remuw	s4,t5,s9
    9292:	9ead                	addw	a3,a3,a1
    9294:	8439                	srai	s0,s0,0xe
    9296:	01a3ba33          	sltu	s4,t2,s10
    929a:	961a                	add	a2,a2,t1
    929c:	01a3ba33          	sltu	s4,t2,s10
    92a0:	9abbcc93          	xori	s9,s7,-1621
    92a4:	9ead                	addw	a3,a3,a1
    92a6:	090e                	slli	s2,s2,0x3
    92a8:	00f164b3          	or	s1,sp,a5
    92ac:	317d                	addiw	sp,sp,-1
    92ae:	9ead                	addw	a3,a3,a1
    92b0:	02c78bb3          	mul	s7,a5,a2
    92b4:	008643b3          	xor	t2,a2,s0
    92b8:	00f164b3          	or	s1,sp,a5
    92bc:	01a3ba33          	sltu	s4,t2,s10
    92c0:	01a37233          	and	tp,t1,s10
    92c4:	40675113          	srai	sp,a4,0x6
    92c8:	004e5ab3          	srl	s5,t3,tp
    92cc:	00f48133          	add	sp,s1,a5
    92d0:	02dadfb3          	divu	t6,s5,a3
    92d4:	8d3d                	xor	a0,a0,a5
    92d6:	01a37233          	and	tp,t1,s10
    92da:	6eed                	lui	t4,0x1b
    92dc:	5d328737          	lui	a4,0x5d328
    92e0:	03509613          	slli	a2,ra,0x35
    92e4:	01a37233          	and	tp,t1,s10
    92e8:	039f7a3b          	remuw	s4,t5,s9
    92ec:	0398d53b          	divuw	a0,a7,s9
    92f0:	01182a33          	slt	s4,a6,a7
    92f4:	02817933          	remu	s2,sp,s0
    92f8:	00f31f9b          	slliw	t6,t1,0xf
    92fc:	00e1d23b          	srlw	tp,gp,a4
    9300:	8439                	srai	s0,s0,0xe
    9302:	5d328737          	lui	a4,0x5d328
    9306:	961a                	add	a2,a2,t1
    9308:	808d                	srli	s1,s1,0x3
    930a:	0001                	nop
    930c:	9abbcc93          	xori	s9,s7,-1621
    9310:	01182a33          	slt	s4,a6,a7
    9314:	e0a1059b          	addiw	a1,sp,-502
    9318:	54f6a993          	slti	s3,a3,1359
    931c:	dfa53c93          	sltiu	s9,a0,-518
    9320:	029d29b3          	mulhsu	s3,s10,s1
    9324:	4048dcbb          	sraw	s9,a7,tp
    9328:	01320b3b          	addw	s6,tp,s3
    932c:	6eed                	lui	t4,0x1b
    932e:	e9c89317          	auipc	t1,0xe9c89
    9332:	41d98233          	sub	tp,s3,t4
    9336:	41d98233          	sub	tp,s3,t4
    933a:	e9c89317          	auipc	t1,0xe9c89
    933e:	03e0c033          	div	zero,ra,t5
    9342:	808d                	srli	s1,s1,0x3
    9344:	0001                	nop
    9346:	02c78bb3          	mul	s7,a5,a2
    934a:	808d                	srli	s1,s1,0x3
    934c:	02f24d3b          	divw	s10,tp,a5
    9350:	090e                	slli	s2,s2,0x3
    9352:	033fd793          	srli	a5,t6,0x33
    9356:	01a3ba33          	sltu	s4,t2,s10
    935a:	40675113          	srai	sp,a4,0x6
    935e:	02e964b3          	rem	s1,s2,a4
    9362:	317d                	addiw	sp,sp,-1
    9364:	03e0c033          	div	zero,ra,t5
    9368:	00e1d23b          	srlw	tp,gp,a4
    936c:	02e964b3          	rem	s1,s2,a4
    9370:	51fd                	li	gp,-1
    9372:	51fd                	li	gp,-1
    9374:	41c7043b          	subw	s0,a4,t3
    9378:	02dadfb3          	divu	t6,s5,a3
    937c:	e9c89317          	auipc	t1,0xe9c89
    9380:	9ead                	addw	a3,a3,a1
    9382:	02f24d3b          	divw	s10,tp,a5
    9386:	02e189bb          	mulw	s3,gp,a4
    938a:	01f099b3          	sll	s3,ra,t6
    938e:	00f31f9b          	slliw	t6,t1,0xf
    9392:	0001                	nop
    9394:	02dadfb3          	divu	t6,s5,a3
    9398:	54f6a993          	slti	s3,a3,1359
    939c:	02f24d3b          	divw	s10,tp,a5
    93a0:	6eed                	lui	t4,0x1b
    93a2:	8d01                	sub	a0,a0,s0
    93a4:	00f164b3          	or	s1,sp,a5
    93a8:	01320b3b          	addw	s6,tp,s3
    93ac:	02e964b3          	rem	s1,s2,a4
    93b0:	54f6a993          	slti	s3,a3,1359
    93b4:	02c78bb3          	mul	s7,a5,a2
    93b8:	00f31f9b          	slliw	t6,t1,0xf
    93bc:	8ef1                	and	a3,a3,a2
    93be:	8439                	srai	s0,s0,0xe
    93c0:	00f31f9b          	slliw	t6,t1,0xf
    93c4:	03e0c033          	div	zero,ra,t5
    93c8:	42686493          	ori	s1,a6,1062
    93cc:	02c78bb3          	mul	s7,a5,a2
    93d0:	41c7043b          	subw	s0,a4,t3
    93d4:	02e189bb          	mulw	s3,gp,a4
    93d8:	6eed                	lui	t4,0x1b
    93da:	004e5ab3          	srl	s5,t3,tp
    93de:	02e189bb          	mulw	s3,gp,a4
    93e2:	03e0c033          	div	zero,ra,t5
    93e6:	54f6a993          	slti	s3,a3,1359
    93ea:	317d                	addiw	sp,sp,-1
    93ec:	02c78bb3          	mul	s7,a5,a2
    93f0:	0001                	nop
    93f2:	808d                	srli	s1,s1,0x3
    93f4:	40675113          	srai	sp,a4,0x6
    93f8:	00e1d23b          	srlw	tp,gp,a4
    93fc:	0a04                	addi	s1,sp,272
    93fe:	03509613          	slli	a2,ra,0x35
    9402:	40675113          	srai	sp,a4,0x6
    9406:	987d                	andi	s0,s0,-1
    9408:	00f48133          	add	sp,s1,a5
    940c:	40675113          	srai	sp,a4,0x6
    9410:	317d                	addiw	sp,sp,-1
    9412:	dfa53c93          	sltiu	s9,a0,-518
    9416:	029d29b3          	mulhsu	s3,s10,s1
    941a:	090e                	slli	s2,s2,0x3
    941c:	40675113          	srai	sp,a4,0x6
    9420:	03509613          	slli	a2,ra,0x35
    9424:	03509613          	slli	a2,ra,0x35
    9428:	961a                	add	a2,a2,t1
    942a:	01320b3b          	addw	s6,tp,s3
    942e:	58fd                	li	a7,-1
    9430:	fff0049b          	addiw	s1,zero,-1
    9434:	14fe                	slli	s1,s1,0x3f
    9436:	4281                	li	t0,0
    9438:	fff0041b          	addiw	s0,zero,-1
    943c:	147e                	slli	s0,s0,0x3f
    943e:	fff00d9b          	addiw	s11,zero,-1
    9442:	1dfe                	slli	s11,s11,0x3f
    9444:	5d7d                	li	s10,-1
    9446:	fff0039b          	addiw	t2,zero,-1
    944a:	13fe                	slli	t2,t2,0x3f
    944c:	fff00e9b          	addiw	t4,zero,-1
    9450:	1efe                	slli	t4,t4,0x3f
    9452:	527d                	li	tp,-1
    9454:	fff0091b          	addiw	s2,zero,-1
    9458:	197e                	slli	s2,s2,0x3f
    945a:	007d093b          	addw	s2,s10,t2
    945e:	41120233          	sub	tp,tp,a7
    9462:	01b90233          	add	tp,s2,s11
    9466:	13a20413          	addi	s0,tp,314 # ffffffffe9c922ca <_end+0xffffffffe9c725ca>
    946a:	404402bb          	subw	t0,s0,tp
    946e:	029444b3          	div	s1,s0,s1
    9472:	028eb8b3          	mulhu	a7,t4,s0
    9476:	029444b3          	div	s1,s0,s1
    947a:	03bd83bb          	mulw	t2,s11,s11
    947e:	41120233          	sub	tp,tp,a7
    9482:	03bd83bb          	mulw	t2,s11,s11
    9486:	007d093b          	addw	s2,s10,t2
    948a:	404402bb          	subw	t0,s0,tp
    948e:	0001                	nop
    9490:	007d093b          	addw	s2,s10,t2
    9494:	5d328d37          	lui	s10,0x5d328
    9498:	0254743b          	remuw	s0,s0,t0
    949c:	03a28433          	mul	s0,t0,s10
    94a0:	0254743b          	remuw	s0,s0,t0
    94a4:	032ecebb          	divw	t4,t4,s2
    94a8:	025272b3          	remu	t0,tp,t0
    94ac:	01b90233          	add	tp,s2,s11
    94b0:	028de933          	rem	s2,s11,s0
    94b4:	028eb8b3          	mulhu	a7,t4,s0
    94b8:	007d093b          	addw	s2,s10,t2
    94bc:	01b90233          	add	tp,s2,s11
    94c0:	029444b3          	div	s1,s0,s1
    94c4:	5d328737          	lui	a4,0x5d328
    94c8:	02e8b633          	mulhu	a2,a7,a4
    94cc:	8ec9                	or	a3,a3,a0
    94ce:	0001                	nop
    94d0:	00fed41b          	srliw	s0,t4,0xf
    94d4:	8ef1                	and	a3,a3,a2
    94d6:	9c8d                	subw	s1,s1,a1
    94d8:	317d                	addiw	sp,sp,-1
    94da:	987d                	andi	s0,s0,-1
    94dc:	6eed                	lui	t4,0x1b
    94de:	02817933          	remu	s2,sp,s0
    94e2:	e9c89317          	auipc	t1,0xe9c89
    94e6:	40865a1b          	sraiw	s4,a2,0x8
    94ea:	02e189bb          	mulw	s3,gp,a4
    94ee:	42686493          	ori	s1,a6,1062
    94f2:	41d98233          	sub	tp,s3,t4
    94f6:	029d29b3          	mulhsu	s3,s10,s1
    94fa:	02e189bb          	mulw	s3,gp,a4
    94fe:	8439                	srai	s0,s0,0xe
    9500:	40675113          	srai	sp,a4,0x6
    9504:	41c7043b          	subw	s0,a4,t3
    9508:	41d98233          	sub	tp,s3,t4
    950c:	51fd                	li	gp,-1
    950e:	016a92bb          	sllw	t0,s5,s6
    9512:	317d                	addiw	sp,sp,-1
    9514:	02e189bb          	mulw	s3,gp,a4
    9518:	0001                	nop
    951a:	88d2                	mv	a7,s4
    951c:	02f24d3b          	divw	s10,tp,a5
    9520:	0313633b          	remw	t1,t1,a7
    9524:	8ef1                	and	a3,a3,a2
    9526:	8d3d                	xor	a0,a0,a5
    9528:	41c7043b          	subw	s0,a4,t3
    952c:	01320b3b          	addw	s6,tp,s3
    9530:	0313633b          	remw	t1,t1,a7
    9534:	03509613          	slli	a2,ra,0x35
    9538:	0398d53b          	divuw	a0,a7,s9
    953c:	03e0c033          	div	zero,ra,t5
    9540:	41c7043b          	subw	s0,a4,t3
    9544:	01f099b3          	sll	s3,ra,t6
    9548:	033fd793          	srli	a5,t6,0x33
    954c:	01a3ba33          	sltu	s4,t2,s10
    9550:	808d                	srli	s1,s1,0x3
    9552:	6eed                	lui	t4,0x1b
    9554:	9abbcc93          	xori	s9,s7,-1621
    9558:	717d                	addi	sp,sp,-16
    955a:	02e964b3          	rem	s1,s2,a4
    955e:	987d                	andi	s0,s0,-1
    9560:	008643b3          	xor	t2,a2,s0
    9564:	02c78bb3          	mul	s7,a5,a2
    9568:	02817933          	remu	s2,sp,s0
    956c:	01f099b3          	sll	s3,ra,t6
    9570:	016a92bb          	sllw	t0,s5,s6
    9574:	00e1d23b          	srlw	tp,gp,a4
    9578:	02f24d3b          	divw	s10,tp,a5
    957c:	039f7a3b          	remuw	s4,t5,s9
    9580:	13ad0213          	addi	tp,s10,314 # 5d32813a <_end+0x5d30843a>
    9584:	02e189bb          	mulw	s3,gp,a4
    9588:	03509613          	slli	a2,ra,0x35
    958c:	0398d53b          	divuw	a0,a7,s9
    9590:	00f164b3          	or	s1,sp,a5
    9594:	e9c89317          	auipc	t1,0xe9c89
    9598:	317d                	addiw	sp,sp,-1
    959a:	01a37233          	and	tp,t1,s10
    959e:	808d                	srli	s1,s1,0x3
    95a0:	e0a1059b          	addiw	a1,sp,-502
    95a4:	88d2                	mv	a7,s4
    95a6:	033fd793          	srli	a5,t6,0x33
    95aa:	42686493          	ori	s1,a6,1062
    95ae:	e0a1059b          	addiw	a1,sp,-502
    95b2:	e9c89317          	auipc	t1,0xe9c89
    95b6:	6eed                	lui	t4,0x1b
    95b8:	01a3ba33          	sltu	s4,t2,s10
    95bc:	004e5ab3          	srl	s5,t3,tp
    95c0:	0001                	nop
    95c2:	039f7a3b          	remuw	s4,t5,s9
    95c6:	02e964b3          	rem	s1,s2,a4
    95ca:	01a37233          	and	tp,t1,s10
    95ce:	808d                	srli	s1,s1,0x3
    95d0:	03e0c033          	div	zero,ra,t5
    95d4:	8d01                	sub	a0,a0,s0
    95d6:	00f164b3          	or	s1,sp,a5
    95da:	008643b3          	xor	t2,a2,s0
    95de:	0001                	nop
    95e0:	317d                	addiw	sp,sp,-1
    95e2:	02f24d3b          	divw	s10,tp,a5
    95e6:	0001                	nop
    95e8:	0398d53b          	divuw	a0,a7,s9
    95ec:	0001                	nop
    95ee:	03509613          	slli	a2,ra,0x35
    95f2:	5d328737          	lui	a4,0x5d328
    95f6:	40dad233          	sra	tp,s5,a3
    95fa:	13ad0213          	addi	tp,s10,314
    95fe:	987d                	andi	s0,s0,-1
    9600:	5d328737          	lui	a4,0x5d328
    9604:	004e5ab3          	srl	s5,t3,tp
    9608:	5d328737          	lui	a4,0x5d328
    960c:	01182a33          	slt	s4,a6,a7
    9610:	41c7043b          	subw	s0,a4,t3
    9614:	01182a33          	slt	s4,a6,a7
    9618:	808d                	srli	s1,s1,0x3
    961a:	8ef1                	and	a3,a3,a2
    961c:	8ef1                	and	a3,a3,a2
    961e:	016a92bb          	sllw	t0,s5,s6
    9622:	8ef1                	and	a3,a3,a2
    9624:	0398d53b          	divuw	a0,a7,s9
    9628:	54f6a993          	slti	s3,a3,1359
    962c:	0313633b          	remw	t1,t1,a7
    9630:	00e1d23b          	srlw	tp,gp,a4
    9634:	0001                	nop
    9636:	5d328737          	lui	a4,0x5d328
    963a:	02f24d3b          	divw	s10,tp,a5
    963e:	01182a33          	slt	s4,a6,a7
    9642:	51fd                	li	gp,-1
    9644:	039f7a3b          	remuw	s4,t5,s9
    9648:	717d                	addi	sp,sp,-16
    964a:	02817933          	remu	s2,sp,s0
    964e:	01a37233          	and	tp,t1,s10
    9652:	51fd                	li	gp,-1
    9654:	88d2                	mv	a7,s4
    9656:	4048dcbb          	sraw	s9,a7,tp
    965a:	0001                	nop
    965c:	e0a1059b          	addiw	a1,sp,-502
    9660:	00fed41b          	srliw	s0,t4,0xf
    9664:	00f164b3          	or	s1,sp,a5
    9668:	01182a33          	slt	s4,a6,a7
    966c:	0a04                	addi	s1,sp,272
    966e:	00e1d23b          	srlw	tp,gp,a4
    9672:	01a37233          	and	tp,t1,s10
    9676:	02f24d3b          	divw	s10,tp,a5
    967a:	0001                	nop
    967c:	0313633b          	remw	t1,t1,a7
    9680:	0001                	nop
    9682:	090e                	slli	s2,s2,0x3
    9684:	0001                	nop
    9686:	00e1d23b          	srlw	tp,gp,a4
    968a:	54f6a993          	slti	s3,a3,1359
    968e:	987d                	andi	s0,s0,-1
    9690:	808d                	srli	s1,s1,0x3
    9692:	090e                	slli	s2,s2,0x3
    9694:	00fed41b          	srliw	s0,t4,0xf
    9698:	01182a33          	slt	s4,a6,a7
    969c:	8d01                	sub	a0,a0,s0
    969e:	317d                	addiw	sp,sp,-1
    96a0:	8ec9                	or	a3,a3,a0
    96a2:	e9c89317          	auipc	t1,0xe9c89
    96a6:	1f7d                	addi	t5,t5,-1
    96a8:	02817933          	remu	s2,sp,s0
    96ac:	02e964b3          	rem	s1,s2,a4
    96b0:	dfa53c93          	sltiu	s9,a0,-518
    96b4:	00fed41b          	srliw	s0,t4,0xf
    96b8:	961a                	add	a2,a2,t1
    96ba:	9abbcc93          	xori	s9,s7,-1621
    96be:	808d                	srli	s1,s1,0x3
    96c0:	033fd793          	srli	a5,t6,0x33
    96c4:	4048dcbb          	sraw	s9,a7,tp
    96c8:	317d                	addiw	sp,sp,-1
    96ca:	808d                	srli	s1,s1,0x3
    96cc:	01a37233          	and	tp,t1,s10
    96d0:	9c8d                	subw	s1,s1,a1
    96d2:	016a92bb          	sllw	t0,s5,s6
    96d6:	8d01                	sub	a0,a0,s0
    96d8:	033fd793          	srli	a5,t6,0x33
    96dc:	e9c89317          	auipc	t1,0xe9c89
    96e0:	88d2                	mv	a7,s4
    96e2:	40675113          	srai	sp,a4,0x6
    96e6:	317d                	addiw	sp,sp,-1
    96e8:	037f9333          	mulh	t1,t6,s7
    96ec:	4048dcbb          	sraw	s9,a7,tp
    96f0:	01a37233          	and	tp,t1,s10
    96f4:	808d                	srli	s1,s1,0x3
    96f6:	41d98233          	sub	tp,s3,t4
    96fa:	02817933          	remu	s2,sp,s0
    96fe:	00fed41b          	srliw	s0,t4,0xf
    9702:	1f7d                	addi	t5,t5,-1
    9704:	9abbcc93          	xori	s9,s7,-1621
    9708:	1f7d                	addi	t5,t5,-1
    970a:	03e0c033          	div	zero,ra,t5
    970e:	8439                	srai	s0,s0,0xe
    9710:	9ead                	addw	a3,a3,a1
    9712:	9abbcc93          	xori	s9,s7,-1621
    9716:	03e0c033          	div	zero,ra,t5
    971a:	02e964b3          	rem	s1,s2,a4
    971e:	808d                	srli	s1,s1,0x3
    9720:	8d01                	sub	a0,a0,s0
    9722:	00f31f9b          	slliw	t6,t1,0xf
    9726:	008643b3          	xor	t2,a2,s0
    972a:	8ec9                	or	a3,a3,a0
    972c:	033fd793          	srli	a5,t6,0x33
    9730:	00e1d23b          	srlw	tp,gp,a4
    9734:	5d328737          	lui	a4,0x5d328
    9738:	02817933          	remu	s2,sp,s0
    973c:	e9c89317          	auipc	t1,0xe9c89
    9740:	00e1d23b          	srlw	tp,gp,a4
    9744:	38057713          	andi	a4,a0,896
    9748:	42686493          	ori	s1,a6,1062
    974c:	033fd793          	srli	a5,t6,0x33
    9750:	01a3ba33          	sltu	s4,t2,s10
    9754:	00fed41b          	srliw	s0,t4,0xf
    9758:	41d98233          	sub	tp,s3,t4
    975c:	9ead                	addw	a3,a3,a1
    975e:	40dad233          	sra	tp,s5,a3
    9762:	004e5ab3          	srl	s5,t3,tp
    9766:	037f9333          	mulh	t1,t6,s7
    976a:	090e                	slli	s2,s2,0x3
    976c:	42686493          	ori	s1,a6,1062
    9770:	4048dcbb          	sraw	s9,a7,tp
    9774:	00f48133          	add	sp,s1,a5
    9778:	016a92bb          	sllw	t0,s5,s6
    977c:	88d2                	mv	a7,s4
    977e:	0398d53b          	divuw	a0,a7,s9
    9782:	090e                	slli	s2,s2,0x3
    9784:	6eed                	lui	t4,0x1b
    9786:	9abbcc93          	xori	s9,s7,-1621
    978a:	8d01                	sub	a0,a0,s0
    978c:	0001                	nop
    978e:	dfa53c93          	sltiu	s9,a0,-518
    9792:	40675113          	srai	sp,a4,0x6
    9796:	004e5ab3          	srl	s5,t3,tp
    979a:	54f6a993          	slti	s3,a3,1359
    979e:	00f164b3          	or	s1,sp,a5
    97a2:	02f24d3b          	divw	s10,tp,a5
    97a6:	38057713          	andi	a4,a0,896
    97aa:	8d3d                	xor	a0,a0,a5
    97ac:	00f48133          	add	sp,s1,a5
    97b0:	51fd                	li	gp,-1
    97b2:	00f164b3          	or	s1,sp,a5
    97b6:	38057713          	andi	a4,a0,896
    97ba:	54f6a993          	slti	s3,a3,1359
    97be:	317d                	addiw	sp,sp,-1
    97c0:	01182a33          	slt	s4,a6,a7
    97c4:	8d01                	sub	a0,a0,s0
    97c6:	9abbcc93          	xori	s9,s7,-1621
    97ca:	016a92bb          	sllw	t0,s5,s6
    97ce:	dfa53c93          	sltiu	s9,a0,-518
    97d2:	03509613          	slli	a2,ra,0x35
    97d6:	717d                	addi	sp,sp,-16
    97d8:	8d01                	sub	a0,a0,s0
    97da:	e0a1059b          	addiw	a1,sp,-502
    97de:	00f164b3          	or	s1,sp,a5
    97e2:	961a                	add	a2,a2,t1
    97e4:	0001                	nop
    97e6:	01320b3b          	addw	s6,tp,s3
    97ea:	02817933          	remu	s2,sp,s0
    97ee:	59fd                	li	s3,-1
    97f0:	527d                	li	tp,-1
    97f2:	557d                	li	a0,-1
    97f4:	4601                	li	a2,0
    97f6:	01d208b7          	lui	a7,0x1d20
    97fa:	b098889b          	addiw	a7,a7,-1271
    97fe:	08b2                	slli	a7,a7,0xc
    9800:	44f88893          	addi	a7,a7,1103 # 1d2044f <_end+0x1d0074f>
    9804:	08b6                	slli	a7,a7,0xd
    9806:	b3b88893          	addi	a7,a7,-1221
    980a:	08b2                	slli	a7,a7,0xc
    980c:	d9688893          	addi	a7,a7,-618
    9810:	5b7d                	li	s6,-1
    9812:	5d7d                	li	s10,-1
    9814:	f69737b7          	lui	a5,0xf6973
    9818:	b517879b          	addiw	a5,a5,-1199
    981c:	07ba                	slli	a5,a5,0xe
    981e:	d3f78793          	addi	a5,a5,-705 # fffffffff6972d3f <_end+0xfffffffff695303f>
    9822:	07b2                	slli	a5,a5,0xc
    9824:	89778793          	addi	a5,a5,-1897
    9828:	02a94737          	lui	a4,0x2a94
    982c:	b117071b          	addiw	a4,a4,-1263
    9830:	0736                	slli	a4,a4,0xd
    9832:	15170713          	addi	a4,a4,337 # 2a94151 <_end+0x2a74451>
    9836:	0732                	slli	a4,a4,0xc
    9838:	95d70713          	addi	a4,a4,-1699
    983c:	0732                	slli	a4,a4,0xc
    983e:	ce270713          	addi	a4,a4,-798
    9842:	53fd                	li	t2,-1
    9844:	024983b3          	mul	t2,s3,tp
    9848:	024983b3          	mul	t2,s3,tp
    984c:	e0a2071b          	addiw	a4,tp,-502
    9850:	02e548bb          	divw	a7,a0,a4
    9854:	40a2073b          	subw	a4,tp,a0
    9858:	036d78b3          	remu	a7,s10,s6
    985c:	0001                	nop
    985e:	00fb073b          	addw	a4,s6,a5
    9862:	02e548bb          	divw	a7,a0,a4
    9866:	024983b3          	mul	t2,s3,tp
    986a:	02e548bb          	divw	a7,a0,a4
    986e:	404b09b3          	sub	s3,s6,tp
    9872:	0277853b          	mulw	a0,a5,t2
    9876:	5d328d37          	lui	s10,0x5d328
    987a:	02454d33          	div	s10,a0,tp
    987e:	0316663b          	remw	a2,a2,a7
    9882:	0001                	nop
    9884:	02e9ab33          	mulhsu	s6,s3,a4
    9888:	01350b33          	add	s6,a0,s3
    988c:	0277853b          	mulw	a0,a5,t2
    9890:	02e557b3          	divu	a5,a0,a4
    9894:	02e557b3          	divu	a5,a0,a4
    9898:	024983b3          	mul	t2,s3,tp
    989c:	02454d33          	div	s10,a0,tp
    98a0:	13ad0213          	addi	tp,s10,314 # 5d32813a <_end+0x5d30843a>
    98a4:	00e1d23b          	srlw	tp,gp,a4
    98a8:	9ead                	addw	a3,a3,a1
    98aa:	54f6a993          	slti	s3,a3,1359
    98ae:	004e5ab3          	srl	s5,t3,tp
    98b2:	0001                	nop
    98b4:	717d                	addi	sp,sp,-16
    98b6:	01a37233          	and	tp,t1,s10
    98ba:	987d                	andi	s0,s0,-1
    98bc:	02c78bb3          	mul	s7,a5,a2
    98c0:	9abbcc93          	xori	s9,s7,-1621
    98c4:	317d                	addiw	sp,sp,-1
    98c6:	317d                	addiw	sp,sp,-1
    98c8:	029d29b3          	mulhsu	s3,s10,s1
    98cc:	717d                	addi	sp,sp,-16
    98ce:	090e                	slli	s2,s2,0x3
    98d0:	8ec9                	or	a3,a3,a0
    98d2:	01320b3b          	addw	s6,tp,s3
    98d6:	00f164b3          	or	s1,sp,a5
    98da:	02e189bb          	mulw	s3,gp,a4
    98de:	01f099b3          	sll	s3,ra,t6
    98e2:	02dadfb3          	divu	t6,s5,a3
    98e6:	961a                	add	a2,a2,t1
    98e8:	dfa53c93          	sltiu	s9,a0,-518
    98ec:	8d3d                	xor	a0,a0,a5
    98ee:	9ead                	addw	a3,a3,a1
    98f0:	02c78bb3          	mul	s7,a5,a2
    98f4:	0001                	nop
    98f6:	00f31f9b          	slliw	t6,t1,0xf
    98fa:	037f9333          	mulh	t1,t6,s7
    98fe:	00fed41b          	srliw	s0,t4,0xf
    9902:	0313633b          	remw	t1,t1,a7
    9906:	01f099b3          	sll	s3,ra,t6
    990a:	02dadfb3          	divu	t6,s5,a3
    990e:	54f6a993          	slti	s3,a3,1359
    9912:	03e0c033          	div	zero,ra,t5
    9916:	0001                	nop
    9918:	090e                	slli	s2,s2,0x3
    991a:	039f7a3b          	remuw	s4,t5,s9
    991e:	029d29b3          	mulhsu	s3,s10,s1
    9922:	029d29b3          	mulhsu	s3,s10,s1
    9926:	717d                	addi	sp,sp,-16
    9928:	317d                	addiw	sp,sp,-1
    992a:	40dad233          	sra	tp,s5,a3
    992e:	e0a1059b          	addiw	a1,sp,-502
    9932:	717d                	addi	sp,sp,-16
    9934:	00f164b3          	or	s1,sp,a5
    9938:	01f099b3          	sll	s3,ra,t6
    993c:	961a                	add	a2,a2,t1
    993e:	03509613          	slli	a2,ra,0x35
    9942:	01a3ba33          	sltu	s4,t2,s10
    9946:	8d01                	sub	a0,a0,s0
    9948:	00f31f9b          	slliw	t6,t1,0xf
    994c:	9c8d                	subw	s1,s1,a1
    994e:	02c78bb3          	mul	s7,a5,a2
    9952:	8439                	srai	s0,s0,0xe
    9954:	6eed                	lui	t4,0x1b
    9956:	317d                	addiw	sp,sp,-1
    9958:	02dadfb3          	divu	t6,s5,a3
    995c:	40675113          	srai	sp,a4,0x6
    9960:	6eed                	lui	t4,0x1b
    9962:	e9c89317          	auipc	t1,0xe9c89
    9966:	e0a1059b          	addiw	a1,sp,-502
    996a:	0313633b          	remw	t1,t1,a7
    996e:	8d01                	sub	a0,a0,s0
    9970:	41c7043b          	subw	s0,a4,t3
    9974:	dfa53c93          	sltiu	s9,a0,-518
    9978:	016a92bb          	sllw	t0,s5,s6
    997c:	41d98233          	sub	tp,s3,t4
    9980:	02e189bb          	mulw	s3,gp,a4
    9984:	0001                	nop
    9986:	8d01                	sub	a0,a0,s0
    9988:	40675113          	srai	sp,a4,0x6
    998c:	38057713          	andi	a4,a0,896
    9990:	987d                	andi	s0,s0,-1
    9992:	033fd793          	srli	a5,t6,0x33
    9996:	01a3ba33          	sltu	s4,t2,s10
    999a:	8439                	srai	s0,s0,0xe
    999c:	987d                	andi	s0,s0,-1
    999e:	0398d53b          	divuw	a0,a7,s9
    99a2:	42686493          	ori	s1,a6,1062
    99a6:	02e8b633          	mulhu	a2,a7,a4
    99aa:	9abbcc93          	xori	s9,s7,-1621
    99ae:	9c8d                	subw	s1,s1,a1
    99b0:	02dadfb3          	divu	t6,s5,a3
    99b4:	8ec9                	or	a3,a3,a0
    99b6:	961a                	add	a2,a2,t1
    99b8:	00f164b3          	or	s1,sp,a5
    99bc:	01a37233          	and	tp,t1,s10
    99c0:	88d2                	mv	a7,s4
    99c2:	41c7043b          	subw	s0,a4,t3
    99c6:	02e964b3          	rem	s1,s2,a4
    99ca:	40865a1b          	sraiw	s4,a2,0x8
    99ce:	039f7a3b          	remuw	s4,t5,s9
    99d2:	0a04                	addi	s1,sp,272
    99d4:	8d01                	sub	a0,a0,s0
    99d6:	8ef1                	and	a3,a3,a2
    99d8:	317d                	addiw	sp,sp,-1
    99da:	02e964b3          	rem	s1,s2,a4
    99de:	0001                	nop
    99e0:	0313633b          	remw	t1,t1,a7
    99e4:	1f7d                	addi	t5,t5,-1
    99e6:	6eed                	lui	t4,0x1b
    99e8:	8ec9                	or	a3,a3,a0
    99ea:	0398d53b          	divuw	a0,a7,s9
    99ee:	004e5ab3          	srl	s5,t3,tp
    99f2:	8ec9                	or	a3,a3,a0
    99f4:	8d01                	sub	a0,a0,s0
    99f6:	88d2                	mv	a7,s4
    99f8:	8439                	srai	s0,s0,0xe
    99fa:	037f9333          	mulh	t1,t6,s7
    99fe:	6eed                	lui	t4,0x1b
    9a00:	01a37233          	and	tp,t1,s10
    9a04:	008643b3          	xor	t2,a2,s0
    9a08:	00f164b3          	or	s1,sp,a5
    9a0c:	9abbcc93          	xori	s9,s7,-1621
    9a10:	6eed                	lui	t4,0x1b
    9a12:	40675113          	srai	sp,a4,0x6
    9a16:	03e0c033          	div	zero,ra,t5
    9a1a:	01182a33          	slt	s4,a6,a7
    9a1e:	8439                	srai	s0,s0,0xe
    9a20:	9c8d                	subw	s1,s1,a1
    9a22:	02e8b633          	mulhu	a2,a7,a4
    9a26:	00f31f9b          	slliw	t6,t1,0xf
    9a2a:	4048dcbb          	sraw	s9,a7,tp
    9a2e:	00f48133          	add	sp,s1,a5
    9a32:	987d                	andi	s0,s0,-1
    9a34:	00f31f9b          	slliw	t6,t1,0xf
    9a38:	02817933          	remu	s2,sp,s0
    9a3c:	03509613          	slli	a2,ra,0x35
    9a40:	01a3ba33          	sltu	s4,t2,s10
    9a44:	40675113          	srai	sp,a4,0x6
    9a48:	8ec9                	or	a3,a3,a0
    9a4a:	9ead                	addw	a3,a3,a1
    9a4c:	016a92bb          	sllw	t0,s5,s6
    9a50:	8439                	srai	s0,s0,0xe
    9a52:	037f9333          	mulh	t1,t6,s7
    9a56:	02f24d3b          	divw	s10,tp,a5
    9a5a:	02e964b3          	rem	s1,s2,a4
    9a5e:	40865a1b          	sraiw	s4,a2,0x8
    9a62:	5d328737          	lui	a4,0x5d328
    9a66:	0001                	nop
    9a68:	987d                	andi	s0,s0,-1
    9a6a:	6eed                	lui	t4,0x1b
    9a6c:	0313633b          	remw	t1,t1,a7
    9a70:	0398d53b          	divuw	a0,a7,s9
    9a74:	42686493          	ori	s1,a6,1062
    9a78:	dfa53c93          	sltiu	s9,a0,-518
    9a7c:	03e0c033          	div	zero,ra,t5
    9a80:	e9c89317          	auipc	t1,0xe9c89
    9a84:	40dad233          	sra	tp,s5,a3
    9a88:	9c8d                	subw	s1,s1,a1
    9a8a:	13ad0213          	addi	tp,s10,314
    9a8e:	033fd793          	srli	a5,t6,0x33
    9a92:	0313633b          	remw	t1,t1,a7
    9a96:	00e1d23b          	srlw	tp,gp,a4
    9a9a:	02dadfb3          	divu	t6,s5,a3
    9a9e:	88d2                	mv	a7,s4
    9aa0:	01f099b3          	sll	s3,ra,t6
    9aa4:	8ef1                	and	a3,a3,a2
    9aa6:	00f164b3          	or	s1,sp,a5
    9aaa:	01320b3b          	addw	s6,tp,s3
    9aae:	e9c89317          	auipc	t1,0xe9c89
    9ab2:	02e964b3          	rem	s1,s2,a4
    9ab6:	00e1d23b          	srlw	tp,gp,a4
    9aba:	01f099b3          	sll	s3,ra,t6
    9abe:	02e964b3          	rem	s1,s2,a4
    9ac2:	0001                	nop
    9ac4:	13ad0213          	addi	tp,s10,314
    9ac8:	00e1d23b          	srlw	tp,gp,a4
    9acc:	004e5ab3          	srl	s5,t3,tp
    9ad0:	01320b3b          	addw	s6,tp,s3
    9ad4:	41d98233          	sub	tp,s3,t4
    9ad8:	03509613          	slli	a2,ra,0x35
    9adc:	00fed41b          	srliw	s0,t4,0xf
    9ae0:	51fd                	li	gp,-1
    9ae2:	02c78bb3          	mul	s7,a5,a2
    9ae6:	02e189bb          	mulw	s3,gp,a4
    9aea:	00f48133          	add	sp,s1,a5
    9aee:	029d29b3          	mulhsu	s3,s10,s1
    9af2:	41d98233          	sub	tp,s3,t4
    9af6:	88d2                	mv	a7,s4
    9af8:	029d29b3          	mulhsu	s3,s10,s1
    9afc:	e9c89317          	auipc	t1,0xe9c89
    9b00:	961a                	add	a2,a2,t1
    9b02:	8d01                	sub	a0,a0,s0
    9b04:	01320b3b          	addw	s6,tp,s3
    9b08:	317d                	addiw	sp,sp,-1
    9b0a:	02e189bb          	mulw	s3,gp,a4
    9b0e:	42686493          	ori	s1,a6,1062
    9b12:	9c8d                	subw	s1,s1,a1
    9b14:	41d98233          	sub	tp,s3,t4
    9b18:	0001                	nop
    9b1a:	0398d53b          	divuw	a0,a7,s9
    9b1e:	00f164b3          	or	s1,sp,a5
    9b22:	717d                	addi	sp,sp,-16
    9b24:	987d                	andi	s0,s0,-1
    9b26:	6eed                	lui	t4,0x1b
    9b28:	00fed41b          	srliw	s0,t4,0xf
    9b2c:	039f7a3b          	remuw	s4,t5,s9
    9b30:	00f164b3          	or	s1,sp,a5
    9b34:	13ad0213          	addi	tp,s10,314
    9b38:	02e964b3          	rem	s1,s2,a4
    9b3c:	004e5ab3          	srl	s5,t3,tp
    9b40:	02f24d3b          	divw	s10,tp,a5
    9b44:	01f099b3          	sll	s3,ra,t6
    9b48:	8d01                	sub	a0,a0,s0
    9b4a:	88d2                	mv	a7,s4
    9b4c:	03509613          	slli	a2,ra,0x35
    9b50:	987d                	andi	s0,s0,-1
    9b52:	8d3d                	xor	a0,a0,a5
    9b54:	40865a1b          	sraiw	s4,a2,0x8
    9b58:	01a3ba33          	sltu	s4,t2,s10
    9b5c:	02817933          	remu	s2,sp,s0
    9b60:	01a37233          	and	tp,t1,s10
    9b64:	6eed                	lui	t4,0x1b
    9b66:	00f31f9b          	slliw	t6,t1,0xf
    9b6a:	0001                	nop
    9b6c:	00e1d23b          	srlw	tp,gp,a4
    9b70:	54f6a993          	slti	s3,a3,1359
    9b74:	8ef1                	and	a3,a3,a2
    9b76:	9abbcc93          	xori	s9,s7,-1621
    9b7a:	01320b3b          	addw	s6,tp,s3
    9b7e:	02c78bb3          	mul	s7,a5,a2
    9b82:	008643b3          	xor	t2,a2,s0
    9b86:	8ef1                	and	a3,a3,a2
    9b88:	03e0c033          	div	zero,ra,t5
    9b8c:	9c8d                	subw	s1,s1,a1
    9b8e:	961a                	add	a2,a2,t1
    9b90:	51fd                	li	gp,-1
    9b92:	008643b3          	xor	t2,a2,s0
    9b96:	9ead                	addw	a3,a3,a1
    9b98:	9c8d                	subw	s1,s1,a1
    9b9a:	8ef1                	and	a3,a3,a2
    9b9c:	4048dcbb          	sraw	s9,a7,tp
    9ba0:	0001                	nop
    9ba2:	02dadfb3          	divu	t6,s5,a3
    9ba6:	40675113          	srai	sp,a4,0x6
    9baa:	016a92bb          	sllw	t0,s5,s6
    9bae:	dfa53c93          	sltiu	s9,a0,-518
    9bb2:	00fed41b          	srliw	s0,t4,0xf
    9bb6:	987d                	andi	s0,s0,-1
    9bb8:	41d98233          	sub	tp,s3,t4
    9bbc:	029d29b3          	mulhsu	s3,s10,s1
    9bc0:	004e5ab3          	srl	s5,t3,tp
    9bc4:	88d2                	mv	a7,s4
    9bc6:	090e                	slli	s2,s2,0x3
    9bc8:	033fd793          	srli	a5,t6,0x33
    9bcc:	00f31f9b          	slliw	t6,t1,0xf
    9bd0:	0398d53b          	divuw	a0,a7,s9
    9bd4:	8ef1                	and	a3,a3,a2
    9bd6:	8ef1                	and	a3,a3,a2
    9bd8:	02f24d3b          	divw	s10,tp,a5
    9bdc:	9abbcc93          	xori	s9,s7,-1621
    9be0:	40865a1b          	sraiw	s4,a2,0x8
    9be4:	00e1d23b          	srlw	tp,gp,a4
    9be8:	8d01                	sub	a0,a0,s0
    9bea:	03509613          	slli	a2,ra,0x35
    9bee:	e0a1059b          	addiw	a1,sp,-502
    9bf2:	8ec9                	or	a3,a3,a0
    9bf4:	8439                	srai	s0,s0,0xe
    9bf6:	40865a1b          	sraiw	s4,a2,0x8
    9bfa:	090e                	slli	s2,s2,0x3
    9bfc:	fff0069b          	addiw	a3,zero,-1
    9c00:	16fe                	slli	a3,a3,0x3f
    9c02:	5f7d                	li	t5,-1
    9c04:	5a7d                	li	s4,-1
    9c06:	537d                	li	t1,-1
    9c08:	52fd                	li	t0,-1
    9c0a:	5d7d                	li	s10,-1
    9c0c:	fff0079b          	addiw	a5,zero,-1
    9c10:	17fe                	slli	a5,a5,0x3f
    9c12:	0293ceb7          	lui	t4,0x293c
    9c16:	cd5e8e9b          	addiw	t4,t4,-811
    9c1a:	0eb2                	slli	t4,t4,0xc
    9c1c:	2dfe8e93          	addi	t4,t4,735 # 293c2df <_end+0x291c5df>
    9c20:	0eb2                	slli	t4,t4,0xc
    9c22:	dede8e93          	addi	t4,t4,-531
    9c26:	0eb6                	slli	t4,t4,0xd
    9c28:	be1e8e93          	addi	t4,t4,-1055
    9c2c:	567d                	li	a2,-1
    9c2e:	6431                	lui	s0,0xc
    9c30:	4f54041b          	addiw	s0,s0,1269
    9c34:	044e                	slli	s0,s0,0x13
    9c36:	63b40413          	addi	s0,s0,1595 # c63b <kernel_instr_end+0x59f>
    9c3a:	0432                	slli	s0,s0,0xc
    9c3c:	45d40413          	addi	s0,s0,1117
    9c40:	0432                	slli	s0,s0,0xc
    9c42:	a4a40413          	addi	s0,s0,-1462
    9c46:	414a0333          	sub	t1,s4,s4
    9c4a:	00fd033b          	addw	t1,s10,a5
    9c4e:	02c63633          	mulhu	a2,a2,a2
    9c52:	03aa76b3          	remu	a3,s4,s10
    9c56:	0001                	nop
    9c58:	414a0333          	sub	t1,s4,s4
    9c5c:	5d328d37          	lui	s10,0x5d328
    9c60:	13aa0a13          	addi	s4,s4,314
    9c64:	40c407bb          	subw	a5,s0,a2
    9c68:	03e61633          	mulh	a2,a2,t5
    9c6c:	028d6f33          	rem	t5,s10,s0
    9c70:	00fd033b          	addw	t1,s10,a5
    9c74:	03e657b3          	divu	a5,a2,t5
    9c78:	13aa0a13          	addi	s4,s4,314
    9c7c:	9a1a                	add	s4,s4,t1
    9c7e:	00fd033b          	addw	t1,s10,a5
    9c82:	03e61633          	mulh	a2,a2,t5
    9c86:	00fd033b          	addw	t1,s10,a5
    9c8a:	40c407bb          	subw	a5,s0,a2
    9c8e:	40c407bb          	subw	a5,s0,a2
    9c92:	028d6f33          	rem	t5,s10,s0
    9c96:	03e61633          	mulh	a2,a2,t5
    9c9a:	41c7043b          	subw	s0,a4,t3
    9c9e:	e0a1059b          	addiw	a1,sp,-502
    9ca2:	5d328737          	lui	a4,0x5d328
    9ca6:	8d3d                	xor	a0,a0,a5
    9ca8:	38057713          	andi	a4,a0,896
    9cac:	0001                	nop
    9cae:	004e5ab3          	srl	s5,t3,tp
    9cb2:	8439                	srai	s0,s0,0xe
    9cb4:	0a04                	addi	s1,sp,272
    9cb6:	41d98233          	sub	tp,s3,t4
    9cba:	41c7043b          	subw	s0,a4,t3
    9cbe:	40dad233          	sra	tp,s5,a3
    9cc2:	090e                	slli	s2,s2,0x3
    9cc4:	808d                	srli	s1,s1,0x3
    9cc6:	0398d53b          	divuw	a0,a7,s9
    9cca:	01f099b3          	sll	s3,ra,t6
    9cce:	e0a1059b          	addiw	a1,sp,-502
    9cd2:	037f9333          	mulh	t1,t6,s7
    9cd6:	8ef1                	and	a3,a3,a2
    9cd8:	0313633b          	remw	t1,t1,a7
    9cdc:	42686493          	ori	s1,a6,1062
    9ce0:	961a                	add	a2,a2,t1
    9ce2:	987d                	andi	s0,s0,-1
    9ce4:	40dad233          	sra	tp,s5,a3
    9ce8:	987d                	andi	s0,s0,-1
    9cea:	01a37233          	and	tp,t1,s10
    9cee:	008643b3          	xor	t2,a2,s0
    9cf2:	987d                	andi	s0,s0,-1
    9cf4:	5d328737          	lui	a4,0x5d328
    9cf8:	004e5ab3          	srl	s5,t3,tp
    9cfc:	00f48133          	add	sp,s1,a5
    9d00:	8d3d                	xor	a0,a0,a5
    9d02:	004e5ab3          	srl	s5,t3,tp
    9d06:	987d                	andi	s0,s0,-1
    9d08:	02c78bb3          	mul	s7,a5,a2
    9d0c:	5d328737          	lui	a4,0x5d328
    9d10:	41d98233          	sub	tp,s3,t4
    9d14:	03509613          	slli	a2,ra,0x35
    9d18:	13ad0213          	addi	tp,s10,314 # 5d32813a <_end+0x5d30843a>
    9d1c:	02e189bb          	mulw	s3,gp,a4
    9d20:	88d2                	mv	a7,s4
    9d22:	808d                	srli	s1,s1,0x3
    9d24:	004e5ab3          	srl	s5,t3,tp
    9d28:	8d3d                	xor	a0,a0,a5
    9d2a:	38057713          	andi	a4,a0,896
    9d2e:	dfa53c93          	sltiu	s9,a0,-518
    9d32:	033fd793          	srli	a5,t6,0x33
    9d36:	01182a33          	slt	s4,a6,a7
    9d3a:	41d98233          	sub	tp,s3,t4
    9d3e:	02817933          	remu	s2,sp,s0
    9d42:	090e                	slli	s2,s2,0x3
    9d44:	039f7a3b          	remuw	s4,t5,s9
    9d48:	961a                	add	a2,a2,t1
    9d4a:	090e                	slli	s2,s2,0x3
    9d4c:	5d328737          	lui	a4,0x5d328
    9d50:	40675113          	srai	sp,a4,0x6
    9d54:	717d                	addi	sp,sp,-16
    9d56:	40dad233          	sra	tp,s5,a3
    9d5a:	01320b3b          	addw	s6,tp,s3
    9d5e:	004e5ab3          	srl	s5,t3,tp
    9d62:	987d                	andi	s0,s0,-1
    9d64:	8ec9                	or	a3,a3,a0
    9d66:	8439                	srai	s0,s0,0xe
    9d68:	0398d53b          	divuw	a0,a7,s9
    9d6c:	02e8b633          	mulhu	a2,a7,a4
    9d70:	02e8b633          	mulhu	a2,a7,a4
    9d74:	029d29b3          	mulhsu	s3,s10,s1
    9d78:	38057713          	andi	a4,a0,896
    9d7c:	02e8b633          	mulhu	a2,a7,a4
    9d80:	8ef1                	and	a3,a3,a2
    9d82:	9abbcc93          	xori	s9,s7,-1621
    9d86:	039f7a3b          	remuw	s4,t5,s9
    9d8a:	029d29b3          	mulhsu	s3,s10,s1
    9d8e:	03e0c033          	div	zero,ra,t5
    9d92:	e0a1059b          	addiw	a1,sp,-502
    9d96:	037f9333          	mulh	t1,t6,s7
    9d9a:	13ad0213          	addi	tp,s10,314
    9d9e:	03509613          	slli	a2,ra,0x35
    9da2:	02e8b633          	mulhu	a2,a7,a4
    9da6:	717d                	addi	sp,sp,-16
    9da8:	02817933          	remu	s2,sp,s0
    9dac:	033fd793          	srli	a5,t6,0x33
    9db0:	0313633b          	remw	t1,t1,a7
    9db4:	0a04                	addi	s1,sp,272
    9db6:	317d                	addiw	sp,sp,-1
    9db8:	961a                	add	a2,a2,t1
    9dba:	dfa53c93          	sltiu	s9,a0,-518
    9dbe:	51fd                	li	gp,-1
    9dc0:	e0a1059b          	addiw	a1,sp,-502
    9dc4:	54f6a993          	slti	s3,a3,1359
    9dc8:	13ad0213          	addi	tp,s10,314
    9dcc:	0001                	nop
    9dce:	8ef1                	and	a3,a3,a2
    9dd0:	02c78bb3          	mul	s7,a5,a2
    9dd4:	40675113          	srai	sp,a4,0x6
    9dd8:	51fd                	li	gp,-1
    9dda:	717d                	addi	sp,sp,-16
    9ddc:	961a                	add	a2,a2,t1
    9dde:	02dadfb3          	divu	t6,s5,a3
    9de2:	e9c89317          	auipc	t1,0xe9c89
    9de6:	016a92bb          	sllw	t0,s5,s6
    9dea:	40dad233          	sra	tp,s5,a3
    9dee:	9c8d                	subw	s1,s1,a1
    9df0:	40675113          	srai	sp,a4,0x6
    9df4:	9abbcc93          	xori	s9,s7,-1621
    9df8:	41c7043b          	subw	s0,a4,t3
    9dfc:	01f099b3          	sll	s3,ra,t6
    9e00:	40dad233          	sra	tp,s5,a3
    9e04:	317d                	addiw	sp,sp,-1
    9e06:	dfa53c93          	sltiu	s9,a0,-518
    9e0a:	0001                	nop
    9e0c:	717d                	addi	sp,sp,-16
    9e0e:	40dad233          	sra	tp,s5,a3
    9e12:	0001                	nop
    9e14:	987d                	andi	s0,s0,-1
    9e16:	0001                	nop
    9e18:	033fd793          	srli	a5,t6,0x33
    9e1c:	0001                	nop
    9e1e:	00e1d23b          	srlw	tp,gp,a4
    9e22:	02e189bb          	mulw	s3,gp,a4
    9e26:	9c8d                	subw	s1,s1,a1
    9e28:	004e5ab3          	srl	s5,t3,tp
    9e2c:	40865a1b          	sraiw	s4,a2,0x8
    9e30:	02e964b3          	rem	s1,s2,a4
    9e34:	e0a1059b          	addiw	a1,sp,-502
    9e38:	dfa53c93          	sltiu	s9,a0,-518
    9e3c:	8d3d                	xor	a0,a0,a5
    9e3e:	8d3d                	xor	a0,a0,a5
    9e40:	54f6a993          	slti	s3,a3,1359
    9e44:	02dadfb3          	divu	t6,s5,a3
    9e48:	6eed                	lui	t4,0x1b
    9e4a:	808d                	srli	s1,s1,0x3
    9e4c:	9ead                	addw	a3,a3,a1
    9e4e:	40865a1b          	sraiw	s4,a2,0x8
    9e52:	5d328737          	lui	a4,0x5d328
    9e56:	51fd                	li	gp,-1
    9e58:	40675113          	srai	sp,a4,0x6
    9e5c:	41d98233          	sub	tp,s3,t4
    9e60:	9abbcc93          	xori	s9,s7,-1621
    9e64:	961a                	add	a2,a2,t1
    9e66:	13ad0213          	addi	tp,s10,314
    9e6a:	02e964b3          	rem	s1,s2,a4
    9e6e:	00fed41b          	srliw	s0,t4,0xf
    9e72:	1f7d                	addi	t5,t5,-1
    9e74:	037f9333          	mulh	t1,t6,s7
    9e78:	40865a1b          	sraiw	s4,a2,0x8
    9e7c:	0398d53b          	divuw	a0,a7,s9
    9e80:	037f9333          	mulh	t1,t6,s7
    9e84:	317d                	addiw	sp,sp,-1
    9e86:	8ef1                	and	a3,a3,a2
    9e88:	01a3ba33          	sltu	s4,t2,s10
    9e8c:	4048dcbb          	sraw	s9,a7,tp
    9e90:	02c78bb3          	mul	s7,a5,a2
    9e94:	40dad233          	sra	tp,s5,a3
    9e98:	e9c89317          	auipc	t1,0xe9c89
    9e9c:	00f164b3          	or	s1,sp,a5
    9ea0:	42686493          	ori	s1,a6,1062
    9ea4:	02817933          	remu	s2,sp,s0
    9ea8:	8d3d                	xor	a0,a0,a5
    9eaa:	dfa53c93          	sltiu	s9,a0,-518
    9eae:	02e189bb          	mulw	s3,gp,a4
    9eb2:	4048dcbb          	sraw	s9,a7,tp
    9eb6:	00e1d23b          	srlw	tp,gp,a4
    9eba:	5d328737          	lui	a4,0x5d328
    9ebe:	0001                	nop
    9ec0:	8d01                	sub	a0,a0,s0
    9ec2:	02e964b3          	rem	s1,s2,a4
    9ec6:	987d                	andi	s0,s0,-1
    9ec8:	e9c89317          	auipc	t1,0xe9c89
    9ecc:	5d328737          	lui	a4,0x5d328
    9ed0:	38057713          	andi	a4,a0,896
    9ed4:	008643b3          	xor	t2,a2,s0
    9ed8:	01f099b3          	sll	s3,ra,t6
    9edc:	004e5ab3          	srl	s5,t3,tp
    9ee0:	9c8d                	subw	s1,s1,a1
    9ee2:	4048dcbb          	sraw	s9,a7,tp
    9ee6:	02e8b633          	mulhu	a2,a7,a4
    9eea:	8d3d                	xor	a0,a0,a5
    9eec:	02817933          	remu	s2,sp,s0
    9ef0:	0001                	nop
    9ef2:	8ef1                	and	a3,a3,a2
    9ef4:	54f6a993          	slti	s3,a3,1359
    9ef8:	41c7043b          	subw	s0,a4,t3
    9efc:	03e0c033          	div	zero,ra,t5
    9f00:	02e189bb          	mulw	s3,gp,a4
    9f04:	1f7d                	addi	t5,t5,-1
    9f06:	9ead                	addw	a3,a3,a1
    9f08:	51fd                	li	gp,-1
    9f0a:	987d                	andi	s0,s0,-1
    9f0c:	02e8b633          	mulhu	a2,a7,a4
    9f10:	4048dcbb          	sraw	s9,a7,tp
    9f14:	02817933          	remu	s2,sp,s0
    9f18:	13ad0213          	addi	tp,s10,314
    9f1c:	51fd                	li	gp,-1
    9f1e:	40dad233          	sra	tp,s5,a3
    9f22:	033fd793          	srli	a5,t6,0x33
    9f26:	54f6a993          	slti	s3,a3,1359
    9f2a:	0001                	nop
    9f2c:	02dadfb3          	divu	t6,s5,a3
    9f30:	02e189bb          	mulw	s3,gp,a4
    9f34:	0a04                	addi	s1,sp,272
    9f36:	03509613          	slli	a2,ra,0x35
    9f3a:	0001                	nop
    9f3c:	40865a1b          	sraiw	s4,a2,0x8
    9f40:	808d                	srli	s1,s1,0x3
    9f42:	02f24d3b          	divw	s10,tp,a5
    9f46:	0001                	nop
    9f48:	01182a33          	slt	s4,a6,a7
    9f4c:	13ad0213          	addi	tp,s10,314
    9f50:	8d01                	sub	a0,a0,s0
    9f52:	987d                	andi	s0,s0,-1
    9f54:	008643b3          	xor	t2,a2,s0
    9f58:	0001                	nop
    9f5a:	03e0c033          	div	zero,ra,t5
    9f5e:	03509613          	slli	a2,ra,0x35
    9f62:	9ead                	addw	a3,a3,a1
    9f64:	e9c89317          	auipc	t1,0xe9c89
    9f68:	13ad0213          	addi	tp,s10,314
    9f6c:	0001                	nop
    9f6e:	02c78bb3          	mul	s7,a5,a2
    9f72:	987d                	andi	s0,s0,-1
    9f74:	02dadfb3          	divu	t6,s5,a3
    9f78:	00f164b3          	or	s1,sp,a5
    9f7c:	dfa53c93          	sltiu	s9,a0,-518
    9f80:	039f7a3b          	remuw	s4,t5,s9
    9f84:	037f9333          	mulh	t1,t6,s7
    9f88:	01320b3b          	addw	s6,tp,s3
    9f8c:	4048dcbb          	sraw	s9,a7,tp
    9f90:	9abbcc93          	xori	s9,s7,-1621
    9f94:	317d                	addiw	sp,sp,-1
    9f96:	02c78bb3          	mul	s7,a5,a2
    9f9a:	01a3ba33          	sltu	s4,t2,s10
    9f9e:	00fed41b          	srliw	s0,t4,0xf
    9fa2:	090e                	slli	s2,s2,0x3
    9fa4:	02e8b633          	mulhu	a2,a7,a4
    9fa8:	4048dcbb          	sraw	s9,a7,tp
    9fac:	008643b3          	xor	t2,a2,s0
    9fb0:	00f48133          	add	sp,s1,a5
    9fb4:	40865a1b          	sraiw	s4,a2,0x8
    9fb8:	51fd                	li	gp,-1
    9fba:	00e1d23b          	srlw	tp,gp,a4
    9fbe:	033fd793          	srli	a5,t6,0x33
    9fc2:	8ec9                	or	a3,a3,a0
    9fc4:	039f7a3b          	remuw	s4,t5,s9
    9fc8:	03e0c033          	div	zero,ra,t5
    9fcc:	8d3d                	xor	a0,a0,a5
    9fce:	02817933          	remu	s2,sp,s0
    9fd2:	01a37233          	and	tp,t1,s10
    9fd6:	008643b3          	xor	t2,a2,s0
    9fda:	961a                	add	a2,a2,t1
    9fdc:	02dadfb3          	divu	t6,s5,a3
    9fe0:	717d                	addi	sp,sp,-16
    9fe2:	8ef1                	and	a3,a3,a2
    9fe4:	00e1d23b          	srlw	tp,gp,a4
    9fe8:	01f099b3          	sll	s3,ra,t6
    9fec:	40865a1b          	sraiw	s4,a2,0x8
    9ff0:	02c78bb3          	mul	s7,a5,a2
    9ff4:	01a3ba33          	sltu	s4,t2,s10
    9ff8:	961a                	add	a2,a2,t1
    9ffa:	0001                	nop
    9ffc:	dfa53c93          	sltiu	s9,a0,-518
    a000:	0313633b          	remw	t1,t1,a7
    a004:	0001                	nop
    a006:	40dad233          	sra	tp,s5,a3
    a00a:	03509613          	slli	a2,ra,0x35
    a00e:	0313633b          	remw	t1,t1,a7
    a012:	40865a1b          	sraiw	s4,a2,0x8
    a016:	717d                	addi	sp,sp,-16
    a018:	004e5ab3          	srl	s5,t3,tp
    a01c:	40865a1b          	sraiw	s4,a2,0x8
    a020:	016a92bb          	sllw	t0,s5,s6
    a024:	317d                	addiw	sp,sp,-1
    a026:	808d                	srli	s1,s1,0x3
    a028:	51fd                	li	gp,-1
    a02a:	88d2                	mv	a7,s4
    a02c:	03509613          	slli	a2,ra,0x35
    a030:	8d3d                	xor	a0,a0,a5
    a032:	00f31f9b          	slliw	t6,t1,0xf
    a036:	01a3ba33          	sltu	s4,t2,s10
    a03a:	037f9333          	mulh	t1,t6,s7
    a03e:	41d98233          	sub	tp,s3,t4
    a042:	0313633b          	remw	t1,t1,a7
    a046:	38057713          	andi	a4,a0,896
    a04a:	016a92bb          	sllw	t0,s5,s6
    a04e:	016a92bb          	sllw	t0,s5,s6
    a052:	e9c89317          	auipc	t1,0xe9c89
    a056:	8d3d                	xor	a0,a0,a5
    a058:	1f7d                	addi	t5,t5,-1
    a05a:	00f164b3          	or	s1,sp,a5
    a05e:	808d                	srli	s1,s1,0x3
    a060:	51fd                	li	gp,-1
    a062:	004e5ab3          	srl	s5,t3,tp
    a066:	0a04                	addi	s1,sp,272
    a068:	13ad0213          	addi	tp,s10,314
    a06c:	02f24d3b          	divw	s10,tp,a5
    a070:	02e8b633          	mulhu	a2,a7,a4
    a074:	029d29b3          	mulhsu	s3,s10,s1
    a078:	0398d53b          	divuw	a0,a7,s9
    a07c:	0001                	nop
    a07e:	00fed41b          	srliw	s0,t4,0xf
    a082:	01f099b3          	sll	s3,ra,t6
    a086:	717d                	addi	sp,sp,-16
    a088:	01a37233          	and	tp,t1,s10
    a08c:	54f6a993          	slti	s3,a3,1359
    a090:	02e189bb          	mulw	s3,gp,a4
    a094:	004e5ab3          	srl	s5,t3,tp
    a098:	00f48133          	add	sp,s1,a5
    a09c:	fff00d9b          	addiw	s11,zero,-1
    a0a0:	1dfe                	slli	s11,s11,0x3f
    a0a2:	5f7d                	li	t5,-1
    a0a4:	fff00d1b          	addiw	s10,zero,-1
    a0a8:	1d7e                	slli	s10,s10,0x3f
    a0aa:	fff0089b          	addiw	a7,zero,-1
    a0ae:	18fe                	slli	a7,a7,0x3f
    a0b0:	ffbdd237          	lui	tp,0xffbdd
    a0b4:	b032021b          	addiw	tp,tp,-1277
    a0b8:	0232                	slli	tp,tp,0xc
    a0ba:	2cf20213          	addi	tp,tp,719 # ffffffffffbdd2cf <_end+0xffffffffffbbd5cf>
    a0be:	0242                	slli	tp,tp,0x10
    a0c0:	b8520213          	addi	tp,tp,-1147 # fffffffffffffb85 <_end+0xfffffffffffdfe85>
    a0c4:	0232                	slli	tp,tp,0xc
    a0c6:	1d620213          	addi	tp,tp,470 # 1d6 <mmode_intr_vector_1+0x94>
    a0ca:	4e81                	li	t4,0
    a0cc:	001313b7          	lui	t2,0x131
    a0d0:	e9d3839b          	addiw	t2,t2,-355
    a0d4:	03b2                	slli	t2,t2,0xc
    a0d6:	4a338393          	addi	t2,t2,1187 # 1314a3 <_end+0x1117a3>
    a0da:	03b6                	slli	t2,t2,0xd
    a0dc:	2bb38393          	addi	t2,t2,699
    a0e0:	03be                	slli	t2,t2,0xf
    a0e2:	e1138393          	addi	t2,t2,-495
    a0e6:	fff0031b          	addiw	t1,zero,-1
    a0ea:	137e                	slli	t1,t1,0x3f
    a0ec:	57fd                	li	a5,-1
    a0ee:	4281                	li	t0,0
    a0f0:	03b278bb          	remuw	a7,tp,s11
    a0f4:	41b20ebb          	subw	t4,tp,s11
    a0f8:	031d4d33          	div	s10,s10,a7
    a0fc:	5d328d37          	lui	s10,0x5d328
    a100:	03eeb233          	mulhu	tp,t4,t5
    a104:	e0a8829b          	addiw	t0,a7,-502
    a108:	03e28333          	mul	t1,t0,t5
    a10c:	027783bb          	mulw	t2,a5,t2
    a110:	025353bb          	divuw	t2,t1,t0
    a114:	027783bb          	mulw	t2,a5,t2
    a118:	027ed7b3          	divu	a5,t4,t2
    a11c:	41b20ebb          	subw	t4,tp,s11
    a120:	00fd0dbb          	addw	s11,s10,a5
    a124:	024d67bb          	remw	a5,s10,tp
    a128:	e9c89317          	auipc	t1,0xe9c89
    a12c:	027ed7b3          	divu	a5,t4,t2
    a130:	8ef1                	and	a3,a3,a2
    a132:	02e964b3          	rem	s1,s2,a4
    a136:	51fd                	li	gp,-1
    a138:	9abbcc93          	xori	s9,s7,-1621
    a13c:	00f164b3          	or	s1,sp,a5
    a140:	38057713          	andi	a4,a0,896
    a144:	0001                	nop
    a146:	00f31f9b          	slliw	t6,t1,0xf
    a14a:	0398d53b          	divuw	a0,a7,s9
    a14e:	8d01                	sub	a0,a0,s0
    a150:	0001                	nop
    a152:	039f7a3b          	remuw	s4,t5,s9
    a156:	01182a33          	slt	s4,a6,a7
    a15a:	00e1d23b          	srlw	tp,gp,a4
    a15e:	01320b3b          	addw	s6,tp,s3
    a162:	02e189bb          	mulw	s3,gp,a4
    a166:	01f099b3          	sll	s3,ra,t6
    a16a:	9abbcc93          	xori	s9,s7,-1621
    a16e:	88d2                	mv	a7,s4
    a170:	54f6a993          	slti	s3,a3,1359
    a174:	0398d53b          	divuw	a0,a7,s9
    a178:	0001                	nop
    a17a:	38057713          	andi	a4,a0,896
    a17e:	5d328737          	lui	a4,0x5d328
    a182:	090e                	slli	s2,s2,0x3
    a184:	987d                	andi	s0,s0,-1
    a186:	03e0c033          	div	zero,ra,t5
    a18a:	02e964b3          	rem	s1,s2,a4
    a18e:	987d                	andi	s0,s0,-1
    a190:	00fed41b          	srliw	s0,t4,0xf
    a194:	01a3ba33          	sltu	s4,t2,s10
    a198:	987d                	andi	s0,s0,-1
    a19a:	8d3d                	xor	a0,a0,a5
    a19c:	40dad233          	sra	tp,s5,a3
    a1a0:	01f099b3          	sll	s3,ra,t6
    a1a4:	54f6a993          	slti	s3,a3,1359
    a1a8:	01182a33          	slt	s4,a6,a7
    a1ac:	0398d53b          	divuw	a0,a7,s9
    a1b0:	9abbcc93          	xori	s9,s7,-1621
    a1b4:	03e0c033          	div	zero,ra,t5
    a1b8:	00f48133          	add	sp,s1,a5
    a1bc:	1f7d                	addi	t5,t5,-1
    a1be:	dfa53c93          	sltiu	s9,a0,-518
    a1c2:	01f099b3          	sll	s3,ra,t6
    a1c6:	987d                	andi	s0,s0,-1
    a1c8:	02e964b3          	rem	s1,s2,a4
    a1cc:	0001                	nop
    a1ce:	02c78bb3          	mul	s7,a5,a2
    a1d2:	8ec9                	or	a3,a3,a0
    a1d4:	961a                	add	a2,a2,t1
    a1d6:	0001                	nop
    a1d8:	008643b3          	xor	t2,a2,s0
    a1dc:	40675113          	srai	sp,a4,0x6
    a1e0:	01182a33          	slt	s4,a6,a7
    a1e4:	40dad233          	sra	tp,s5,a3
    a1e8:	008643b3          	xor	t2,a2,s0
    a1ec:	51fd                	li	gp,-1
    a1ee:	0001                	nop
    a1f0:	40dad233          	sra	tp,s5,a3
    a1f4:	54f6a993          	slti	s3,a3,1359
    a1f8:	00e1d23b          	srlw	tp,gp,a4
    a1fc:	e9c89317          	auipc	t1,0xe9c89
    a200:	033fd793          	srli	a5,t6,0x33
    a204:	0a04                	addi	s1,sp,272
    a206:	01320b3b          	addw	s6,tp,s3
    a20a:	033fd793          	srli	a5,t6,0x33
    a20e:	01f099b3          	sll	s3,ra,t6
    a212:	1f7d                	addi	t5,t5,-1
    a214:	037f9333          	mulh	t1,t6,s7
    a218:	02817933          	remu	s2,sp,s0
    a21c:	0313633b          	remw	t1,t1,a7
    a220:	38057713          	andi	a4,a0,896
    a224:	4048dcbb          	sraw	s9,a7,tp
    a228:	40dad233          	sra	tp,s5,a3
    a22c:	008643b3          	xor	t2,a2,s0
    a230:	1f7d                	addi	t5,t5,-1
    a232:	dfa53c93          	sltiu	s9,a0,-518
    a236:	9c8d                	subw	s1,s1,a1
    a238:	00f48133          	add	sp,s1,a5
    a23c:	02e8b633          	mulhu	a2,a7,a4
    a240:	13ad0213          	addi	tp,s10,314 # 5d32813a <_end+0x5d30843a>
    a244:	02817933          	remu	s2,sp,s0
    a248:	008643b3          	xor	t2,a2,s0
    a24c:	00f48133          	add	sp,s1,a5
    a250:	6eed                	lui	t4,0x1b
    a252:	0398d53b          	divuw	a0,a7,s9
    a256:	8ec9                	or	a3,a3,a0
    a258:	717d                	addi	sp,sp,-16
    a25a:	8ec9                	or	a3,a3,a0
    a25c:	6eed                	lui	t4,0x1b
    a25e:	00f48133          	add	sp,s1,a5
    a262:	01320b3b          	addw	s6,tp,s3
    a266:	02e964b3          	rem	s1,s2,a4
    a26a:	40675113          	srai	sp,a4,0x6
    a26e:	42686493          	ori	s1,a6,1062
    a272:	0313633b          	remw	t1,t1,a7
    a276:	0313633b          	remw	t1,t1,a7
    a27a:	037f9333          	mulh	t1,t6,s7
    a27e:	5d328737          	lui	a4,0x5d328
    a282:	987d                	andi	s0,s0,-1
    a284:	51fd                	li	gp,-1
    a286:	9abbcc93          	xori	s9,s7,-1621
    a28a:	00fed41b          	srliw	s0,t4,0xf
    a28e:	039f7a3b          	remuw	s4,t5,s9
    a292:	0001                	nop
    a294:	e9c89317          	auipc	t1,0xe9c89
    a298:	e0a1059b          	addiw	a1,sp,-502
    a29c:	41d98233          	sub	tp,s3,t4
    a2a0:	42686493          	ori	s1,a6,1062
    a2a4:	e9c89317          	auipc	t1,0xe9c89
    a2a8:	8d3d                	xor	a0,a0,a5
    a2aa:	317d                	addiw	sp,sp,-1
    a2ac:	317d                	addiw	sp,sp,-1
    a2ae:	40865a1b          	sraiw	s4,a2,0x8
    a2b2:	00f164b3          	or	s1,sp,a5
    a2b6:	02dadfb3          	divu	t6,s5,a3
    a2ba:	dfa53c93          	sltiu	s9,a0,-518
    a2be:	01182a33          	slt	s4,a6,a7
    a2c2:	dfa53c93          	sltiu	s9,a0,-518
    a2c6:	9c8d                	subw	s1,s1,a1
    a2c8:	0001                	nop
    a2ca:	42686493          	ori	s1,a6,1062
    a2ce:	6eed                	lui	t4,0x1b
    a2d0:	029d29b3          	mulhsu	s3,s10,s1
    a2d4:	00f48133          	add	sp,s1,a5
    a2d8:	41c7043b          	subw	s0,a4,t3
    a2dc:	8ef1                	and	a3,a3,a2
    a2de:	9abbcc93          	xori	s9,s7,-1621
    a2e2:	02e8b633          	mulhu	a2,a7,a4
    a2e6:	4048dcbb          	sraw	s9,a7,tp
    a2ea:	090e                	slli	s2,s2,0x3
    a2ec:	8d3d                	xor	a0,a0,a5
    a2ee:	02e8b633          	mulhu	a2,a7,a4
    a2f2:	88d2                	mv	a7,s4
    a2f4:	5d328737          	lui	a4,0x5d328
    a2f8:	0a04                	addi	s1,sp,272
    a2fa:	961a                	add	a2,a2,t1
    a2fc:	8439                	srai	s0,s0,0xe
    a2fe:	0001                	nop
    a300:	13ad0213          	addi	tp,s10,314
    a304:	40dad233          	sra	tp,s5,a3
    a308:	40dad233          	sra	tp,s5,a3
    a30c:	808d                	srli	s1,s1,0x3
    a30e:	02f24d3b          	divw	s10,tp,a5
    a312:	8ef1                	and	a3,a3,a2
    a314:	8d3d                	xor	a0,a0,a5
    a316:	01182a33          	slt	s4,a6,a7
    a31a:	037f9333          	mulh	t1,t6,s7
    a31e:	0a04                	addi	s1,sp,272
    a320:	01320b3b          	addw	s6,tp,s3
    a324:	38057713          	andi	a4,a0,896
    a328:	41d98233          	sub	tp,s3,t4
    a32c:	8d01                	sub	a0,a0,s0
    a32e:	02c78bb3          	mul	s7,a5,a2
    a332:	9abbcc93          	xori	s9,s7,-1621
    a336:	039f7a3b          	remuw	s4,t5,s9
    a33a:	02e8b633          	mulhu	a2,a7,a4
    a33e:	dfa53c93          	sltiu	s9,a0,-518
    a342:	40675113          	srai	sp,a4,0x6
    a346:	e0a1059b          	addiw	a1,sp,-502
    a34a:	42686493          	ori	s1,a6,1062
    a34e:	8d01                	sub	a0,a0,s0
    a350:	8d01                	sub	a0,a0,s0
    a352:	9abbcc93          	xori	s9,s7,-1621
    a356:	13ad0213          	addi	tp,s10,314
    a35a:	090e                	slli	s2,s2,0x3
    a35c:	0313633b          	remw	t1,t1,a7
    a360:	00e1d23b          	srlw	tp,gp,a4
    a364:	0a04                	addi	s1,sp,272
    a366:	40dad233          	sra	tp,s5,a3
    a36a:	dfa53c93          	sltiu	s9,a0,-518
    a36e:	6eed                	lui	t4,0x1b
    a370:	02e8b633          	mulhu	a2,a7,a4
    a374:	037f9333          	mulh	t1,t6,s7
    a378:	0001                	nop
    a37a:	9ead                	addw	a3,a3,a1
    a37c:	0398d53b          	divuw	a0,a7,s9
    a380:	01a37233          	and	tp,t1,s10
    a384:	01a37233          	and	tp,t1,s10
    a388:	8439                	srai	s0,s0,0xe
    a38a:	016a92bb          	sllw	t0,s5,s6
    a38e:	037f9333          	mulh	t1,t6,s7
    a392:	40865a1b          	sraiw	s4,a2,0x8
    a396:	02817933          	remu	s2,sp,s0
    a39a:	02e8b633          	mulhu	a2,a7,a4
    a39e:	037f9333          	mulh	t1,t6,s7
    a3a2:	0001                	nop
    a3a4:	016a92bb          	sllw	t0,s5,s6
    a3a8:	41d98233          	sub	tp,s3,t4
    a3ac:	029d29b3          	mulhsu	s3,s10,s1
    a3b0:	9c8d                	subw	s1,s1,a1
    a3b2:	8d3d                	xor	a0,a0,a5
    a3b4:	02dadfb3          	divu	t6,s5,a3
    a3b8:	8ec9                	or	a3,a3,a0
    a3ba:	016a92bb          	sllw	t0,s5,s6
    a3be:	8d01                	sub	a0,a0,s0
    a3c0:	8ec9                	or	a3,a3,a0
    a3c2:	01320b3b          	addw	s6,tp,s3
    a3c6:	e0a1059b          	addiw	a1,sp,-502
    a3ca:	02e8b633          	mulhu	a2,a7,a4
    a3ce:	40675113          	srai	sp,a4,0x6
    a3d2:	55fd                	li	a1,-1
    a3d4:	fff00b1b          	addiw	s6,zero,-1
    a3d8:	1b7e                	slli	s6,s6,0x3f
    a3da:	567d                	li	a2,-1
    a3dc:	4d01                	li	s10,0
    a3de:	fff0089b          	addiw	a7,zero,-1
    a3e2:	18fe                	slli	a7,a7,0x3f
    a3e4:	4301                	li	t1,0
    a3e6:	fff00f1b          	addiw	t5,zero,-1
    a3ea:	1f7e                	slli	t5,t5,0x3f
    a3ec:	4b81                	li	s7,0
    a3ee:	4201                	li	tp,0
    a3f0:	4701                	li	a4,0
    a3f2:	9db9                	addw	a1,a1,a4
    a3f4:	02c37733          	remu	a4,t1,a2
    a3f8:	5d328f37          	lui	t5,0x5d328
    a3fc:	037b5bb3          	divu	s7,s6,s7
    a400:	016f0d33          	add	s10,t5,s6
    a404:	024f6233          	rem	tp,t5,tp
    a408:	02c37733          	remu	a4,t1,a2
    a40c:	02664633          	div	a2,a2,t1
    a410:	0001                	nop
    a412:	0315a233          	mulhsu	tp,a1,a7
    a416:	03123733          	mulhu	a4,tp,a7
    a41a:	e0a70b9b          	addiw	s7,a4,-502
    a41e:	03e608b3          	mul	a7,a2,t5
    a422:	0315a233          	mulhsu	tp,a1,a7
    a426:	e9c89b17          	auipc	s6,0xe9c89
    a42a:	e9c89b17          	auipc	s6,0xe9c89
    a42e:	02c37733          	remu	a4,t1,a2
    a432:	9db9                	addw	a1,a1,a4
    a434:	016f0d33          	add	s10,t5,s6
    a438:	024f6233          	rem	tp,t5,tp
    a43c:	024d65bb          	remw	a1,s10,tp
    a440:	024d65bb          	remw	a1,s10,tp
    a444:	031f4f3b          	divw	t5,t5,a7
    a448:	033fd793          	srli	a5,t6,0x33
    a44c:	54f6a993          	slti	s3,a3,1359
    a450:	e0a1059b          	addiw	a1,sp,-502
    a454:	037f9333          	mulh	t1,t6,s7
    a458:	4048dcbb          	sraw	s9,a7,tp
    a45c:	13ad0213          	addi	tp,s10,314
    a460:	0001                	nop
    a462:	40675113          	srai	sp,a4,0x6
    a466:	4048dcbb          	sraw	s9,a7,tp
    a46a:	00fed41b          	srliw	s0,t4,0xf
    a46e:	40865a1b          	sraiw	s4,a2,0x8
    a472:	00f48133          	add	sp,s1,a5
    a476:	0398d53b          	divuw	a0,a7,s9
    a47a:	039f7a3b          	remuw	s4,t5,s9
    a47e:	13ad0213          	addi	tp,s10,314
    a482:	0313633b          	remw	t1,t1,a7
    a486:	01182a33          	slt	s4,a6,a7
    a48a:	8d3d                	xor	a0,a0,a5
    a48c:	037f9333          	mulh	t1,t6,s7
    a490:	0001                	nop
    a492:	8d3d                	xor	a0,a0,a5
    a494:	961a                	add	a2,a2,t1
    a496:	01182a33          	slt	s4,a6,a7
    a49a:	38057713          	andi	a4,a0,896
    a49e:	01f099b3          	sll	s3,ra,t6
    a4a2:	0001                	nop
    a4a4:	8d01                	sub	a0,a0,s0
    a4a6:	54f6a993          	slti	s3,a3,1359
    a4aa:	42686493          	ori	s1,a6,1062
    a4ae:	54f6a993          	slti	s3,a3,1359
    a4b2:	037f9333          	mulh	t1,t6,s7
    a4b6:	317d                	addiw	sp,sp,-1
    a4b8:	00fed41b          	srliw	s0,t4,0xf
    a4bc:	e9c89317          	auipc	t1,0xe9c89
    a4c0:	40dad233          	sra	tp,s5,a3
    a4c4:	1f7d                	addi	t5,t5,-1
    a4c6:	88d2                	mv	a7,s4
    a4c8:	0001                	nop
    a4ca:	02e189bb          	mulw	s3,gp,a4
    a4ce:	8439                	srai	s0,s0,0xe
    a4d0:	8ef1                	and	a3,a3,a2
    a4d2:	029d29b3          	mulhsu	s3,s10,s1
    a4d6:	5d328737          	lui	a4,0x5d328
    a4da:	51fd                	li	gp,-1
    a4dc:	00f31f9b          	slliw	t6,t1,0xf
    a4e0:	51fd                	li	gp,-1
    a4e2:	8ec9                	or	a3,a3,a0
    a4e4:	6eed                	lui	t4,0x1b
    a4e6:	02c78bb3          	mul	s7,a5,a2
    a4ea:	00fed41b          	srliw	s0,t4,0xf
    a4ee:	13ad0213          	addi	tp,s10,314
    a4f2:	090e                	slli	s2,s2,0x3
    a4f4:	88d2                	mv	a7,s4
    a4f6:	0398d53b          	divuw	a0,a7,s9
    a4fa:	8ec9                	or	a3,a3,a0
    a4fc:	8d01                	sub	a0,a0,s0
    a4fe:	8439                	srai	s0,s0,0xe
    a500:	42686493          	ori	s1,a6,1062
    a504:	8d3d                	xor	a0,a0,a5
    a506:	01182a33          	slt	s4,a6,a7
    a50a:	004e5ab3          	srl	s5,t3,tp
    a50e:	029d29b3          	mulhsu	s3,s10,s1
    a512:	8439                	srai	s0,s0,0xe
    a514:	090e                	slli	s2,s2,0x3
    a516:	039f7a3b          	remuw	s4,t5,s9
    a51a:	e0a1059b          	addiw	a1,sp,-502
    a51e:	02dadfb3          	divu	t6,s5,a3
    a522:	0001                	nop
    a524:	03509613          	slli	a2,ra,0x35
    a528:	e0a1059b          	addiw	a1,sp,-502
    a52c:	00fed41b          	srliw	s0,t4,0xf
    a530:	51fd                	li	gp,-1
    a532:	13ad0213          	addi	tp,s10,314
    a536:	5d328737          	lui	a4,0x5d328
    a53a:	6eed                	lui	t4,0x1b
    a53c:	9ead                	addw	a3,a3,a1
    a53e:	0001                	nop
    a540:	40675113          	srai	sp,a4,0x6
    a544:	0313633b          	remw	t1,t1,a7
    a548:	02e964b3          	rem	s1,s2,a4
    a54c:	01320b3b          	addw	s6,tp,s3
    a550:	51fd                	li	gp,-1
    a552:	033fd793          	srli	a5,t6,0x33
    a556:	02817933          	remu	s2,sp,s0
    a55a:	008643b3          	xor	t2,a2,s0
    a55e:	0001                	nop
    a560:	008643b3          	xor	t2,a2,s0
    a564:	e0a1059b          	addiw	a1,sp,-502
    a568:	0313633b          	remw	t1,t1,a7
    a56c:	090e                	slli	s2,s2,0x3
    a56e:	0313633b          	remw	t1,t1,a7
    a572:	6eed                	lui	t4,0x1b
    a574:	0398d53b          	divuw	a0,a7,s9
    a578:	02817933          	remu	s2,sp,s0
    a57c:	40dad233          	sra	tp,s5,a3
    a580:	808d                	srli	s1,s1,0x3
    a582:	02c78bb3          	mul	s7,a5,a2
    a586:	02dadfb3          	divu	t6,s5,a3
    a58a:	717d                	addi	sp,sp,-16
    a58c:	02e189bb          	mulw	s3,gp,a4
    a590:	13ad0213          	addi	tp,s10,314
    a594:	e0a1059b          	addiw	a1,sp,-502
    a598:	38057713          	andi	a4,a0,896
    a59c:	8d3d                	xor	a0,a0,a5
    a59e:	41d98233          	sub	tp,s3,t4
    a5a2:	037f9333          	mulh	t1,t6,s7
    a5a6:	0398d53b          	divuw	a0,a7,s9
    a5aa:	037f9333          	mulh	t1,t6,s7
    a5ae:	5d328737          	lui	a4,0x5d328
    a5b2:	03e0c033          	div	zero,ra,t5
    a5b6:	4048dcbb          	sraw	s9,a7,tp
    a5ba:	02f24d3b          	divw	s10,tp,a5
    a5be:	9ead                	addw	a3,a3,a1
    a5c0:	033fd793          	srli	a5,t6,0x33
    a5c4:	9c8d                	subw	s1,s1,a1
    a5c6:	033fd793          	srli	a5,t6,0x33
    a5ca:	0398d53b          	divuw	a0,a7,s9
    a5ce:	00e1d23b          	srlw	tp,gp,a4
    a5d2:	00f164b3          	or	s1,sp,a5
    a5d6:	00f31f9b          	slliw	t6,t1,0xf
    a5da:	004e5ab3          	srl	s5,t3,tp
    a5de:	8439                	srai	s0,s0,0xe
    a5e0:	1f7d                	addi	t5,t5,-1
    a5e2:	41c7043b          	subw	s0,a4,t3
    a5e6:	808d                	srli	s1,s1,0x3
    a5e8:	9ead                	addw	a3,a3,a1
    a5ea:	40dad233          	sra	tp,s5,a3
    a5ee:	5d328737          	lui	a4,0x5d328
    a5f2:	0001                	nop
    a5f4:	0313633b          	remw	t1,t1,a7
    a5f8:	01a37233          	and	tp,t1,s10
    a5fc:	0001                	nop
    a5fe:	51fd                	li	gp,-1
    a600:	dfa53c93          	sltiu	s9,a0,-518
    a604:	88d2                	mv	a7,s4
    a606:	6eed                	lui	t4,0x1b
    a608:	4048dcbb          	sraw	s9,a7,tp
    a60c:	037f9333          	mulh	t1,t6,s7
    a610:	987d                	andi	s0,s0,-1
    a612:	03509613          	slli	a2,ra,0x35
    a616:	03509613          	slli	a2,ra,0x35
    a61a:	037f9333          	mulh	t1,t6,s7
    a61e:	40675113          	srai	sp,a4,0x6
    a622:	02e964b3          	rem	s1,s2,a4
    a626:	004e5ab3          	srl	s5,t3,tp
    a62a:	dfa53c93          	sltiu	s9,a0,-518
    a62e:	e0a1059b          	addiw	a1,sp,-502
    a632:	41c7043b          	subw	s0,a4,t3
    a636:	0001                	nop
    a638:	00f48133          	add	sp,s1,a5
    a63c:	00f31f9b          	slliw	t6,t1,0xf
    a640:	01182a33          	slt	s4,a6,a7
    a644:	033fd793          	srli	a5,t6,0x33
    a648:	029d29b3          	mulhsu	s3,s10,s1
    a64c:	0001                	nop
    a64e:	029d29b3          	mulhsu	s3,s10,s1
    a652:	0001                	nop
    a654:	01182a33          	slt	s4,a6,a7
    a658:	02c78bb3          	mul	s7,a5,a2
    a65c:	01a3ba33          	sltu	s4,t2,s10
    a660:	9ead                	addw	a3,a3,a1
    a662:	02817933          	remu	s2,sp,s0
    a666:	e9c89317          	auipc	t1,0xe9c89
    a66a:	01182a33          	slt	s4,a6,a7
    a66e:	40865a1b          	sraiw	s4,a2,0x8
    a672:	02e964b3          	rem	s1,s2,a4
    a676:	008643b3          	xor	t2,a2,s0
    a67a:	039f7a3b          	remuw	s4,t5,s9
    a67e:	03509613          	slli	a2,ra,0x35
    a682:	008643b3          	xor	t2,a2,s0
    a686:	dfa53c93          	sltiu	s9,a0,-518
    a68a:	037f9333          	mulh	t1,t6,s7
    a68e:	9ead                	addw	a3,a3,a1
    a690:	0398d53b          	divuw	a0,a7,s9
    a694:	090e                	slli	s2,s2,0x3
    a696:	8d3d                	xor	a0,a0,a5
    a698:	717d                	addi	sp,sp,-16
    a69a:	40675113          	srai	sp,a4,0x6
    a69e:	01320b3b          	addw	s6,tp,s3
    a6a2:	317d                	addiw	sp,sp,-1
    a6a4:	42686493          	ori	s1,a6,1062
    a6a8:	9ead                	addw	a3,a3,a1
    a6aa:	961a                	add	a2,a2,t1
    a6ac:	9ead                	addw	a3,a3,a1
    a6ae:	0313633b          	remw	t1,t1,a7
    a6b2:	02c78bb3          	mul	s7,a5,a2
    a6b6:	9abbcc93          	xori	s9,s7,-1621
    a6ba:	8d01                	sub	a0,a0,s0
    a6bc:	dfa53c93          	sltiu	s9,a0,-518
    a6c0:	961a                	add	a2,a2,t1
    a6c2:	01182a33          	slt	s4,a6,a7
    a6c6:	40dad233          	sra	tp,s5,a3
    a6ca:	0a04                	addi	s1,sp,272
    a6cc:	008643b3          	xor	t2,a2,s0
    a6d0:	8ef1                	and	a3,a3,a2
    a6d2:	40675113          	srai	sp,a4,0x6
    a6d6:	dfa53c93          	sltiu	s9,a0,-518
    a6da:	41c7043b          	subw	s0,a4,t3
    a6de:	02dadfb3          	divu	t6,s5,a3
    a6e2:	40865a1b          	sraiw	s4,a2,0x8
    a6e6:	8ec9                	or	a3,a3,a0
    a6e8:	02817933          	remu	s2,sp,s0
    a6ec:	008643b3          	xor	t2,a2,s0
    a6f0:	03509613          	slli	a2,ra,0x35
    a6f4:	0a04                	addi	s1,sp,272
    a6f6:	02e189bb          	mulw	s3,gp,a4
    a6fa:	01a37233          	and	tp,t1,s10
    a6fe:	0313633b          	remw	t1,t1,a7
    a702:	e0a1059b          	addiw	a1,sp,-502
    a706:	8d3d                	xor	a0,a0,a5
    a708:	8ec9                	or	a3,a3,a0
    a70a:	00f31f9b          	slliw	t6,t1,0xf
    a70e:	317d                	addiw	sp,sp,-1
    a710:	8439                	srai	s0,s0,0xe
    a712:	0001                	nop
    a714:	00f31f9b          	slliw	t6,t1,0xf
    a718:	51fd                	li	gp,-1
    a71a:	9c8d                	subw	s1,s1,a1
    a71c:	00fed41b          	srliw	s0,t4,0xf
    a720:	00f31f9b          	slliw	t6,t1,0xf
    a724:	13ad0213          	addi	tp,s10,314
    a728:	41c7043b          	subw	s0,a4,t3
    a72c:	40865a1b          	sraiw	s4,a2,0x8
    a730:	40865a1b          	sraiw	s4,a2,0x8
    a734:	037f9333          	mulh	t1,t6,s7
    a738:	0001                	nop
    a73a:	03509613          	slli	a2,ra,0x35
    a73e:	40865a1b          	sraiw	s4,a2,0x8
    a742:	090e                	slli	s2,s2,0x3
    a744:	03509613          	slli	a2,ra,0x35
    a748:	039f7a3b          	remuw	s4,t5,s9
    a74c:	00fed41b          	srliw	s0,t4,0xf
    a750:	033fd793          	srli	a5,t6,0x33
    a754:	42686493          	ori	s1,a6,1062
    a758:	6eed                	lui	t4,0x1b
    a75a:	51fd                	li	gp,-1
    a75c:	6eed                	lui	t4,0x1b
    a75e:	01a37233          	and	tp,t1,s10
    a762:	01f099b3          	sll	s3,ra,t6
    a766:	8d3d                	xor	a0,a0,a5
    a768:	8ef1                	and	a3,a3,a2
    a76a:	00e1d23b          	srlw	tp,gp,a4
    a76e:	317d                	addiw	sp,sp,-1
    a770:	0001                	nop
    a772:	717d                	addi	sp,sp,-16
    a774:	00f48133          	add	sp,s1,a5
    a778:	02817933          	remu	s2,sp,s0
    a77c:	717d                	addi	sp,sp,-16
    a77e:	0398d53b          	divuw	a0,a7,s9
    a782:	8439                	srai	s0,s0,0xe
    a784:	02817933          	remu	s2,sp,s0
    a788:	00f48133          	add	sp,s1,a5
    a78c:	037f9333          	mulh	t1,t6,s7
    a790:	808d                	srli	s1,s1,0x3
    a792:	8ec9                	or	a3,a3,a0
    a794:	9ead                	addw	a3,a3,a1
    a796:	00e1d23b          	srlw	tp,gp,a4
    a79a:	039f7a3b          	remuw	s4,t5,s9
    a79e:	0a04                	addi	s1,sp,272
    a7a0:	987d                	andi	s0,s0,-1
    a7a2:	004e5ab3          	srl	s5,t3,tp
    a7a6:	029d29b3          	mulhsu	s3,s10,s1
    a7aa:	00f48133          	add	sp,s1,a5
    a7ae:	40dad233          	sra	tp,s5,a3
    a7b2:	02e189bb          	mulw	s3,gp,a4
    a7b6:	e0a1059b          	addiw	a1,sp,-502
    a7ba:	039f7a3b          	remuw	s4,t5,s9
    a7be:	9abbcc93          	xori	s9,s7,-1621
    a7c2:	01f099b3          	sll	s3,ra,t6
    a7c6:	029d29b3          	mulhsu	s3,s10,s1
    a7ca:	dfa53c93          	sltiu	s9,a0,-518
    a7ce:	88d2                	mv	a7,s4
    a7d0:	54f6a993          	slti	s3,a3,1359
    a7d4:	02e189bb          	mulw	s3,gp,a4
    a7d8:	00fed41b          	srliw	s0,t4,0xf
    a7dc:	03509613          	slli	a2,ra,0x35
    a7e0:	8d01                	sub	a0,a0,s0
    a7e2:	0a04                	addi	s1,sp,272
    a7e4:	00f164b3          	or	s1,sp,a5
    a7e8:	54f6a993          	slti	s3,a3,1359
    a7ec:	13ad0213          	addi	tp,s10,314
    a7f0:	029d29b3          	mulhsu	s3,s10,s1
    a7f4:	987d                	andi	s0,s0,-1
    a7f6:	00f164b3          	or	s1,sp,a5
    a7fa:	037f9333          	mulh	t1,t6,s7
    a7fe:	8439                	srai	s0,s0,0xe
    a800:	02e189bb          	mulw	s3,gp,a4
    a804:	1f7d                	addi	t5,t5,-1
    a806:	016a92bb          	sllw	t0,s5,s6
    a80a:	004e5ab3          	srl	s5,t3,tp
    a80e:	008643b3          	xor	t2,a2,s0
    a812:	8ef1                	and	a3,a3,a2
    a814:	0a04                	addi	s1,sp,272
    a816:	e9c89317          	auipc	t1,0xe9c89
    a81a:	01a37233          	and	tp,t1,s10
    a81e:	8d01                	sub	a0,a0,s0
    a820:	02c78bb3          	mul	s7,a5,a2
    a824:	e9c89317          	auipc	t1,0xe9c89
    a828:	41c7043b          	subw	s0,a4,t3
    a82c:	00e1d23b          	srlw	tp,gp,a4
    a830:	8ec9                	or	a3,a3,a0
    a832:	01320b3b          	addw	s6,tp,s3
    a836:	88d2                	mv	a7,s4
    a838:	02f24d3b          	divw	s10,tp,a5
    a83c:	88d2                	mv	a7,s4
    a83e:	02dadfb3          	divu	t6,s5,a3
    a842:	5d328737          	lui	a4,0x5d328
    a846:	42686493          	ori	s1,a6,1062
    a84a:	dfa53c93          	sltiu	s9,a0,-518
    a84e:	317d                	addiw	sp,sp,-1
    a850:	00f31f9b          	slliw	t6,t1,0xf
    a854:	961a                	add	a2,a2,t1
    a856:	01f099b3          	sll	s3,ra,t6
    a85a:	38057713          	andi	a4,a0,896
    a85e:	41c7043b          	subw	s0,a4,t3
    a862:	02e964b3          	rem	s1,s2,a4
    a866:	02e8b633          	mulhu	a2,a7,a4
    a86a:	090e                	slli	s2,s2,0x3
    a86c:	987d                	andi	s0,s0,-1
    a86e:	13ad0213          	addi	tp,s10,314
    a872:	02e964b3          	rem	s1,s2,a4
    a876:	0a04                	addi	s1,sp,272
    a878:	00f164b3          	or	s1,sp,a5
    a87c:	01a37233          	and	tp,t1,s10
    a880:	8ef1                	and	a3,a3,a2
    a882:	0001                	nop
    a884:	02c78bb3          	mul	s7,a5,a2
    a888:	0398d53b          	divuw	a0,a7,s9
    a88c:	38057713          	andi	a4,a0,896
    a890:	51fd                	li	gp,-1
    a892:	8ec9                	or	a3,a3,a0
    a894:	02c78bb3          	mul	s7,a5,a2
    a898:	02e8b633          	mulhu	a2,a7,a4
    a89c:	004e5ab3          	srl	s5,t3,tp
    a8a0:	037f9333          	mulh	t1,t6,s7
    a8a4:	8ef1                	and	a3,a3,a2
    a8a6:	00f48133          	add	sp,s1,a5
    a8aa:	6eed                	lui	t4,0x1b
    a8ac:	4048dcbb          	sraw	s9,a7,tp
    a8b0:	0001                	nop
    a8b2:	51fd                	li	gp,-1
    a8b4:	029d29b3          	mulhsu	s3,s10,s1
    a8b8:	02c78bb3          	mul	s7,a5,a2
    a8bc:	0398d53b          	divuw	a0,a7,s9
    a8c0:	01a3ba33          	sltu	s4,t2,s10
    a8c4:	8439                	srai	s0,s0,0xe
    a8c6:	51fd                	li	gp,-1
    a8c8:	717d                	addi	sp,sp,-16
    a8ca:	41c7043b          	subw	s0,a4,t3
    a8ce:	8d3d                	xor	a0,a0,a5
    a8d0:	0001                	nop
    a8d2:	03e0c033          	div	zero,ra,t5
    a8d6:	40865a1b          	sraiw	s4,a2,0x8
    a8da:	88d2                	mv	a7,s4
    a8dc:	9ead                	addw	a3,a3,a1
    a8de:	029d29b3          	mulhsu	s3,s10,s1
    a8e2:	808d                	srli	s1,s1,0x3
    a8e4:	4048dcbb          	sraw	s9,a7,tp
    a8e8:	01a37233          	and	tp,t1,s10
    a8ec:	4048dcbb          	sraw	s9,a7,tp
    a8f0:	01a3ba33          	sltu	s4,t2,s10
    a8f4:	8439                	srai	s0,s0,0xe
    a8f6:	961a                	add	a2,a2,t1
    a8f8:	01182a33          	slt	s4,a6,a7
    a8fc:	41c7043b          	subw	s0,a4,t3
    a900:	e0a1059b          	addiw	a1,sp,-502
    a904:	40dad233          	sra	tp,s5,a3
    a908:	6eed                	lui	t4,0x1b
    a90a:	01a37233          	and	tp,t1,s10
    a90e:	0001                	nop
    a910:	00f31f9b          	slliw	t6,t1,0xf
    a914:	808d                	srli	s1,s1,0x3
    a916:	9abbcc93          	xori	s9,s7,-1621
    a91a:	00f31f9b          	slliw	t6,t1,0xf
    a91e:	88d2                	mv	a7,s4
    a920:	01182a33          	slt	s4,a6,a7
    a924:	808d                	srli	s1,s1,0x3
    a926:	00e1d23b          	srlw	tp,gp,a4
    a92a:	00e1d23b          	srlw	tp,gp,a4
    a92e:	40dad233          	sra	tp,s5,a3
    a932:	033fd793          	srli	a5,t6,0x33
    a936:	38057713          	andi	a4,a0,896
    a93a:	8d3d                	xor	a0,a0,a5
    a93c:	51fd                	li	gp,-1
    a93e:	02e8b633          	mulhu	a2,a7,a4
    a942:	01a3ba33          	sltu	s4,t2,s10
    a946:	961a                	add	a2,a2,t1
    a948:	03509613          	slli	a2,ra,0x35
    a94c:	e0a1059b          	addiw	a1,sp,-502
    a950:	02e189bb          	mulw	s3,gp,a4
    a954:	01320b3b          	addw	s6,tp,s3
    a958:	037f9333          	mulh	t1,t6,s7
    a95c:	01a3ba33          	sltu	s4,t2,s10
    a960:	88d2                	mv	a7,s4
    a962:	40675113          	srai	sp,a4,0x6
    a966:	8d01                	sub	a0,a0,s0
    a968:	1f7d                	addi	t5,t5,-1
    a96a:	0a04                	addi	s1,sp,272
    a96c:	033fd793          	srli	a5,t6,0x33
    a970:	e9c89317          	auipc	t1,0xe9c89
    a974:	41c7043b          	subw	s0,a4,t3
    a978:	02e964b3          	rem	s1,s2,a4
    a97c:	00f31f9b          	slliw	t6,t1,0xf
    a980:	033fd793          	srli	a5,t6,0x33
    a984:	41c7043b          	subw	s0,a4,t3
    a988:	41c7043b          	subw	s0,a4,t3
    a98c:	5d328737          	lui	a4,0x5d328
    a990:	9ead                	addw	a3,a3,a1
    a992:	0001                	nop
    a994:	41d98233          	sub	tp,s3,t4
    a998:	02c78bb3          	mul	s7,a5,a2
    a99c:	02dadfb3          	divu	t6,s5,a3
    a9a0:	8d3d                	xor	a0,a0,a5
    a9a2:	6eed                	lui	t4,0x1b
    a9a4:	317d                	addiw	sp,sp,-1
    a9a6:	e0a1059b          	addiw	a1,sp,-502
    a9aa:	0001                	nop
    a9ac:	016a92bb          	sllw	t0,s5,s6
    a9b0:	9abbcc93          	xori	s9,s7,-1621
    a9b4:	02817933          	remu	s2,sp,s0
    a9b8:	01f099b3          	sll	s3,ra,t6
    a9bc:	9abbcc93          	xori	s9,s7,-1621
    a9c0:	039f7a3b          	remuw	s4,t5,s9
    a9c4:	717d                	addi	sp,sp,-16
    a9c6:	54f6a993          	slti	s3,a3,1359
    a9ca:	717d                	addi	sp,sp,-16
    a9cc:	004e5ab3          	srl	s5,t3,tp
    a9d0:	01f099b3          	sll	s3,ra,t6
    a9d4:	1f7d                	addi	t5,t5,-1
    a9d6:	38057713          	andi	a4,a0,896
    a9da:	13ad0213          	addi	tp,s10,314
    a9de:	03e0c033          	div	zero,ra,t5
    a9e2:	0313633b          	remw	t1,t1,a7
    a9e6:	5d328737          	lui	a4,0x5d328
    a9ea:	41d98233          	sub	tp,s3,t4
    a9ee:	02e189bb          	mulw	s3,gp,a4
    a9f2:	00fed41b          	srliw	s0,t4,0xf
    a9f6:	03e0c033          	div	zero,ra,t5
    a9fa:	00e1d23b          	srlw	tp,gp,a4
    a9fe:	02e189bb          	mulw	s3,gp,a4
    aa02:	987d                	andi	s0,s0,-1
    aa04:	e9c89317          	auipc	t1,0xe9c89
    aa08:	5d328737          	lui	a4,0x5d328
    aa0c:	e9c89317          	auipc	t1,0xe9c89
    aa10:	41d98233          	sub	tp,s3,t4
    aa14:	dfa53c93          	sltiu	s9,a0,-518
    aa18:	8ef1                	and	a3,a3,a2
    aa1a:	9abbcc93          	xori	s9,s7,-1621
    aa1e:	40675113          	srai	sp,a4,0x6
    aa22:	0001                	nop
    aa24:	016a92bb          	sllw	t0,s5,s6
    aa28:	00f48133          	add	sp,s1,a5
    aa2c:	8d3d                	xor	a0,a0,a5
    aa2e:	0001                	nop
    aa30:	8ec9                	or	a3,a3,a0
    aa32:	8d01                	sub	a0,a0,s0
    aa34:	01182a33          	slt	s4,a6,a7
    aa38:	317d                	addiw	sp,sp,-1
    aa3a:	987d                	andi	s0,s0,-1
    aa3c:	9ead                	addw	a3,a3,a1
    aa3e:	961a                	add	a2,a2,t1
    aa40:	8d3d                	xor	a0,a0,a5
    aa42:	01182a33          	slt	s4,a6,a7
    aa46:	88d2                	mv	a7,s4
    aa48:	42686493          	ori	s1,a6,1062
    aa4c:	008643b3          	xor	t2,a2,s0
    aa50:	00f164b3          	or	s1,sp,a5
    aa54:	40865a1b          	sraiw	s4,a2,0x8
    aa58:	e0a1059b          	addiw	a1,sp,-502
    aa5c:	8439                	srai	s0,s0,0xe
    aa5e:	01320b3b          	addw	s6,tp,s3
    aa62:	0001                	nop
    aa64:	717d                	addi	sp,sp,-16
    aa66:	717d                	addi	sp,sp,-16
    aa68:	033fd793          	srli	a5,t6,0x33
    aa6c:	090e                	slli	s2,s2,0x3
    aa6e:	029d29b3          	mulhsu	s3,s10,s1
    aa72:	02e964b3          	rem	s1,s2,a4
    aa76:	8d01                	sub	a0,a0,s0
    aa78:	03509613          	slli	a2,ra,0x35
    aa7c:	88d2                	mv	a7,s4
    aa7e:	0398d53b          	divuw	a0,a7,s9
    aa82:	8ec9                	or	a3,a3,a0
    aa84:	4048dcbb          	sraw	s9,a7,tp
    aa88:	4048dcbb          	sraw	s9,a7,tp
    aa8c:	01f099b3          	sll	s3,ra,t6
    aa90:	00f164b3          	or	s1,sp,a5
    aa94:	01f099b3          	sll	s3,ra,t6
    aa98:	090e                	slli	s2,s2,0x3
    aa9a:	01320b3b          	addw	s6,tp,s3
    aa9e:	6eed                	lui	t4,0x1b
    aaa0:	03e0c033          	div	zero,ra,t5
    aaa4:	03509613          	slli	a2,ra,0x35
    aaa8:	02dadfb3          	divu	t6,s5,a3
    aaac:	5d328737          	lui	a4,0x5d328
    aab0:	317d                	addiw	sp,sp,-1
    aab2:	0a04                	addi	s1,sp,272
    aab4:	38057713          	andi	a4,a0,896
    aab8:	01a37233          	and	tp,t1,s10
    aabc:	6eed                	lui	t4,0x1b
    aabe:	dfa53c93          	sltiu	s9,a0,-518
    aac2:	717d                	addi	sp,sp,-16
    aac4:	01320b3b          	addw	s6,tp,s3
    aac8:	016a92bb          	sllw	t0,s5,s6
    aacc:	016a92bb          	sllw	t0,s5,s6
    aad0:	40dad233          	sra	tp,s5,a3
    aad4:	9abbcc93          	xori	s9,s7,-1621
    aad8:	dfa53c93          	sltiu	s9,a0,-518
    aadc:	8439                	srai	s0,s0,0xe
    aade:	8d01                	sub	a0,a0,s0
    aae0:	03509613          	slli	a2,ra,0x35
    aae4:	9abbcc93          	xori	s9,s7,-1621
    aae8:	02e8b633          	mulhu	a2,a7,a4
    aaec:	8ec9                	or	a3,a3,a0
    aaee:	8439                	srai	s0,s0,0xe
    aaf0:	317d                	addiw	sp,sp,-1
    aaf2:	033fd793          	srli	a5,t6,0x33
    aaf6:	e9c89317          	auipc	t1,0xe9c89
    aafa:	02817933          	remu	s2,sp,s0
    aafe:	02817933          	remu	s2,sp,s0
    ab02:	9abbcc93          	xori	s9,s7,-1621
    ab06:	0001                	nop
    ab08:	02e189bb          	mulw	s3,gp,a4
    ab0c:	51fd                	li	gp,-1
    ab0e:	8d01                	sub	a0,a0,s0
    ab10:	03509613          	slli	a2,ra,0x35
    ab14:	8439                	srai	s0,s0,0xe
    ab16:	00e1d23b          	srlw	tp,gp,a4
    ab1a:	01182a33          	slt	s4,a6,a7
    ab1e:	00f164b3          	or	s1,sp,a5
    ab22:	02e189bb          	mulw	s3,gp,a4
    ab26:	717d                	addi	sp,sp,-16
    ab28:	0313633b          	remw	t1,t1,a7
    ab2c:	13ad0213          	addi	tp,s10,314
    ab30:	13ad0213          	addi	tp,s10,314
    ab34:	02e8b633          	mulhu	a2,a7,a4
    ab38:	01320b3b          	addw	s6,tp,s3
    ab3c:	8439                	srai	s0,s0,0xe
    ab3e:	88d2                	mv	a7,s4
    ab40:	004e5ab3          	srl	s5,t3,tp
    ab44:	01182a33          	slt	s4,a6,a7
    ab48:	13ad0213          	addi	tp,s10,314
    ab4c:	40865a1b          	sraiw	s4,a2,0x8
    ab50:	42686493          	ori	s1,a6,1062
    ab54:	5d328737          	lui	a4,0x5d328
    ab58:	961a                	add	a2,a2,t1
    ab5a:	016a92bb          	sllw	t0,s5,s6
    ab5e:	01320b3b          	addw	s6,tp,s3
    ab62:	01320b3b          	addw	s6,tp,s3
    ab66:	03509613          	slli	a2,ra,0x35
    ab6a:	38057713          	andi	a4,a0,896
    ab6e:	02e964b3          	rem	s1,s2,a4
    ab72:	38057713          	andi	a4,a0,896
    ab76:	01182a33          	slt	s4,a6,a7
    ab7a:	02817933          	remu	s2,sp,s0
    ab7e:	033fd793          	srli	a5,t6,0x33
    ab82:	9abbcc93          	xori	s9,s7,-1621
    ab86:	41d98233          	sub	tp,s3,t4
    ab8a:	03509613          	slli	a2,ra,0x35
    ab8e:	717d                	addi	sp,sp,-16
    ab90:	00f31f9b          	slliw	t6,t1,0xf
    ab94:	039f7a3b          	remuw	s4,t5,s9
    ab98:	0001                	nop
    ab9a:	0001                	nop
    ab9c:	41d98233          	sub	tp,s3,t4
    aba0:	9abbcc93          	xori	s9,s7,-1621
    aba4:	00f164b3          	or	s1,sp,a5
    aba8:	01f099b3          	sll	s3,ra,t6
    abac:	01182a33          	slt	s4,a6,a7
    abb0:	6eed                	lui	t4,0x1b
    abb2:	42686493          	ori	s1,a6,1062
    abb6:	4048dcbb          	sraw	s9,a7,tp
    abba:	9ead                	addw	a3,a3,a1
    abbc:	8ec9                	or	a3,a3,a0
    abbe:	00fed41b          	srliw	s0,t4,0xf
    abc2:	717d                	addi	sp,sp,-16
    abc4:	02dadfb3          	divu	t6,s5,a3
    abc8:	02e964b3          	rem	s1,s2,a4
    abcc:	00f164b3          	or	s1,sp,a5
    abd0:	00f48133          	add	sp,s1,a5
    abd4:	8d3d                	xor	a0,a0,a5
    abd6:	8ef1                	and	a3,a3,a2
    abd8:	40865a1b          	sraiw	s4,a2,0x8
    abdc:	88d2                	mv	a7,s4
    abde:	02dadfb3          	divu	t6,s5,a3
    abe2:	42686493          	ori	s1,a6,1062
    abe6:	9ead                	addw	a3,a3,a1
    abe8:	5d328737          	lui	a4,0x5d328
    abec:	0313633b          	remw	t1,t1,a7
    abf0:	8ec9                	or	a3,a3,a0
    abf2:	9c8d                	subw	s1,s1,a1
    abf4:	9c8d                	subw	s1,s1,a1
    abf6:	40dad233          	sra	tp,s5,a3
    abfa:	02f24d3b          	divw	s10,tp,a5
    abfe:	8ec9                	or	a3,a3,a0
    ac00:	0313633b          	remw	t1,t1,a7
    ac04:	02f24d3b          	divw	s10,tp,a5
    ac08:	0001                	nop
    ac0a:	02dadfb3          	divu	t6,s5,a3
    ac0e:	9ead                	addw	a3,a3,a1
    ac10:	e0a1059b          	addiw	a1,sp,-502
    ac14:	03509613          	slli	a2,ra,0x35
    ac18:	41d98233          	sub	tp,s3,t4
    ac1c:	8ec9                	or	a3,a3,a0
    ac1e:	961a                	add	a2,a2,t1
    ac20:	4048dcbb          	sraw	s9,a7,tp
    ac24:	40865a1b          	sraiw	s4,a2,0x8
    ac28:	8ef1                	and	a3,a3,a2
    ac2a:	01a3ba33          	sltu	s4,t2,s10
    ac2e:	9ead                	addw	a3,a3,a1
    ac30:	02e189bb          	mulw	s3,gp,a4
    ac34:	41c7043b          	subw	s0,a4,t3
    ac38:	4048dcbb          	sraw	s9,a7,tp
    ac3c:	717d                	addi	sp,sp,-16
    ac3e:	02e189bb          	mulw	s3,gp,a4
    ac42:	0001                	nop
    ac44:	317d                	addiw	sp,sp,-1
    ac46:	01a37233          	and	tp,t1,s10
    ac4a:	02f24d3b          	divw	s10,tp,a5
    ac4e:	8ec9                	or	a3,a3,a0
    ac50:	54f6a993          	slti	s3,a3,1359
    ac54:	0398d53b          	divuw	a0,a7,s9
    ac58:	01320b3b          	addw	s6,tp,s3
    ac5c:	40865a1b          	sraiw	s4,a2,0x8
    ac60:	01f099b3          	sll	s3,ra,t6
    ac64:	02c78bb3          	mul	s7,a5,a2
    ac68:	033fd793          	srli	a5,t6,0x33
    ac6c:	8d01                	sub	a0,a0,s0
    ac6e:	016a92bb          	sllw	t0,s5,s6
    ac72:	01a37233          	and	tp,t1,s10
    ac76:	004e5ab3          	srl	s5,t3,tp
    ac7a:	016a92bb          	sllw	t0,s5,s6
    ac7e:	029d29b3          	mulhsu	s3,s10,s1
    ac82:	54f6a993          	slti	s3,a3,1359
    ac86:	00f48133          	add	sp,s1,a5
    ac8a:	8ec9                	or	a3,a3,a0
    ac8c:	8ec9                	or	a3,a3,a0
    ac8e:	961a                	add	a2,a2,t1
    ac90:	13ad0213          	addi	tp,s10,314
    ac94:	41d98233          	sub	tp,s3,t4
    ac98:	40865a1b          	sraiw	s4,a2,0x8
    ac9c:	41d98233          	sub	tp,s3,t4
    aca0:	00f31f9b          	slliw	t6,t1,0xf
    aca4:	03509613          	slli	a2,ra,0x35
    aca8:	039f7a3b          	remuw	s4,t5,s9
    acac:	0001                	nop
    acae:	01182a33          	slt	s4,a6,a7
    acb2:	029d29b3          	mulhsu	s3,s10,s1
    acb6:	00f164b3          	or	s1,sp,a5
    acba:	38057713          	andi	a4,a0,896
    acbe:	0001                	nop
    acc0:	717d                	addi	sp,sp,-16
    acc2:	5d328737          	lui	a4,0x5d328
    acc6:	717d                	addi	sp,sp,-16
    acc8:	01320b3b          	addw	s6,tp,s3
    accc:	02dadfb3          	divu	t6,s5,a3
    acd0:	40865a1b          	sraiw	s4,a2,0x8
    acd4:	317d                	addiw	sp,sp,-1
    acd6:	8439                	srai	s0,s0,0xe
    acd8:	42686493          	ori	s1,a6,1062
    acdc:	02817933          	remu	s2,sp,s0
    ace0:	88d2                	mv	a7,s4
    ace2:	dfa53c93          	sltiu	s9,a0,-518
    ace6:	00f164b3          	or	s1,sp,a5
    acea:	0a04                	addi	s1,sp,272
    acec:	01f099b3          	sll	s3,ra,t6
    acf0:	8d3d                	xor	a0,a0,a5
    acf2:	9abbcc93          	xori	s9,s7,-1621
    acf6:	01320b3b          	addw	s6,tp,s3
    acfa:	00fed41b          	srliw	s0,t4,0xf
    acfe:	8d01                	sub	a0,a0,s0
    ad00:	02e8b633          	mulhu	a2,a7,a4
    ad04:	54f6a993          	slti	s3,a3,1359
    ad08:	88d2                	mv	a7,s4
    ad0a:	987d                	andi	s0,s0,-1
    ad0c:	5d328737          	lui	a4,0x5d328
    ad10:	01f099b3          	sll	s3,ra,t6
    ad14:	54f6a993          	slti	s3,a3,1359
    ad18:	0001                	nop
    ad1a:	004e5ab3          	srl	s5,t3,tp
    ad1e:	54f6a993          	slti	s3,a3,1359
    ad22:	e9c89317          	auipc	t1,0xe9c89
    ad26:	317d                	addiw	sp,sp,-1
    ad28:	004e5ab3          	srl	s5,t3,tp
    ad2c:	0398d53b          	divuw	a0,a7,s9
    ad30:	01182a33          	slt	s4,a6,a7
    ad34:	987d                	andi	s0,s0,-1
    ad36:	8439                	srai	s0,s0,0xe
    ad38:	02817933          	remu	s2,sp,s0
    ad3c:	e9c89317          	auipc	t1,0xe9c89
    ad40:	51fd                	li	gp,-1
    ad42:	039f7a3b          	remuw	s4,t5,s9
    ad46:	0398d53b          	divuw	a0,a7,s9
    ad4a:	01a37233          	and	tp,t1,s10
    ad4e:	808d                	srli	s1,s1,0x3
    ad50:	02e189bb          	mulw	s3,gp,a4
    ad54:	02c78bb3          	mul	s7,a5,a2
    ad58:	01a3ba33          	sltu	s4,t2,s10
    ad5c:	e9c89317          	auipc	t1,0xe9c89
    ad60:	00e1d23b          	srlw	tp,gp,a4
    ad64:	0001                	nop
    ad66:	01f099b3          	sll	s3,ra,t6
    ad6a:	02e189bb          	mulw	s3,gp,a4
    ad6e:	42686493          	ori	s1,a6,1062
    ad72:	e0a1059b          	addiw	a1,sp,-502
    ad76:	e0a1059b          	addiw	a1,sp,-502
    ad7a:	54f6a993          	slti	s3,a3,1359
    ad7e:	01a37233          	and	tp,t1,s10
    ad82:	8d3d                	xor	a0,a0,a5
    ad84:	9abbcc93          	xori	s9,s7,-1621
    ad88:	01182a33          	slt	s4,a6,a7
    ad8c:	0313633b          	remw	t1,t1,a7
    ad90:	00fed41b          	srliw	s0,t4,0xf
    ad94:	38057713          	andi	a4,a0,896
    ad98:	0313633b          	remw	t1,t1,a7
    ad9c:	42686493          	ori	s1,a6,1062
    ada0:	00f164b3          	or	s1,sp,a5
    ada4:	016a92bb          	sllw	t0,s5,s6
    ada8:	6eed                	lui	t4,0x1b
    adaa:	016a92bb          	sllw	t0,s5,s6
    adae:	00fed41b          	srliw	s0,t4,0xf
    adb2:	41c7043b          	subw	s0,a4,t3
    adb6:	029d29b3          	mulhsu	s3,s10,s1
    adba:	02f24d3b          	divw	s10,tp,a5
    adbe:	02dadfb3          	divu	t6,s5,a3
    adc2:	033fd793          	srli	a5,t6,0x33
    adc6:	8ec9                	or	a3,a3,a0
    adc8:	717d                	addi	sp,sp,-16
    adca:	0001                	nop
    adcc:	037f9333          	mulh	t1,t6,s7
    add0:	02f24d3b          	divw	s10,tp,a5
    add4:	88d2                	mv	a7,s4
    add6:	e0a1059b          	addiw	a1,sp,-502
    adda:	00fed41b          	srliw	s0,t4,0xf
    adde:	9c8d                	subw	s1,s1,a1
    ade0:	4048dcbb          	sraw	s9,a7,tp
    ade4:	004e5ab3          	srl	s5,t3,tp
    ade8:	02f24d3b          	divw	s10,tp,a5
    adec:	03e0c033          	div	zero,ra,t5
    adf0:	e0a1059b          	addiw	a1,sp,-502
    adf4:	4048dcbb          	sraw	s9,a7,tp
    adf8:	8ec9                	or	a3,a3,a0
    adfa:	317d                	addiw	sp,sp,-1
    adfc:	41d98233          	sub	tp,s3,t4
    ae00:	0398d53b          	divuw	a0,a7,s9
    ae04:	40865a1b          	sraiw	s4,a2,0x8
    ae08:	8439                	srai	s0,s0,0xe
    ae0a:	0398d53b          	divuw	a0,a7,s9
    ae0e:	02dadfb3          	divu	t6,s5,a3
    ae12:	fff0091b          	addiw	s2,zero,-1
    ae16:	197e                	slli	s2,s2,0x3f
    ae18:	4e81                	li	t4,0
    ae1a:	fff0059b          	addiw	a1,zero,-1
    ae1e:	15fe                	slli	a1,a1,0x3f
    ae20:	fef5b337          	lui	t1,0xfef5b
    ae24:	14b3031b          	addiw	t1,t1,331
    ae28:	0332                	slli	t1,t1,0xc
    ae2a:	eeb30313          	addi	t1,t1,-277 # fffffffffef5aeeb <_end+0xfffffffffef3b1eb>
    ae2e:	0332                	slli	t1,t1,0xc
    ae30:	72b30313          	addi	t1,t1,1835
    ae34:	0332                	slli	t1,t1,0xc
    ae36:	a1c30313          	addi	t1,t1,-1508
    ae3a:	ff9fb7b7          	lui	a5,0xff9fb
    ae3e:	99d7879b          	addiw	a5,a5,-1635
    ae42:	07b6                	slli	a5,a5,0xd
    ae44:	b2578793          	addi	a5,a5,-1243 # ffffffffff9fab25 <_end+0xffffffffff9dae25>
    ae48:	07b6                	slli	a5,a5,0xd
    ae4a:	d5378793          	addi	a5,a5,-685
    ae4e:	07b6                	slli	a5,a5,0xd
    ae50:	3d078793          	addi	a5,a5,976
    ae54:	00efa537          	lui	a0,0xefa
    ae58:	4ad5051b          	addiw	a0,a0,1197
    ae5c:	0536                	slli	a0,a0,0xd
    ae5e:	0af50513          	addi	a0,a0,175 # efa0af <_end+0xeda3af>
    ae62:	0532                	slli	a0,a0,0xc
    ae64:	92f50513          	addi	a0,a0,-1745
    ae68:	0532                	slli	a0,a0,0xc
    ae6a:	88850513          	addi	a0,a0,-1912
    ae6e:	5d7d                	li	s10,-1
    ae70:	fe4a6a37          	lui	s4,0xfe4a6
    ae74:	6efa0a1b          	addiw	s4,s4,1775
    ae78:	0a32                	slli	s4,s4,0xc
    ae7a:	271a0a13          	addi	s4,s4,625 # fffffffffe4a6271 <_end+0xfffffffffe486571>
    ae7e:	0a3a                	slli	s4,s4,0xe
    ae80:	30fa0a13          	addi	s4,s4,783
    ae84:	0a32                	slli	s4,s4,0xc
    ae86:	636a0a13          	addi	s4,s4,1590
    ae8a:	fff0041b          	addiw	s0,zero,-1
    ae8e:	147e                	slli	s0,s0,0x3f
    ae90:	fff22fb7          	lui	t6,0xfff22
    ae94:	80df8f9b          	addiw	t6,t6,-2035
    ae98:	0fb6                	slli	t6,t6,0xd
    ae9a:	eedf8f93          	addi	t6,t6,-275 # fffffffffff21eed <_end+0xfffffffffff021ed>
    ae9e:	0fb2                	slli	t6,t6,0xc
    aea0:	ca5f8f93          	addi	t6,t6,-859
    aea4:	0fca                	slli	t6,t6,0x12
    aea6:	8bff8f93          	addi	t6,t6,-1857
    aeaa:	02ad1533          	mulh	a0,s10,a0
    aeae:	014d0433          	add	s0,s10,s4
    aeb2:	4144033b          	subw	t1,s0,s4
    aeb6:	034375b3          	remu	a1,t1,s4
    aeba:	03d95ebb          	divuw	t4,s2,t4
    aebe:	014d0433          	add	s0,s10,s4
    aec2:	13aa0413          	addi	s0,s4,314
    aec6:	032f85bb          	mulw	a1,t6,s2
    aeca:	03478d33          	mul	s10,a5,s4
    aece:	03d7a433          	mulhsu	s0,a5,t4
    aed2:	03d95ebb          	divuw	t4,s2,t4
    aed6:	03a965bb          	remw	a1,s2,s10
    aeda:	03a965bb          	remw	a1,s2,s10
    aede:	4144033b          	subw	t1,s0,s4
    aee2:	028d6533          	rem	a0,s10,s0
    aee6:	028d6533          	rem	a0,s10,s0
    aeea:	5d328d37          	lui	s10,0x5d328
    aeee:	0001                	nop
    aef0:	01a3ba33          	sltu	s4,t2,s10
    aef4:	01a37233          	and	tp,t1,s10
    aef8:	00f48133          	add	sp,s1,a5
    aefc:	41d98233          	sub	tp,s3,t4
    af00:	41c7043b          	subw	s0,a4,t3
    af04:	13ad0213          	addi	tp,s10,314 # 5d32813a <_end+0x5d30843a>
    af08:	037f9333          	mulh	t1,t6,s7
    af0c:	9abbcc93          	xori	s9,s7,-1621
    af10:	090e                	slli	s2,s2,0x3
    af12:	01a3ba33          	sltu	s4,t2,s10
    af16:	00f164b3          	or	s1,sp,a5
    af1a:	9ead                	addw	a3,a3,a1
    af1c:	961a                	add	a2,a2,t1
    af1e:	54f6a993          	slti	s3,a3,1359
    af22:	40865a1b          	sraiw	s4,a2,0x8
    af26:	54f6a993          	slti	s3,a3,1359
    af2a:	8d01                	sub	a0,a0,s0
    af2c:	016a92bb          	sllw	t0,s5,s6
    af30:	6eed                	lui	t4,0x1b
    af32:	40865a1b          	sraiw	s4,a2,0x8
    af36:	02e8b633          	mulhu	a2,a7,a4
    af3a:	987d                	andi	s0,s0,-1
    af3c:	40675113          	srai	sp,a4,0x6
    af40:	01182a33          	slt	s4,a6,a7
    af44:	016a92bb          	sllw	t0,s5,s6
    af48:	00f31f9b          	slliw	t6,t1,0xf
    af4c:	808d                	srli	s1,s1,0x3
    af4e:	38057713          	andi	a4,a0,896
    af52:	dfa53c93          	sltiu	s9,a0,-518
    af56:	9c8d                	subw	s1,s1,a1
    af58:	02c78bb3          	mul	s7,a5,a2
    af5c:	02e189bb          	mulw	s3,gp,a4
    af60:	40675113          	srai	sp,a4,0x6
    af64:	01182a33          	slt	s4,a6,a7
    af68:	01f099b3          	sll	s3,ra,t6
    af6c:	40675113          	srai	sp,a4,0x6
    af70:	037f9333          	mulh	t1,t6,s7
    af74:	01320b3b          	addw	s6,tp,s3
    af78:	03e0c033          	div	zero,ra,t5
    af7c:	9abbcc93          	xori	s9,s7,-1621
    af80:	13ad0213          	addi	tp,s10,314
    af84:	40865a1b          	sraiw	s4,a2,0x8
    af88:	8d3d                	xor	a0,a0,a5
    af8a:	01a37233          	and	tp,t1,s10
    af8e:	033fd793          	srli	a5,t6,0x33
    af92:	0a04                	addi	s1,sp,272
    af94:	6eed                	lui	t4,0x1b
    af96:	00e1d23b          	srlw	tp,gp,a4
    af9a:	037f9333          	mulh	t1,t6,s7
    af9e:	41d98233          	sub	tp,s3,t4
    afa2:	03e0c033          	div	zero,ra,t5
    afa6:	40865a1b          	sraiw	s4,a2,0x8
    afaa:	03509613          	slli	a2,ra,0x35
    afae:	0398d53b          	divuw	a0,a7,s9
    afb2:	41c7043b          	subw	s0,a4,t3
    afb6:	41c7043b          	subw	s0,a4,t3
    afba:	037f9333          	mulh	t1,t6,s7
    afbe:	039f7a3b          	remuw	s4,t5,s9
    afc2:	037f9333          	mulh	t1,t6,s7
    afc6:	0398d53b          	divuw	a0,a7,s9
    afca:	8d3d                	xor	a0,a0,a5
    afcc:	808d                	srli	s1,s1,0x3
    afce:	317d                	addiw	sp,sp,-1
    afd0:	01a37233          	and	tp,t1,s10
    afd4:	8d3d                	xor	a0,a0,a5
    afd6:	00f31f9b          	slliw	t6,t1,0xf
    afda:	41c7043b          	subw	s0,a4,t3
    afde:	02817933          	remu	s2,sp,s0
    afe2:	01a37233          	and	tp,t1,s10
    afe6:	8ec9                	or	a3,a3,a0
    afe8:	961a                	add	a2,a2,t1
    afea:	6eed                	lui	t4,0x1b
    afec:	00e1d23b          	srlw	tp,gp,a4
    aff0:	0001                	nop
    aff2:	54f6a993          	slti	s3,a3,1359
    aff6:	13ad0213          	addi	tp,s10,314
    affa:	1f7d                	addi	t5,t5,-1
    affc:	5d328737          	lui	a4,0x5d328
    b000:	808d                	srli	s1,s1,0x3
    b002:	03e0c033          	div	zero,ra,t5
    b006:	8ef1                	and	a3,a3,a2
    b008:	41d98233          	sub	tp,s3,t4
    b00c:	02817933          	remu	s2,sp,s0
    b010:	40dad233          	sra	tp,s5,a3
    b014:	02dadfb3          	divu	t6,s5,a3
    b018:	033fd793          	srli	a5,t6,0x33
    b01c:	8ef1                	and	a3,a3,a2
    b01e:	037f9333          	mulh	t1,t6,s7
    b022:	02f24d3b          	divw	s10,tp,a5
    b026:	00e1d23b          	srlw	tp,gp,a4
    b02a:	40dad233          	sra	tp,s5,a3
    b02e:	42686493          	ori	s1,a6,1062
    b032:	016a92bb          	sllw	t0,s5,s6
    b036:	02817933          	remu	s2,sp,s0
    b03a:	961a                	add	a2,a2,t1
    b03c:	0a04                	addi	s1,sp,272
    b03e:	961a                	add	a2,a2,t1
    b040:	987d                	andi	s0,s0,-1
    b042:	8ef1                	and	a3,a3,a2
    b044:	40865a1b          	sraiw	s4,a2,0x8
    b048:	808d                	srli	s1,s1,0x3
    b04a:	033fd793          	srli	a5,t6,0x33
    b04e:	02e8b633          	mulhu	a2,a7,a4
    b052:	01a3ba33          	sltu	s4,t2,s10
    b056:	40675113          	srai	sp,a4,0x6
    b05a:	02c78bb3          	mul	s7,a5,a2
    b05e:	016a92bb          	sllw	t0,s5,s6
    b062:	717d                	addi	sp,sp,-16
    b064:	01320b3b          	addw	s6,tp,s3
    b068:	039f7a3b          	remuw	s4,t5,s9
    b06c:	8d3d                	xor	a0,a0,a5
    b06e:	e9c89317          	auipc	t1,0xe9c89
    b072:	0398d53b          	divuw	a0,a7,s9
    b076:	9ead                	addw	a3,a3,a1
    b078:	8ec9                	or	a3,a3,a0
    b07a:	6eed                	lui	t4,0x1b
    b07c:	317d                	addiw	sp,sp,-1
    b07e:	40dad233          	sra	tp,s5,a3
    b082:	8439                	srai	s0,s0,0xe
    b084:	8ec9                	or	a3,a3,a0
    b086:	717d                	addi	sp,sp,-16
    b088:	88d2                	mv	a7,s4
    b08a:	039f7a3b          	remuw	s4,t5,s9
    b08e:	037f9333          	mulh	t1,t6,s7
    b092:	38057713          	andi	a4,a0,896
    b096:	00e1d23b          	srlw	tp,gp,a4
    b09a:	03e0c033          	div	zero,ra,t5
    b09e:	e9c89317          	auipc	t1,0xe9c89
    b0a2:	0a04                	addi	s1,sp,272
    b0a4:	8ef1                	and	a3,a3,a2
    b0a6:	00f48133          	add	sp,s1,a5
    b0aa:	0001                	nop
    b0ac:	0313633b          	remw	t1,t1,a7
    b0b0:	02e189bb          	mulw	s3,gp,a4
    b0b4:	41c7043b          	subw	s0,a4,t3
    b0b8:	02e964b3          	rem	s1,s2,a4
    b0bc:	033fd793          	srli	a5,t6,0x33
    b0c0:	6eed                	lui	t4,0x1b
    b0c2:	1f7d                	addi	t5,t5,-1
    b0c4:	e0a1059b          	addiw	a1,sp,-502
    b0c8:	01a3ba33          	sltu	s4,t2,s10
    b0cc:	01f099b3          	sll	s3,ra,t6
    b0d0:	01a37233          	and	tp,t1,s10
    b0d4:	02e8b633          	mulhu	a2,a7,a4
    b0d8:	8439                	srai	s0,s0,0xe
    b0da:	41d98233          	sub	tp,s3,t4
    b0de:	8ef1                	and	a3,a3,a2
    b0e0:	02dadfb3          	divu	t6,s5,a3
    b0e4:	01f099b3          	sll	s3,ra,t6
    b0e8:	0001                	nop
    b0ea:	41c7043b          	subw	s0,a4,t3
    b0ee:	987d                	andi	s0,s0,-1
    b0f0:	dfa53c93          	sltiu	s9,a0,-518
    b0f4:	88d2                	mv	a7,s4
    b0f6:	9abbcc93          	xori	s9,s7,-1621
    b0fa:	0001                	nop
    b0fc:	01f099b3          	sll	s3,ra,t6
    b100:	8ef1                	and	a3,a3,a2
    b102:	54f6a993          	slti	s3,a3,1359
    b106:	0398d53b          	divuw	a0,a7,s9
    b10a:	6eed                	lui	t4,0x1b
    b10c:	01a37233          	and	tp,t1,s10
    b110:	9ead                	addw	a3,a3,a1
    b112:	38057713          	andi	a4,a0,896
    b116:	8d3d                	xor	a0,a0,a5
    b118:	987d                	andi	s0,s0,-1
    b11a:	029d29b3          	mulhsu	s3,s10,s1
    b11e:	1f7d                	addi	t5,t5,-1
    b120:	090e                	slli	s2,s2,0x3
    b122:	e9c89317          	auipc	t1,0xe9c89
    b126:	02e189bb          	mulw	s3,gp,a4
    b12a:	717d                	addi	sp,sp,-16
    b12c:	40675113          	srai	sp,a4,0x6
    b130:	02f24d3b          	divw	s10,tp,a5
    b134:	e9c89317          	auipc	t1,0xe9c89
    b138:	02dadfb3          	divu	t6,s5,a3
    b13c:	4048dcbb          	sraw	s9,a7,tp
    b140:	01320b3b          	addw	s6,tp,s3
    b144:	717d                	addi	sp,sp,-16
    b146:	033fd793          	srli	a5,t6,0x33
    b14a:	e0a1059b          	addiw	a1,sp,-502
    b14e:	02c78bb3          	mul	s7,a5,a2
    b152:	00fed41b          	srliw	s0,t4,0xf
    b156:	8ec9                	or	a3,a3,a0
    b158:	0a04                	addi	s1,sp,272
    b15a:	42686493          	ori	s1,a6,1062
    b15e:	03509613          	slli	a2,ra,0x35
    b162:	88d2                	mv	a7,s4
    b164:	dfa53c93          	sltiu	s9,a0,-518
    b168:	03e0c033          	div	zero,ra,t5
    b16c:	02e189bb          	mulw	s3,gp,a4
    b170:	54f6a993          	slti	s3,a3,1359
    b174:	01f099b3          	sll	s3,ra,t6
    b178:	0001                	nop
    b17a:	02817933          	remu	s2,sp,s0
    b17e:	40dad233          	sra	tp,s5,a3
    b182:	0398d53b          	divuw	a0,a7,s9
    b186:	8d3d                	xor	a0,a0,a5
    b188:	8ef1                	and	a3,a3,a2
    b18a:	40865a1b          	sraiw	s4,a2,0x8
    b18e:	9abbcc93          	xori	s9,s7,-1621
    b192:	9abbcc93          	xori	s9,s7,-1621
    b196:	008643b3          	xor	t2,a2,s0
    b19a:	039f7a3b          	remuw	s4,t5,s9
    b19e:	008643b3          	xor	t2,a2,s0
    b1a2:	03e0c033          	div	zero,ra,t5
    b1a6:	4048dcbb          	sraw	s9,a7,tp
    b1aa:	54f6a993          	slti	s3,a3,1359
    b1ae:	e0a1059b          	addiw	a1,sp,-502
    b1b2:	40865a1b          	sraiw	s4,a2,0x8
    b1b6:	00fed41b          	srliw	s0,t4,0xf
    b1ba:	00f31f9b          	slliw	t6,t1,0xf
    b1be:	00f48133          	add	sp,s1,a5
    b1c2:	9ead                	addw	a3,a3,a1
    b1c4:	dfa53c93          	sltiu	s9,a0,-518
    b1c8:	1f7d                	addi	t5,t5,-1
    b1ca:	51fd                	li	gp,-1
    b1cc:	8d01                	sub	a0,a0,s0
    b1ce:	0001                	nop
    b1d0:	317d                	addiw	sp,sp,-1
    b1d2:	88d2                	mv	a7,s4
    b1d4:	4048dcbb          	sraw	s9,a7,tp
    b1d8:	004e5ab3          	srl	s5,t3,tp
    b1dc:	8439                	srai	s0,s0,0xe
    b1de:	8d3d                	xor	a0,a0,a5
    b1e0:	8ef1                	and	a3,a3,a2
    b1e2:	0313633b          	remw	t1,t1,a7
    b1e6:	40865a1b          	sraiw	s4,a2,0x8
    b1ea:	02e964b3          	rem	s1,s2,a4
    b1ee:	40865a1b          	sraiw	s4,a2,0x8
    b1f2:	029d29b3          	mulhsu	s3,s10,s1
    b1f6:	6eed                	lui	t4,0x1b
    b1f8:	38057713          	andi	a4,a0,896
    b1fc:	01a37233          	and	tp,t1,s10
    b200:	00f164b3          	or	s1,sp,a5
    b204:	01a37233          	and	tp,t1,s10
    b208:	0313633b          	remw	t1,t1,a7
    b20c:	02817933          	remu	s2,sp,s0
    b210:	9ead                	addw	a3,a3,a1
    b212:	1f7d                	addi	t5,t5,-1
    b214:	03e0c033          	div	zero,ra,t5
    b218:	88d2                	mv	a7,s4
    b21a:	039f7a3b          	remuw	s4,t5,s9
    b21e:	13ad0213          	addi	tp,s10,314
    b222:	02817933          	remu	s2,sp,s0
    b226:	090e                	slli	s2,s2,0x3
    b228:	e9c89317          	auipc	t1,0xe9c89
    b22c:	1f7d                	addi	t5,t5,-1
    b22e:	4048dcbb          	sraw	s9,a7,tp
    b232:	987d                	andi	s0,s0,-1
    b234:	38057713          	andi	a4,a0,896
    b238:	0313633b          	remw	t1,t1,a7
    b23c:	0001                	nop
    b23e:	8d3d                	xor	a0,a0,a5
    b240:	8d3d                	xor	a0,a0,a5
    b242:	54f6a993          	slti	s3,a3,1359
    b246:	41d98233          	sub	tp,s3,t4
    b24a:	41d98233          	sub	tp,s3,t4
    b24e:	01f099b3          	sll	s3,ra,t6
    b252:	0a04                	addi	s1,sp,272
    b254:	008643b3          	xor	t2,a2,s0
    b258:	090e                	slli	s2,s2,0x3
    b25a:	9abbcc93          	xori	s9,s7,-1621
    b25e:	0001                	nop
    b260:	02e189bb          	mulw	s3,gp,a4
    b264:	40865a1b          	sraiw	s4,a2,0x8
    b268:	717d                	addi	sp,sp,-16
    b26a:	e9c89317          	auipc	t1,0xe9c89
    b26e:	00e1d23b          	srlw	tp,gp,a4
    b272:	5d328737          	lui	a4,0x5d328
    b276:	00fed41b          	srliw	s0,t4,0xf
    b27a:	40675113          	srai	sp,a4,0x6
    b27e:	8d3d                	xor	a0,a0,a5
    b280:	42686493          	ori	s1,a6,1062
    b284:	01a3ba33          	sltu	s4,t2,s10
    b288:	016a92bb          	sllw	t0,s5,s6
    b28c:	00fed41b          	srliw	s0,t4,0xf
    b290:	02c78bb3          	mul	s7,a5,a2
    b294:	00fed41b          	srliw	s0,t4,0xf
    b298:	0313633b          	remw	t1,t1,a7
    b29c:	02dadfb3          	divu	t6,s5,a3
    b2a0:	40dad233          	sra	tp,s5,a3
    b2a4:	6eed                	lui	t4,0x1b
    b2a6:	88d2                	mv	a7,s4
    b2a8:	40675113          	srai	sp,a4,0x6
    b2ac:	808d                	srli	s1,s1,0x3
    b2ae:	004e5ab3          	srl	s5,t3,tp
    b2b2:	9c8d                	subw	s1,s1,a1
    b2b4:	02dadfb3          	divu	t6,s5,a3
    b2b8:	40dad233          	sra	tp,s5,a3
    b2bc:	8439                	srai	s0,s0,0xe
    b2be:	01f099b3          	sll	s3,ra,t6
    b2c2:	38057713          	andi	a4,a0,896
    b2c6:	9abbcc93          	xori	s9,s7,-1621
    b2ca:	037f9333          	mulh	t1,t6,s7
    b2ce:	00fed41b          	srliw	s0,t4,0xf
    b2d2:	38057713          	andi	a4,a0,896
    b2d6:	808d                	srli	s1,s1,0x3
    b2d8:	41d98233          	sub	tp,s3,t4
    b2dc:	02c78bb3          	mul	s7,a5,a2
    b2e0:	54f6a993          	slti	s3,a3,1359
    b2e4:	02e964b3          	rem	s1,s2,a4
    b2e8:	03e0c033          	div	zero,ra,t5
    b2ec:	00f164b3          	or	s1,sp,a5
    b2f0:	016a92bb          	sllw	t0,s5,s6
    b2f4:	40865a1b          	sraiw	s4,a2,0x8
    b2f8:	51fd                	li	gp,-1
    b2fa:	029d29b3          	mulhsu	s3,s10,s1
    b2fe:	02817933          	remu	s2,sp,s0
    b302:	9ead                	addw	a3,a3,a1
    b304:	8d01                	sub	a0,a0,s0
    b306:	54f6a993          	slti	s3,a3,1359
    b30a:	02817933          	remu	s2,sp,s0
    b30e:	8ec9                	or	a3,a3,a0
    b310:	54f6a993          	slti	s3,a3,1359
    b314:	008643b3          	xor	t2,a2,s0
    b318:	8ec9                	or	a3,a3,a0
    b31a:	88d2                	mv	a7,s4
    b31c:	0001                	nop
    b31e:	090e                	slli	s2,s2,0x3
    b320:	037f9333          	mulh	t1,t6,s7
    b324:	987d                	andi	s0,s0,-1
    b326:	00f31f9b          	slliw	t6,t1,0xf
    b32a:	4048dcbb          	sraw	s9,a7,tp
    b32e:	0313633b          	remw	t1,t1,a7
    b332:	02817933          	remu	s2,sp,s0
    b336:	00e1d23b          	srlw	tp,gp,a4
    b33a:	0001                	nop
    b33c:	40675113          	srai	sp,a4,0x6
    b340:	88d2                	mv	a7,s4
    b342:	01a3ba33          	sltu	s4,t2,s10
    b346:	317d                	addiw	sp,sp,-1
    b348:	dfa53c93          	sltiu	s9,a0,-518
    b34c:	51fd                	li	gp,-1
    b34e:	961a                	add	a2,a2,t1
    b350:	961a                	add	a2,a2,t1
    b352:	00f48133          	add	sp,s1,a5
    b356:	00f48133          	add	sp,s1,a5
    b35a:	01320b3b          	addw	s6,tp,s3
    b35e:	41c7043b          	subw	s0,a4,t3
    b362:	e0a1059b          	addiw	a1,sp,-502
    b366:	004e5ab3          	srl	s5,t3,tp
    b36a:	033fd793          	srli	a5,t6,0x33
    b36e:	41c7043b          	subw	s0,a4,t3
    b372:	02e8b633          	mulhu	a2,a7,a4
    b376:	01182a33          	slt	s4,a6,a7
    b37a:	38057713          	andi	a4,a0,896
    b37e:	1f7d                	addi	t5,t5,-1
    b380:	00f31f9b          	slliw	t6,t1,0xf
    b384:	01182a33          	slt	s4,a6,a7
    b388:	dfa53c93          	sltiu	s9,a0,-518
    b38c:	01f099b3          	sll	s3,ra,t6
    b390:	090e                	slli	s2,s2,0x3
    b392:	0001                	nop
    b394:	00f164b3          	or	s1,sp,a5
    b398:	0a04                	addi	s1,sp,272
    b39a:	01f099b3          	sll	s3,ra,t6
    b39e:	008643b3          	xor	t2,a2,s0
    b3a2:	037f9333          	mulh	t1,t6,s7
    b3a6:	033fd793          	srli	a5,t6,0x33
    b3aa:	5d328737          	lui	a4,0x5d328
    b3ae:	090e                	slli	s2,s2,0x3
    b3b0:	38057713          	andi	a4,a0,896
    b3b4:	01f099b3          	sll	s3,ra,t6
    b3b8:	037f9333          	mulh	t1,t6,s7
    b3bc:	02817933          	remu	s2,sp,s0
    b3c0:	016a92bb          	sllw	t0,s5,s6
    b3c4:	00e1d23b          	srlw	tp,gp,a4
    b3c8:	02e964b3          	rem	s1,s2,a4
    b3cc:	8ec9                	or	a3,a3,a0
    b3ce:	8d3d                	xor	a0,a0,a5
    b3d0:	037f9333          	mulh	t1,t6,s7
    b3d4:	e0a1059b          	addiw	a1,sp,-502
    b3d8:	8ef1                	and	a3,a3,a2
    b3da:	0001                	nop
    b3dc:	01a3ba33          	sltu	s4,t2,s10
    b3e0:	029d29b3          	mulhsu	s3,s10,s1
    b3e4:	8d3d                	xor	a0,a0,a5
    b3e6:	02e8b633          	mulhu	a2,a7,a4
    b3ea:	717d                	addi	sp,sp,-16
    b3ec:	317d                	addiw	sp,sp,-1
    b3ee:	317d                	addiw	sp,sp,-1
    b3f0:	8ec9                	or	a3,a3,a0
    b3f2:	38057713          	andi	a4,a0,896
    b3f6:	4048dcbb          	sraw	s9,a7,tp
    b3fa:	033fd793          	srli	a5,t6,0x33
    b3fe:	0a04                	addi	s1,sp,272
    b400:	8d3d                	xor	a0,a0,a5
    b402:	01320b3b          	addw	s6,tp,s3
    b406:	41c7043b          	subw	s0,a4,t3
    b40a:	40675113          	srai	sp,a4,0x6
    b40e:	42686493          	ori	s1,a6,1062
    b412:	e0a1059b          	addiw	a1,sp,-502
    b416:	02817933          	remu	s2,sp,s0
    b41a:	8ec9                	or	a3,a3,a0
    b41c:	8ef1                	and	a3,a3,a2
    b41e:	5d328737          	lui	a4,0x5d328
    b422:	0313633b          	remw	t1,t1,a7
    b426:	987d                	andi	s0,s0,-1
    b428:	987d                	andi	s0,s0,-1
    b42a:	0001                	nop
    b42c:	51fd                	li	gp,-1
    b42e:	42686493          	ori	s1,a6,1062
    b432:	02c78bb3          	mul	s7,a5,a2
    b436:	41c7043b          	subw	s0,a4,t3
    b43a:	54f6a993          	slti	s3,a3,1359
    b43e:	88d2                	mv	a7,s4
    b440:	38057713          	andi	a4,a0,896
    b444:	0313633b          	remw	t1,t1,a7
    b448:	0001                	nop
    b44a:	9abbcc93          	xori	s9,s7,-1621
    b44e:	ffff6817          	auipc	a6,0xffff6
    b452:	38880813          	addi	a6,a6,904 # 17d6 <test_done>
    b456:	00080067          	jr	a6

000000000000b45a <write_tohost>:
    b45a:	00002f17          	auipc	t5,0x2
    b45e:	ba3f2323          	sw	gp,-1114(t5) # d000 <tohost>

000000000000b462 <_exit>:
    b462:	0010051b          	addiw	a0,zero,1
    b466:	057e                	slli	a0,a0,0x1f
    b468:	0551                	addi	a0,a0,20
    b46a:	00053023          	sd	zero,0(a0)
    b46e:	b7f5                	j	b45a <write_tohost>

000000000000b470 <debug_rom>:
    b470:	7b200073          	dret

000000000000b474 <debug_exception>:
    b474:	7b200073          	dret

000000000000b478 <instr_end>:
    b478:	0001                	nop

000000000000b47a <ebreak_handler>:
    b47a:	34102bf3          	csrr	s7,mepc
    b47e:	0b91                	addi	s7,s7,4
    b480:	341b9073          	csrw	mepc,s7
    b484:	008c3083          	ld	ra,8(s8)
    b488:	010c3103          	ld	sp,16(s8)
    b48c:	018c3183          	ld	gp,24(s8)
    b490:	020c3203          	ld	tp,32(s8)
    b494:	028c3283          	ld	t0,40(s8)
    b498:	030c3303          	ld	t1,48(s8)
    b49c:	038c3383          	ld	t2,56(s8)
    b4a0:	040c3403          	ld	s0,64(s8)
    b4a4:	048c3483          	ld	s1,72(s8)
    b4a8:	050c3503          	ld	a0,80(s8)
    b4ac:	058c3583          	ld	a1,88(s8)
    b4b0:	060c3603          	ld	a2,96(s8)
    b4b4:	068c3683          	ld	a3,104(s8)
    b4b8:	070c3703          	ld	a4,112(s8)
    b4bc:	078c3783          	ld	a5,120(s8)
    b4c0:	080c3803          	ld	a6,128(s8)
    b4c4:	088c3883          	ld	a7,136(s8)
    b4c8:	090c3903          	ld	s2,144(s8)
    b4cc:	098c3983          	ld	s3,152(s8)
    b4d0:	0a0c3a03          	ld	s4,160(s8)
    b4d4:	0a8c3a83          	ld	s5,168(s8)
    b4d8:	0b0c3b03          	ld	s6,176(s8)
    b4dc:	0b8c3b83          	ld	s7,184(s8)
    b4e0:	0c0c3c03          	ld	s8,192(s8)
    b4e4:	0c8c3c83          	ld	s9,200(s8)
    b4e8:	0d0c3d03          	ld	s10,208(s8)
    b4ec:	0d8c3d83          	ld	s11,216(s8)
    b4f0:	0e0c3e03          	ld	t3,224(s8)
    b4f4:	0e8c3e83          	ld	t4,232(s8)
    b4f8:	0f0c3f03          	ld	t5,240(s8)
    b4fc:	0f8c3f83          	ld	t6,248(s8)
    b500:	0f8c0c13          	addi	s8,s8,248
    b504:	000c0e33          	add	t3,s8,zero
    b508:	340c1c73          	csrrw	s8,mscratch,s8
    b50c:	30200073          	mret

000000000000b510 <illegal_instr_handler>:
    b510:	34102bf3          	csrr	s7,mepc
    b514:	0b91                	addi	s7,s7,4
    b516:	341b9073          	csrw	mepc,s7
    b51a:	008c3083          	ld	ra,8(s8)
    b51e:	010c3103          	ld	sp,16(s8)
    b522:	018c3183          	ld	gp,24(s8)
    b526:	020c3203          	ld	tp,32(s8)
    b52a:	028c3283          	ld	t0,40(s8)
    b52e:	030c3303          	ld	t1,48(s8)
    b532:	038c3383          	ld	t2,56(s8)
    b536:	040c3403          	ld	s0,64(s8)
    b53a:	048c3483          	ld	s1,72(s8)
    b53e:	050c3503          	ld	a0,80(s8)
    b542:	058c3583          	ld	a1,88(s8)
    b546:	060c3603          	ld	a2,96(s8)
    b54a:	068c3683          	ld	a3,104(s8)
    b54e:	070c3703          	ld	a4,112(s8)
    b552:	078c3783          	ld	a5,120(s8)
    b556:	080c3803          	ld	a6,128(s8)
    b55a:	088c3883          	ld	a7,136(s8)
    b55e:	090c3903          	ld	s2,144(s8)
    b562:	098c3983          	ld	s3,152(s8)
    b566:	0a0c3a03          	ld	s4,160(s8)
    b56a:	0a8c3a83          	ld	s5,168(s8)
    b56e:	0b0c3b03          	ld	s6,176(s8)
    b572:	0b8c3b83          	ld	s7,184(s8)
    b576:	0c0c3c03          	ld	s8,192(s8)
    b57a:	0c8c3c83          	ld	s9,200(s8)
    b57e:	0d0c3d03          	ld	s10,208(s8)
    b582:	0d8c3d83          	ld	s11,216(s8)
    b586:	0e0c3e03          	ld	t3,224(s8)
    b58a:	0e8c3e83          	ld	t4,232(s8)
    b58e:	0f0c3f03          	ld	t5,240(s8)
    b592:	0f8c3f83          	ld	t6,248(s8)
    b596:	0f8c0c13          	addi	s8,s8,248
    b59a:	000c0e33          	add	t3,s8,zero
    b59e:	340c1c73          	csrrw	s8,mscratch,s8
    b5a2:	30200073          	mret

000000000000b5a6 <pt_fault_handler>:
    b5a6:	0001                	nop
    b5a8:	00000013          	nop
    b5ac:	00000013          	nop
    b5b0:	00000013          	nop
    b5b4:	00000013          	nop
    b5b8:	00000013          	nop
    b5bc:	00000013          	nop
    b5c0:	00000013          	nop
    b5c4:	00000013          	nop
    b5c8:	00000013          	nop
    b5cc:	00000013          	nop
    b5d0:	00000013          	nop
    b5d4:	00000013          	nop
    b5d8:	00000013          	nop
    b5dc:	00000013          	nop
    b5e0:	00000013          	nop
    b5e4:	00000013          	nop
    b5e8:	00000013          	nop
    b5ec:	00000013          	nop
    b5f0:	00000013          	nop
    b5f4:	00000013          	nop
    b5f8:	00000013          	nop
    b5fc:	00000013          	nop
    b600:	00000013          	nop
    b604:	00000013          	nop
    b608:	00000013          	nop
    b60c:	00000013          	nop
    b610:	00000013          	nop
    b614:	00000013          	nop
    b618:	00000013          	nop
    b61c:	00000013          	nop
    b620:	00000013          	nop
    b624:	00000013          	nop
    b628:	00000013          	nop
    b62c:	00000013          	nop
    b630:	00000013          	nop
    b634:	00000013          	nop
    b638:	00000013          	nop
    b63c:	00000013          	nop
    b640:	00000013          	nop
    b644:	00000013          	nop
    b648:	00000013          	nop
    b64c:	00000013          	nop
    b650:	00000013          	nop
    b654:	00000013          	nop
    b658:	00000013          	nop
    b65c:	00000013          	nop
    b660:	00000013          	nop
    b664:	00000013          	nop
    b668:	00000013          	nop
    b66c:	00000013          	nop
    b670:	00000013          	nop
    b674:	00000013          	nop
    b678:	00000013          	nop
    b67c:	00000013          	nop
    b680:	00000013          	nop
    b684:	00000013          	nop
    b688:	00000013          	nop
    b68c:	00000013          	nop
    b690:	00000013          	nop
    b694:	00000013          	nop
    b698:	00000013          	nop
    b69c:	00000013          	nop
    b6a0:	00000013          	nop
    b6a4:	00000013          	nop
    b6a8:	00000013          	nop
    b6ac:	00000013          	nop
    b6b0:	00000013          	nop
    b6b4:	00000013          	nop
    b6b8:	00000013          	nop
    b6bc:	00000013          	nop
    b6c0:	00000013          	nop
    b6c4:	00000013          	nop
    b6c8:	00000013          	nop
    b6cc:	00000013          	nop
    b6d0:	00000013          	nop
    b6d4:	00000013          	nop
    b6d8:	00000013          	nop
    b6dc:	00000013          	nop
    b6e0:	00000013          	nop
    b6e4:	00000013          	nop
    b6e8:	00000013          	nop
    b6ec:	00000013          	nop
    b6f0:	00000013          	nop
    b6f4:	00000013          	nop
    b6f8:	00000013          	nop
    b6fc:	00000013          	nop
    b700:	00000013          	nop
    b704:	00000013          	nop
    b708:	00000013          	nop
    b70c:	00000013          	nop
    b710:	00000013          	nop
    b714:	00000013          	nop
    b718:	00000013          	nop
    b71c:	00000013          	nop
    b720:	00000013          	nop
    b724:	00000013          	nop
    b728:	00000013          	nop
    b72c:	00000013          	nop
    b730:	00000013          	nop
    b734:	00000013          	nop
    b738:	00000013          	nop
    b73c:	00000013          	nop
    b740:	00000013          	nop
    b744:	00000013          	nop
    b748:	00000013          	nop
    b74c:	00000013          	nop
    b750:	00000013          	nop
    b754:	00000013          	nop
    b758:	00000013          	nop
    b75c:	00000013          	nop
    b760:	00000013          	nop
    b764:	00000013          	nop
    b768:	00000013          	nop
    b76c:	00000013          	nop
    b770:	00000013          	nop
    b774:	00000013          	nop
    b778:	00000013          	nop
    b77c:	00000013          	nop
    b780:	00000013          	nop
    b784:	00000013          	nop
    b788:	00000013          	nop
    b78c:	00000013          	nop
    b790:	00000013          	nop
    b794:	00000013          	nop
    b798:	00000013          	nop
    b79c:	00000013          	nop
    b7a0:	00000013          	nop
    b7a4:	00000013          	nop
    b7a8:	00000013          	nop
    b7ac:	00000013          	nop
    b7b0:	00000013          	nop
    b7b4:	00000013          	nop
    b7b8:	00000013          	nop
    b7bc:	00000013          	nop
    b7c0:	00000013          	nop
    b7c4:	00000013          	nop
    b7c8:	00000013          	nop
    b7cc:	00000013          	nop
    b7d0:	00000013          	nop
    b7d4:	00000013          	nop
    b7d8:	00000013          	nop
    b7dc:	00000013          	nop
    b7e0:	00000013          	nop
    b7e4:	00000013          	nop
    b7e8:	00000013          	nop
    b7ec:	00000013          	nop
    b7f0:	00000013          	nop
    b7f4:	00000013          	nop
    b7f8:	00000013          	nop
    b7fc:	00000013          	nop
    b800:	00000013          	nop
    b804:	00000013          	nop
    b808:	00000013          	nop
    b80c:	00000013          	nop
    b810:	00000013          	nop
    b814:	00000013          	nop
    b818:	00000013          	nop
    b81c:	00000013          	nop
    b820:	00000013          	nop
    b824:	00000013          	nop
    b828:	00000013          	nop
    b82c:	00000013          	nop
    b830:	00000013          	nop
    b834:	00000013          	nop
    b838:	00000013          	nop
    b83c:	00000013          	nop
    b840:	00000013          	nop
    b844:	00000013          	nop
    b848:	00000013          	nop
    b84c:	00000013          	nop
    b850:	00000013          	nop
    b854:	00000013          	nop
    b858:	00000013          	nop
    b85c:	00000013          	nop
    b860:	00000013          	nop
    b864:	00000013          	nop
    b868:	00000013          	nop
    b86c:	00000013          	nop
    b870:	00000013          	nop
    b874:	00000013          	nop
    b878:	00000013          	nop
    b87c:	00000013          	nop
    b880:	00000013          	nop
    b884:	00000013          	nop
    b888:	00000013          	nop
    b88c:	00000013          	nop
    b890:	00000013          	nop
    b894:	00000013          	nop
    b898:	00000013          	nop
    b89c:	00000013          	nop
    b8a0:	00000013          	nop
    b8a4:	00000013          	nop
    b8a8:	00000013          	nop
    b8ac:	00000013          	nop
    b8b0:	00000013          	nop
    b8b4:	00000013          	nop
    b8b8:	00000013          	nop
    b8bc:	00000013          	nop
    b8c0:	00000013          	nop
    b8c4:	00000013          	nop
    b8c8:	00000013          	nop
    b8cc:	00000013          	nop
    b8d0:	00000013          	nop
    b8d4:	00000013          	nop
    b8d8:	00000013          	nop
    b8dc:	00000013          	nop
    b8e0:	00000013          	nop
    b8e4:	00000013          	nop
    b8e8:	00000013          	nop
    b8ec:	00000013          	nop
    b8f0:	00000013          	nop
    b8f4:	00000013          	nop
    b8f8:	00000013          	nop
    b8fc:	00000013          	nop
    b900:	00000013          	nop
    b904:	00000013          	nop
    b908:	00000013          	nop
    b90c:	00000013          	nop
    b910:	00000013          	nop
    b914:	00000013          	nop
    b918:	00000013          	nop
    b91c:	00000013          	nop
    b920:	00000013          	nop
    b924:	00000013          	nop
    b928:	00000013          	nop
    b92c:	00000013          	nop
    b930:	00000013          	nop
    b934:	00000013          	nop
    b938:	00000013          	nop
    b93c:	00000013          	nop
    b940:	00000013          	nop
    b944:	00000013          	nop
    b948:	00000013          	nop
    b94c:	00000013          	nop
    b950:	00000013          	nop
    b954:	00000013          	nop
    b958:	00000013          	nop
    b95c:	00000013          	nop
    b960:	00000013          	nop
    b964:	00000013          	nop
    b968:	00000013          	nop
    b96c:	00000013          	nop
    b970:	00000013          	nop
    b974:	00000013          	nop
    b978:	00000013          	nop
    b97c:	00000013          	nop
    b980:	00000013          	nop
    b984:	00000013          	nop
    b988:	00000013          	nop
    b98c:	00000013          	nop
    b990:	00000013          	nop
    b994:	00000013          	nop
    b998:	00000013          	nop
    b99c:	00000013          	nop
    b9a0:	00000013          	nop
    b9a4:	00000013          	nop
    b9a8:	00000013          	nop
    b9ac:	00000013          	nop
    b9b0:	00000013          	nop
    b9b4:	00000013          	nop
    b9b8:	00000013          	nop
    b9bc:	00000013          	nop
    b9c0:	00000013          	nop
    b9c4:	00000013          	nop
    b9c8:	00000013          	nop
    b9cc:	00000013          	nop
    b9d0:	00000013          	nop
    b9d4:	00000013          	nop
    b9d8:	00000013          	nop
    b9dc:	00000013          	nop
    b9e0:	00000013          	nop
    b9e4:	00000013          	nop
    b9e8:	00000013          	nop
    b9ec:	00000013          	nop
    b9f0:	00000013          	nop
    b9f4:	00000013          	nop
    b9f8:	00000013          	nop
    b9fc:	00000013          	nop
    ba00:	00000013          	nop
    ba04:	00000013          	nop
    ba08:	00000013          	nop
    ba0c:	00000013          	nop
    ba10:	00000013          	nop
    ba14:	00000013          	nop
    ba18:	00000013          	nop
    ba1c:	00000013          	nop
    ba20:	00000013          	nop
    ba24:	00000013          	nop
    ba28:	00000013          	nop
    ba2c:	00000013          	nop
    ba30:	00000013          	nop
    ba34:	00000013          	nop
    ba38:	00000013          	nop
    ba3c:	00000013          	nop
    ba40:	00000013          	nop
    ba44:	00000013          	nop
    ba48:	00000013          	nop
    ba4c:	00000013          	nop
    ba50:	00000013          	nop
    ba54:	00000013          	nop
    ba58:	00000013          	nop
    ba5c:	00000013          	nop
    ba60:	00000013          	nop
    ba64:	00000013          	nop
    ba68:	00000013          	nop
    ba6c:	00000013          	nop
    ba70:	00000013          	nop
    ba74:	00000013          	nop
    ba78:	00000013          	nop
    ba7c:	00000013          	nop
    ba80:	00000013          	nop
    ba84:	00000013          	nop
    ba88:	00000013          	nop
    ba8c:	00000013          	nop
    ba90:	00000013          	nop
    ba94:	00000013          	nop
    ba98:	00000013          	nop
    ba9c:	00000013          	nop
    baa0:	00000013          	nop
    baa4:	00000013          	nop
    baa8:	00000013          	nop
    baac:	00000013          	nop
    bab0:	00000013          	nop
    bab4:	00000013          	nop
    bab8:	00000013          	nop
    babc:	00000013          	nop
    bac0:	00000013          	nop
    bac4:	00000013          	nop
    bac8:	00000013          	nop
    bacc:	00000013          	nop
    bad0:	00000013          	nop
    bad4:	00000013          	nop
    bad8:	00000013          	nop
    badc:	00000013          	nop
    bae0:	00000013          	nop
    bae4:	00000013          	nop
    bae8:	00000013          	nop
    baec:	00000013          	nop
    baf0:	00000013          	nop
    baf4:	00000013          	nop
    baf8:	00000013          	nop
    bafc:	00000013          	nop
    bb00:	00000013          	nop
    bb04:	00000013          	nop
    bb08:	00000013          	nop
    bb0c:	00000013          	nop
    bb10:	00000013          	nop
    bb14:	00000013          	nop
    bb18:	00000013          	nop
    bb1c:	00000013          	nop
    bb20:	00000013          	nop
    bb24:	00000013          	nop
    bb28:	00000013          	nop
    bb2c:	00000013          	nop
    bb30:	00000013          	nop
    bb34:	00000013          	nop
    bb38:	00000013          	nop
    bb3c:	00000013          	nop
    bb40:	00000013          	nop
    bb44:	00000013          	nop
    bb48:	00000013          	nop
    bb4c:	00000013          	nop
    bb50:	00000013          	nop
    bb54:	00000013          	nop
    bb58:	00000013          	nop
    bb5c:	00000013          	nop
    bb60:	00000013          	nop
    bb64:	00000013          	nop
    bb68:	00000013          	nop
    bb6c:	00000013          	nop
    bb70:	00000013          	nop
    bb74:	00000013          	nop
    bb78:	00000013          	nop
    bb7c:	00000013          	nop
    bb80:	00000013          	nop
    bb84:	00000013          	nop
    bb88:	00000013          	nop
    bb8c:	00000013          	nop
    bb90:	00000013          	nop
    bb94:	00000013          	nop
    bb98:	00000013          	nop
    bb9c:	00000013          	nop
    bba0:	00000013          	nop
    bba4:	00000013          	nop
    bba8:	00000013          	nop
    bbac:	00000013          	nop
    bbb0:	00000013          	nop
    bbb4:	00000013          	nop
    bbb8:	00000013          	nop
    bbbc:	00000013          	nop
    bbc0:	00000013          	nop
    bbc4:	00000013          	nop
    bbc8:	00000013          	nop
    bbcc:	00000013          	nop
    bbd0:	00000013          	nop
    bbd4:	00000013          	nop
    bbd8:	00000013          	nop
    bbdc:	00000013          	nop
    bbe0:	00000013          	nop
    bbe4:	00000013          	nop
    bbe8:	00000013          	nop
    bbec:	00000013          	nop
    bbf0:	00000013          	nop
    bbf4:	00000013          	nop
    bbf8:	00000013          	nop
    bbfc:	00000013          	nop
    bc00:	00000013          	nop
    bc04:	00000013          	nop
    bc08:	00000013          	nop
    bc0c:	00000013          	nop
    bc10:	00000013          	nop
    bc14:	00000013          	nop
    bc18:	00000013          	nop
    bc1c:	00000013          	nop
    bc20:	00000013          	nop
    bc24:	00000013          	nop
    bc28:	00000013          	nop
    bc2c:	00000013          	nop
    bc30:	00000013          	nop
    bc34:	00000013          	nop
    bc38:	00000013          	nop
    bc3c:	00000013          	nop
    bc40:	00000013          	nop
    bc44:	00000013          	nop
    bc48:	00000013          	nop
    bc4c:	00000013          	nop
    bc50:	00000013          	nop
    bc54:	00000013          	nop
    bc58:	00000013          	nop
    bc5c:	00000013          	nop
    bc60:	00000013          	nop
    bc64:	00000013          	nop
    bc68:	00000013          	nop
    bc6c:	00000013          	nop
    bc70:	00000013          	nop
    bc74:	00000013          	nop
    bc78:	00000013          	nop
    bc7c:	00000013          	nop
    bc80:	00000013          	nop
    bc84:	00000013          	nop
    bc88:	00000013          	nop
    bc8c:	00000013          	nop
    bc90:	00000013          	nop
    bc94:	00000013          	nop
    bc98:	00000013          	nop
    bc9c:	00000013          	nop
    bca0:	00000013          	nop
    bca4:	00000013          	nop
    bca8:	00000013          	nop
    bcac:	00000013          	nop
    bcb0:	00000013          	nop
    bcb4:	00000013          	nop
    bcb8:	00000013          	nop
    bcbc:	00000013          	nop
    bcc0:	00000013          	nop
    bcc4:	00000013          	nop
    bcc8:	00000013          	nop
    bccc:	00000013          	nop
    bcd0:	00000013          	nop
    bcd4:	00000013          	nop
    bcd8:	00000013          	nop
    bcdc:	00000013          	nop
    bce0:	00000013          	nop
    bce4:	00000013          	nop
    bce8:	00000013          	nop
    bcec:	00000013          	nop
    bcf0:	00000013          	nop
    bcf4:	00000013          	nop
    bcf8:	00000013          	nop
    bcfc:	00000013          	nop
    bd00:	00000013          	nop
    bd04:	00000013          	nop
    bd08:	00000013          	nop
    bd0c:	00000013          	nop
    bd10:	00000013          	nop
    bd14:	00000013          	nop
    bd18:	00000013          	nop
    bd1c:	00000013          	nop
    bd20:	00000013          	nop
    bd24:	00000013          	nop
    bd28:	00000013          	nop
    bd2c:	00000013          	nop
    bd30:	00000013          	nop
    bd34:	00000013          	nop
    bd38:	00000013          	nop
    bd3c:	00000013          	nop
    bd40:	00000013          	nop
    bd44:	00000013          	nop
    bd48:	00000013          	nop
    bd4c:	00000013          	nop
    bd50:	00000013          	nop
    bd54:	00000013          	nop
    bd58:	00000013          	nop
    bd5c:	00000013          	nop
    bd60:	00000013          	nop
    bd64:	00000013          	nop
    bd68:	00000013          	nop
    bd6c:	00000013          	nop
    bd70:	00000013          	nop
    bd74:	00000013          	nop
    bd78:	00000013          	nop
    bd7c:	00000013          	nop
    bd80:	00000013          	nop
    bd84:	00000013          	nop
    bd88:	00000013          	nop
    bd8c:	00000013          	nop
    bd90:	00000013          	nop
    bd94:	00000013          	nop
    bd98:	00000013          	nop
    bd9c:	00000013          	nop
    bda0:	00000013          	nop
    bda4:	00000013          	nop
    bda8:	00000013          	nop
    bdac:	00000013          	nop
    bdb0:	00000013          	nop
    bdb4:	00000013          	nop
    bdb8:	00000013          	nop
    bdbc:	00000013          	nop
    bdc0:	00000013          	nop
    bdc4:	00000013          	nop
    bdc8:	00000013          	nop
    bdcc:	00000013          	nop
    bdd0:	00000013          	nop
    bdd4:	00000013          	nop
    bdd8:	00000013          	nop
    bddc:	00000013          	nop
    bde0:	00000013          	nop
    bde4:	00000013          	nop
    bde8:	00000013          	nop
    bdec:	00000013          	nop
    bdf0:	00000013          	nop
    bdf4:	00000013          	nop
    bdf8:	00000013          	nop
    bdfc:	00000013          	nop
    be00:	00000013          	nop
    be04:	00000013          	nop
    be08:	00000013          	nop
    be0c:	00000013          	nop
    be10:	00000013          	nop
    be14:	00000013          	nop
    be18:	00000013          	nop
    be1c:	00000013          	nop
    be20:	00000013          	nop
    be24:	00000013          	nop
    be28:	00000013          	nop
    be2c:	00000013          	nop
    be30:	00000013          	nop
    be34:	00000013          	nop
    be38:	00000013          	nop
    be3c:	00000013          	nop
    be40:	00000013          	nop
    be44:	00000013          	nop
    be48:	00000013          	nop
    be4c:	00000013          	nop
    be50:	00000013          	nop
    be54:	00000013          	nop
    be58:	00000013          	nop
    be5c:	00000013          	nop
    be60:	00000013          	nop
    be64:	00000013          	nop
    be68:	00000013          	nop
    be6c:	00000013          	nop
    be70:	00000013          	nop
    be74:	00000013          	nop
    be78:	00000013          	nop
    be7c:	00000013          	nop
    be80:	00000013          	nop
    be84:	00000013          	nop
    be88:	00000013          	nop
    be8c:	00000013          	nop
    be90:	00000013          	nop
    be94:	00000013          	nop
    be98:	00000013          	nop
    be9c:	00000013          	nop
    bea0:	00000013          	nop
    bea4:	00000013          	nop
    bea8:	00000013          	nop
    beac:	00000013          	nop
    beb0:	00000013          	nop
    beb4:	00000013          	nop
    beb8:	00000013          	nop
    bebc:	00000013          	nop
    bec0:	00000013          	nop
    bec4:	00000013          	nop
    bec8:	00000013          	nop
    becc:	00000013          	nop
    bed0:	00000013          	nop
    bed4:	00000013          	nop
    bed8:	00000013          	nop
    bedc:	00000013          	nop
    bee0:	00000013          	nop
    bee4:	00000013          	nop
    bee8:	00000013          	nop
    beec:	00000013          	nop
    bef0:	00000013          	nop
    bef4:	00000013          	nop
    bef8:	00000013          	nop
    befc:	00000013          	nop
    bf00:	00000013          	nop
    bf04:	00000013          	nop
    bf08:	00000013          	nop
    bf0c:	00000013          	nop
    bf10:	00000013          	nop
    bf14:	00000013          	nop
    bf18:	00000013          	nop
    bf1c:	00000013          	nop
    bf20:	00000013          	nop
    bf24:	00000013          	nop
    bf28:	00000013          	nop
    bf2c:	00000013          	nop
    bf30:	00000013          	nop
    bf34:	00000013          	nop
    bf38:	00000013          	nop
    bf3c:	00000013          	nop
    bf40:	00000013          	nop
    bf44:	00000013          	nop
    bf48:	00000013          	nop
    bf4c:	00000013          	nop
    bf50:	00000013          	nop
    bf54:	00000013          	nop
    bf58:	00000013          	nop
    bf5c:	00000013          	nop
    bf60:	00000013          	nop
    bf64:	00000013          	nop
    bf68:	00000013          	nop
    bf6c:	00000013          	nop
    bf70:	00000013          	nop
    bf74:	00000013          	nop
    bf78:	00000013          	nop
    bf7c:	00000013          	nop
    bf80:	00000013          	nop
    bf84:	00000013          	nop
    bf88:	00000013          	nop
    bf8c:	00000013          	nop
    bf90:	00000013          	nop
    bf94:	00000013          	nop
    bf98:	00000013          	nop
    bf9c:	00000013          	nop
    bfa0:	00000013          	nop
    bfa4:	00000013          	nop
    bfa8:	00000013          	nop
    bfac:	00000013          	nop
    bfb0:	00000013          	nop
    bfb4:	00000013          	nop
    bfb8:	00000013          	nop
    bfbc:	00000013          	nop
    bfc0:	00000013          	nop
    bfc4:	00000013          	nop
    bfc8:	00000013          	nop
    bfcc:	00000013          	nop
    bfd0:	00000013          	nop
    bfd4:	00000013          	nop
    bfd8:	00000013          	nop
    bfdc:	00000013          	nop
    bfe0:	00000013          	nop
    bfe4:	00000013          	nop
    bfe8:	00000013          	nop
    bfec:	00000013          	nop
    bff0:	00000013          	nop
    bff4:	00000013          	nop
    bff8:	00000013          	nop
    bffc:	00000013          	nop

000000000000c000 <mmode_intr_handler>:
    c000:	30002bf3          	csrr	s7,mstatus
    c004:	30402bf3          	csrr	s7,mie
    c008:	34402bf3          	csrr	s7,mip
    c00c:	344bbbf3          	csrrc	s7,mip,s7
    c010:	008c3083          	ld	ra,8(s8)
    c014:	010c3103          	ld	sp,16(s8)
    c018:	018c3183          	ld	gp,24(s8)
    c01c:	020c3203          	ld	tp,32(s8)
    c020:	028c3283          	ld	t0,40(s8)
    c024:	030c3303          	ld	t1,48(s8)
    c028:	038c3383          	ld	t2,56(s8)
    c02c:	040c3403          	ld	s0,64(s8)
    c030:	048c3483          	ld	s1,72(s8)
    c034:	050c3503          	ld	a0,80(s8)
    c038:	058c3583          	ld	a1,88(s8)
    c03c:	060c3603          	ld	a2,96(s8)
    c040:	068c3683          	ld	a3,104(s8)
    c044:	070c3703          	ld	a4,112(s8)
    c048:	078c3783          	ld	a5,120(s8)
    c04c:	080c3803          	ld	a6,128(s8)
    c050:	088c3883          	ld	a7,136(s8)
    c054:	090c3903          	ld	s2,144(s8)
    c058:	098c3983          	ld	s3,152(s8)
    c05c:	0a0c3a03          	ld	s4,160(s8)
    c060:	0a8c3a83          	ld	s5,168(s8)
    c064:	0b0c3b03          	ld	s6,176(s8)
    c068:	0b8c3b83          	ld	s7,184(s8)
    c06c:	0c0c3c03          	ld	s8,192(s8)
    c070:	0c8c3c83          	ld	s9,200(s8)
    c074:	0d0c3d03          	ld	s10,208(s8)
    c078:	0d8c3d83          	ld	s11,216(s8)
    c07c:	0e0c3e03          	ld	t3,224(s8)
    c080:	0e8c3e83          	ld	t4,232(s8)
    c084:	0f0c3f03          	ld	t5,240(s8)
    c088:	0f8c3f83          	ld	t6,248(s8)
    c08c:	0f8c0c13          	addi	s8,s8,248
    c090:	000c0e33          	add	t3,s8,zero
    c094:	340c1c73          	csrrw	s8,mscratch,s8
    c098:	30200073          	mret

000000000000c09c <kernel_instr_end>:
    c09c:	0001                	nop
	...
